
project.elf:     file format elf32-littlenios2
project.elf
architecture: nios2:r1, flags 0x00000112:
EXEC_P, HAS_SYMS, D_PAGED
start address 0x08040244

Program Header:
    LOAD off    0x00001000 vaddr 0x08040000 paddr 0x08040000 align 2**12
         filesz 0x00000020 memsz 0x00000020 flags r-x
    LOAD off    0x00001020 vaddr 0x08040020 paddr 0x08040020 align 2**12
         filesz 0x000074a4 memsz 0x000074a4 flags r-x
    LOAD off    0x000084c4 vaddr 0x080474c4 paddr 0x08048fdc align 2**12
         filesz 0x00001b18 memsz 0x00001b18 flags rw-
    LOAD off    0x0000aaf4 vaddr 0x0804aaf4 paddr 0x0804aaf4 align 2**12
         filesz 0x00000000 memsz 0x00000188 flags rw-

Sections:
Idx Name          Size      VMA       LMA       File off  Algn
  0 .entry        00000020  08040000  08040000  00001000  2**5
                  CONTENTS, ALLOC, LOAD, READONLY, CODE
  1 .exceptions   00000224  08040020  08040020  00001020  2**2
                  CONTENTS, ALLOC, LOAD, READONLY, CODE
  2 .text         00007074  08040244  08040244  00001244  2**2
                  CONTENTS, ALLOC, LOAD, READONLY, CODE
  3 .rodata       0000020c  080472b8  080472b8  000082b8  2**2
                  CONTENTS, ALLOC, LOAD, READONLY, DATA
  4 .rwdata       00001b18  080474c4  08048fdc  000084c4  2**2
                  CONTENTS, ALLOC, LOAD, DATA, SMALL_DATA
  5 .bss          00000188  0804aaf4  0804aaf4  0000aaf4  2**2
                  ALLOC, SMALL_DATA
  6 .new_sdram_controller_0 00000000  04000000  04000000  00009fdc  2**0
                  CONTENTS
  7 .onchip_memory2_0 00000000  0804ac7c  0804ac7c  00009fdc  2**0
                  CONTENTS
  8 .comment      00000023  00000000  00000000  00009fdc  2**0
                  CONTENTS, READONLY
  9 .debug_aranges 00000b50  00000000  00000000  0000a000  2**3
                  CONTENTS, READONLY, DEBUGGING
 10 .debug_info   000190c5  00000000  00000000  0000ab50  2**0
                  CONTENTS, READONLY, DEBUGGING
 11 .debug_abbrev 00006cad  00000000  00000000  00023c15  2**0
                  CONTENTS, READONLY, DEBUGGING
 12 .debug_line   00007650  00000000  00000000  0002a8c2  2**0
                  CONTENTS, READONLY, DEBUGGING
 13 .debug_frame  00001ce4  00000000  00000000  00031f14  2**2
                  CONTENTS, READONLY, DEBUGGING
 14 .debug_str    0000321a  00000000  00000000  00033bf8  2**0
                  CONTENTS, READONLY, DEBUGGING
 15 .debug_loc    00004396  00000000  00000000  00036e12  2**0
                  CONTENTS, READONLY, DEBUGGING
 16 .debug_alt_sim_info 00000030  00000000  00000000  0003b1a8  2**2
                  CONTENTS, READONLY, DEBUGGING
 17 .debug_ranges 000007c8  00000000  00000000  0003b1d8  2**3
                  CONTENTS, READONLY, DEBUGGING
 18 .thread_model 00000003  00000000  00000000  0003ebce  2**0
                  CONTENTS, READONLY
 19 .cpu          0000000c  00000000  00000000  0003ebd1  2**0
                  CONTENTS, READONLY
 20 .qsys         00000001  00000000  00000000  0003ebdd  2**0
                  CONTENTS, READONLY
 21 .simulation_enabled 00000001  00000000  00000000  0003ebde  2**0
                  CONTENTS, READONLY
 22 .sysid_hash   00000004  00000000  00000000  0003ebdf  2**0
                  CONTENTS, READONLY
 23 .sysid_base   00000004  00000000  00000000  0003ebe3  2**0
                  CONTENTS, READONLY
 24 .sysid_time   00000004  00000000  00000000  0003ebe7  2**0
                  CONTENTS, READONLY
 25 .stderr_dev   0000000b  00000000  00000000  0003ebeb  2**0
                  CONTENTS, READONLY
 26 .stdin_dev    0000000b  00000000  00000000  0003ebf6  2**0
                  CONTENTS, READONLY
 27 .stdout_dev   0000000b  00000000  00000000  0003ec01  2**0
                  CONTENTS, READONLY
 28 .sopc_system_name 0000000d  00000000  00000000  0003ec0c  2**0
                  CONTENTS, READONLY
 29 .quartus_project_dir 00000059  00000000  00000000  0003ec19  2**0
                  CONTENTS, READONLY
 30 .jdi          0000540e  00000000  00000000  0003ec72  2**0
                  CONTENTS, READONLY
 31 .sopcinfo     0008de3c  00000000  00000000  00044080  2**0
                  CONTENTS, READONLY
SYMBOL TABLE:
08040000 l    d  .entry	00000000 .entry
08040020 l    d  .exceptions	00000000 .exceptions
08040244 l    d  .text	00000000 .text
080472b8 l    d  .rodata	00000000 .rodata
080474c4 l    d  .rwdata	00000000 .rwdata
0804aaf4 l    d  .bss	00000000 .bss
04000000 l    d  .new_sdram_controller_0	00000000 .new_sdram_controller_0
0804ac7c l    d  .onchip_memory2_0	00000000 .onchip_memory2_0
00000000 l    d  .comment	00000000 .comment
00000000 l    d  .debug_aranges	00000000 .debug_aranges
00000000 l    d  .debug_info	00000000 .debug_info
00000000 l    d  .debug_abbrev	00000000 .debug_abbrev
00000000 l    d  .debug_line	00000000 .debug_line
00000000 l    d  .debug_frame	00000000 .debug_frame
00000000 l    d  .debug_str	00000000 .debug_str
00000000 l    d  .debug_loc	00000000 .debug_loc
00000000 l    d  .debug_alt_sim_info	00000000 .debug_alt_sim_info
00000000 l    d  .debug_ranges	00000000 .debug_ranges
00000000 l    df *ABS*	00000000 C:/Users/smail/Desktop/College/MA2/Real_Time_Embedded_Systems/final_projectCCC/sw/nios/project_bsp//obj/HAL/src/crt0.o
0804028c l       .text	00000000 alt_after_alt_main
00000000 l    df *ABS*	00000000 alt_irq_handler.c
00000000 l    df *ABS*	00000000 alt_instruction_exception_entry.c
00000000 l    df *ABS*	00000000 hello_world.c
00000000 l    df *ABS*	00000000 lib2-divmod.c
00000000 l    df *ABS*	00000000 addsf3.c
00000000 l    df *ABS*	00000000 lesf2.c
00000000 l    df *ABS*	00000000 floatunsisf.c
00000000 l    df *ABS*	00000000 libgcc2.c
00000000 l    df *ABS*	00000000 libgcc2.c
00000000 l    df *ABS*	00000000 clock.c
00000000 l    df *ABS*	00000000 impure.c
080474c4 l     O .rwdata	00000424 impure_data
00000000 l    df *ABS*	00000000 timesr.c
00000000 l    df *ABS*	00000000 alt_iic.c
00000000 l    df *ABS*	00000000 alt_iic_isr_register.c
00000000 l    df *ABS*	00000000 alt_irq_vars.c
00000000 l    df *ABS*	00000000 alt_load.c
08041a24 l     F .text	00000068 alt_load_section
00000000 l    df *ABS*	00000000 alt_main.c
00000000 l    df *ABS*	00000000 alt_printf.c
00000000 l    df *ABS*	00000000 alt_putchar.c
00000000 l    df *ABS*	00000000 alt_times.c
08041df4 l     F .text	0000003c alt_get_errno
00000000 l    df *ABS*	00000000 alt_sys_init.c
08041ea8 l     F .text	00000034 alt_dev_reg
080478e8 l     O .rwdata	00001060 jtag_uart_0
08048948 l     O .rwdata	0000002c adc_0
08048974 l     O .rwdata	00000030 audio_and_video_config_0
080489a4 l     O .rwdata	00000030 audio_0
00000000 l    df *ABS*	00000000 altera_avalon_jtag_uart_fd.c
00000000 l    df *ABS*	00000000 altera_avalon_jtag_uart_init.c
080421c0 l     F .text	0000020c altera_avalon_jtag_uart_irq
080423cc l     F .text	000000a0 altera_avalon_jtag_uart_timeout
00000000 l    df *ABS*	00000000 altera_avalon_jtag_uart_ioctl.c
00000000 l    df *ABS*	00000000 altera_avalon_jtag_uart_read.c
00000000 l    df *ABS*	00000000 altera_avalon_jtag_uart_write.c
00000000 l    df *ABS*	00000000 altera_avalon_timer_sc.c
08042a04 l     F .text	00000078 alt_avalon_timer_sc_irq
00000000 l    df *ABS*	00000000 altera_up_avalon_audio.c
00000000 l    df *ABS*	00000000 altera_up_avalon_audio_and_video_config.c
00000000 l    df *ABS*	00000000 alt_alarm_start.c
00000000 l    df *ABS*	00000000 alt_close.c
08043ac8 l     F .text	0000003c alt_get_errno
00000000 l    df *ABS*	00000000 alt_dcache_flush_all.c
00000000 l    df *ABS*	00000000 alt_dev.c
08043c1c l     F .text	0000002c alt_dev_null_write
00000000 l    df *ABS*	00000000 alt_dev_llist_insert.c
08043c48 l     F .text	0000003c alt_get_errno
00000000 l    df *ABS*	00000000 alt_do_ctors.c
00000000 l    df *ABS*	00000000 alt_do_dtors.c
00000000 l    df *ABS*	00000000 alt_errno.c
00000000 l    df *ABS*	00000000 alt_find_dev.c
00000000 l    df *ABS*	00000000 alt_icache_flush_all.c
00000000 l    df *ABS*	00000000 alt_io_redirect.c
08043f48 l     F .text	000000c4 alt_open_fd
00000000 l    df *ABS*	00000000 alt_open.c
08044088 l     F .text	0000003c alt_get_errno
080440c4 l     F .text	000000c4 alt_file_locked
00000000 l    df *ABS*	00000000 alt_release_fd.c
00000000 l    df *ABS*	00000000 alt_tick.c
00000000 l    df *ABS*	00000000 altera_nios2_gen2_irq.c
00000000 l    df *ABS*	00000000 alt_find_file.c
00000000 l    df *ABS*	00000000 alt_get_fd.c
00000000 l    df *ABS*	00000000 alt_icache_flush.c
00000000 l    df *ABS*	00000000 atexit.c
00000000 l    df *ABS*	00000000 exit.c
00000000 l    df *ABS*	00000000 int_errno.c
00000000 l    df *ABS*	00000000 memcmp.c
00000000 l    df *ABS*	00000000 memcpy.c
00000000 l    df *ABS*	00000000 putc.c
00000000 l    df *ABS*	00000000 strlen.c
00000000 l    df *ABS*	00000000 wbuf.c
00000000 l    df *ABS*	00000000 wsetup.c
00000000 l    df *ABS*	00000000 __atexit.c
00000000 l    df *ABS*	00000000 __call_atexit.c
00000000 l    df *ABS*	00000000 fflush.c
00000000 l    df *ABS*	00000000 findfp.c
08045340 l     F .text	00000008 __fp_unlock
08045354 l     F .text	0000019c __sinit.part.1
080454f0 l     F .text	00000008 __fp_lock
00000000 l    df *ABS*	00000000 mallocr.c
00000000 l    df *ABS*	00000000 fwalk.c
00000000 l    df *ABS*	00000000 makebuf.c
00000000 l    df *ABS*	00000000 mallocr.c
00000000 l    df *ABS*	00000000 memset.c
00000000 l    df *ABS*	00000000 sbrkr.c
00000000 l    df *ABS*	00000000 stdio.c
00000000 l    df *ABS*	00000000 writer.c
00000000 l    df *ABS*	00000000 closer.c
00000000 l    df *ABS*	00000000 fclose.c
00000000 l    df *ABS*	00000000 fstatr.c
00000000 l    df *ABS*	00000000 isattyr.c
00000000 l    df *ABS*	00000000 lseekr.c
00000000 l    df *ABS*	00000000 readr.c
00000000 l    df *ABS*	00000000 alt_exit.c
00000000 l    df *ABS*	00000000 alt_fstat.c
08046c78 l     F .text	0000003c alt_get_errno
00000000 l    df *ABS*	00000000 alt_isatty.c
08046d64 l     F .text	0000003c alt_get_errno
00000000 l    df *ABS*	00000000 alt_lseek.c
08046e44 l     F .text	0000003c alt_get_errno
00000000 l    df *ABS*	00000000 alt_malloc_lock.c
00000000 l    df *ABS*	00000000 alt_read.c
08046f9c l     F .text	0000003c alt_get_errno
00000000 l    df *ABS*	00000000 alt_sbrk.c
08048fd8 l     O .rwdata	00000004 heap_end
00000000 l    df *ABS*	00000000 alt_write.c
08047184 l     F .text	0000003c alt_get_errno
0804ab38 g     O .bss	00000004 alt_instruction_exception_handler
080433e4 g     F .text	00000038 alt_up_av_config_reset
0804383c g     F .text	00000058 alt_up_av_config_read_D5M_cfg_register
08046b30 g     F .text	00000054 _isatty_r
08043454 g     F .text	00000034 alt_up_av_config_disable_interrupt
08041b10 g     F .text	0000007c alt_main
0804ab00 g     O .bss	00000004 effect2_avg
0804ab7c g     O .bss	00000100 alt_irq
08046b84 g     F .text	00000060 _lseek_r
08048fdc g       *ABS*	00000000 __flash_rwdata_start
08042da0 g     F .text	00000060 alt_up_audio_read_fifo_avail
0804ac7c g       *ABS*	00000000 __alt_heap_start
08043518 g     F .text	000000a4 alt_up_av_config_write_audio_cfg_register
08048f94 g     O .rwdata	00000004 effect3_buffer
08042e00 g     F .text	00000068 alt_up_audio_record_r
080468b8 g     F .text	0000005c __sseek
08045690 g     F .text	00000010 __sinit
08044b54 g     F .text	00000140 __swbuf_r
080454f8 g     F .text	00000068 __sfmoreglue
08046f78 g     F .text	00000024 __malloc_unlock
08042d0c g     F .text	00000094 alt_up_audio_reset_audio_core
08045678 g     F .text	00000018 _cleanup
080444e4 g     F .text	00000024 altera_nios2_gen2_irq_init
08040000 g     F .entry	0000001c __reset
08041e30 g     F .text	00000078 times
08040788 g     F .text	00000134 recording_isr
08040020 g       *ABS*	00000000 __flash_exceptions_start
0804ab0c g     O .bss	00000004 interrupted
08046ad4 g     F .text	0000005c _fstat_r
0804ab44 g     O .bss	00000004 errno
08046834 g     F .text	00000008 __seofread
08042ccc g     F .text	00000040 alt_up_audio_write_interrupt_pending
0804ab30 g     O .bss	00000004 alt_argv
08050f84 g       *ABS*	00000000 _gp
080489fc g     O .rwdata	00000180 alt_fd_list
0804aaf8 g     O .bss	00000004 buffer2_avg
08043de8 g     F .text	00000090 alt_find_dev
0804480c g     F .text	00000148 memcpy
0804177c g     F .text	00000008 _times_r
08045348 g     F .text	0000000c _cleanup_r
0804400c g     F .text	0000007c alt_io_redirect
080472b8 g       *ABS*	00000000 __DTOR_END__
08043eac g     F .text	0000009c alt_exception_cause_generated_bad_addr
080431e8 g     F .text	00000050 alt_up_audio_read_fifo_head
080425c4 g     F .text	0000021c altera_avalon_jtag_uart_read
08040000 g       *ABS*	00000000 __alt_mem_onchip_memory2_0
08040f90 g     F .text	00000064 .hidden __udivsi3
08046da0 g     F .text	000000a4 isatty
08041514 g     F .text	000000c8 .hidden __lesf2
080446b4 g     F .text	00000090 alt_icache_flush
0804ab50 g     O .bss	00000004 __malloc_top_pad
08043364 g     F .text	00000080 alt_up_av_config_read_data
0804ab20 g     O .bss	00000004 audio_dev
0804678c g     F .text	00000054 _sbrk_r
08046be4 g     F .text	00000060 _read_r
08048fc0 g     O .rwdata	00000004 alt_max_fd
08043238 g     F .text	00000068 alt_up_audio_write_fifo_head
080469d0 g     F .text	000000f0 _fclose_r
08045310 g     F .text	00000030 fflush
08048f8c g     O .rwdata	00000004 effect1_buffer
0804ab4c g     O .bss	00000004 __malloc_max_sbrked_mem
0804ab1c g     O .bss	00000004 current_index2
08046e80 g     F .text	000000d4 lseek
08040458 g     F .text	00000188 combined_play
08048fa4 g     O .rwdata	00000004 _global_impure_ptr
0804ac7c g       *ABS*	00000000 __bss_end
08041934 g     F .text	000000f0 alt_iic_isr_register
080443dc g     F .text	00000108 alt_tick
08042af8 g     F .text	0000003c alt_up_audio_open_dev
0804ab08 g     O .bss	00000004 effect4_avg
080456b0 g     F .text	00000018 __fp_lock_all
080418e8 g     F .text	0000004c alt_ic_irq_enabled
0804ab10 g     O .bss	00000004 state
08042f30 g     F .text	00000068 alt_up_audio_play_r
08044340 g     F .text	0000009c alt_alarm_stop
080406dc g     F .text	000000ac effects_isr
0804aaf4 g     O .bss	00000004 buffer_avg
0804ab28 g     O .bss	00000004 alt_irq_active
080400fc g     F .exceptions	000000d4 alt_irq_handler
080489d4 g     O .rwdata	00000028 alt_dev_null
0804ab14 g     O .bss	00000004 beat_state
08043bd4 g     F .text	00000048 alt_dcache_flush_all
08048fdc g       *ABS*	00000000 __ram_rwdata_end
08048fb8 g     O .rwdata	00000008 alt_dev_list
080471c0 g     F .text	000000f8 write
08044954 g     F .text	000000a0 _putc_r
080474c4 g       *ABS*	00000000 __ram_rodata_end
08046cb4 g     F .text	000000b0 fstat
0804ab24 g     O .bss	00000004 audio_conf
08040ff4 g     F .text	00000058 .hidden __umodsi3
0804ac7c g       *ABS*	00000000 end
08042100 g     F .text	000000c0 altera_avalon_jtag_uart_init
080401d0 g     F .exceptions	00000074 alt_instruction_exception_entry
080472b8 g       *ABS*	00000000 __CTOR_LIST__
08080000 g       *ABS*	00000000 __alt_stack_pointer
08042a7c g     F .text	0000007c alt_avalon_timer_sc_init
080416cc g     F .text	00000064 .hidden __clzsi2
080427e0 g     F .text	00000224 altera_avalon_jtag_uart_write
080456a0 g     F .text	00000004 __sfp_lock_acquire
08048f88 g     O .rwdata	00000004 audio_buffer2
08045804 g     F .text	00000310 _free_r
08041b8c g     F .text	0000022c alt_printf
08044f18 g     F .text	00000180 __call_exitprocs
08048fd0 g     O .rwdata	00000004 __malloc_sbrk_base
08040244 g     F .text	0000004c _start
0804ab3c g     O .bss	00000004 _alt_tick_rate
080430e0 g     F .text	00000108 alt_up_audio_write_fifo
08043300 g     F .text	00000064 alt_up_av_config_write_data
0804ab40 g     O .bss	00000004 _alt_nticks
080405e0 g     F .text	000000fc play
08046fd8 g     F .text	000000fc read
08041f14 g     F .text	00000088 alt_sys_init
08043000 g     F .text	000000e0 alt_up_audio_read_fifo
08044e00 g     F .text	00000118 __register_exitproc
08043944 g     F .text	00000058 alt_up_av_config_write_LTM_cfg_register
08042c34 g     F .text	00000058 alt_up_audio_disable_write_interrupt
0804246c g     F .text	00000068 altera_avalon_jtag_uart_close
080474c4 g       *ABS*	00000000 __ram_rwdata_start
080472b8 g       *ABS*	00000000 __ram_rodata_start
0804ab54 g     O .bss	00000028 __malloc_current_mallinfo
08041f9c g     F .text	00000060 altera_avalon_jtag_uart_read_fd
08044610 g     F .text	000000a4 alt_get_fd
0804697c g     F .text	00000054 _close_r
08042be0 g     F .text	00000054 alt_up_audio_enable_write_interrupt
08044790 g     F .text	0000007c memcmp
0804205c g     F .text	00000050 altera_avalon_jtag_uart_close_fd
0804ac7c g       *ABS*	00000000 __alt_stack_base
080420ac g     F .text	00000054 altera_avalon_jtag_uart_ioctl_fd
08044cac g     F .text	00000154 __swsetup_r
08042b88 g     F .text	00000058 alt_up_audio_disable_read_interrupt
08045560 g     F .text	00000118 __sfp
08048f90 g     O .rwdata	00000004 effect2_buffer
08048b7c g     O .rwdata	00000408 __malloc_av_
080456ac g     F .text	00000004 __sinit_lock_release
080467e0 g     F .text	00000054 __sread
08044508 g     F .text	00000108 alt_find_file
08043c84 g     F .text	000000a4 alt_dev_llist_insert
08046f54 g     F .text	00000024 __malloc_lock
080470d4 g     F .text	000000b0 sbrk
080452b4 g     F .text	0000005c _fflush_r
0804aaf4 g       *ABS*	00000000 __bss_start
08046664 g     F .text	00000128 memset
080408bc g     F .text	000005dc main
08042ed0 g     F .text	00000060 alt_up_audio_write_fifo_space
0804ab34 g     O .bss	00000004 alt_envp
0804ab48 g     O .bss	00000004 __malloc_max_total_mem
08041ffc g     F .text	00000060 altera_avalon_jtag_uart_write_fd
08044c94 g     F .text	00000018 __swbuf
08041514 g     F .text	000000c8 .hidden __ltsf2
08046914 g     F .text	00000008 __sclose
08080000 g       *ABS*	00000000 __alt_heap_limit
08046ac0 g     F .text	00000014 fclose
08045e58 g     F .text	0000080c _malloc_r
08048fc4 g     O .rwdata	00000004 alt_errno
08045b14 g     F .text	000000c4 _fwalk
080449f4 g     F .text	000000c8 putc
08040e98 g     F .text	00000084 .hidden __divsi3
080456e0 g     F .text	00000124 _malloc_trim_r
080472b8 g       *ABS*	00000000 __CTOR_END__
080472b8 g       *ABS*	00000000 __flash_rodata_start
080472b8 g       *ABS*	00000000 __DTOR_LIST__
08040290 g     F .text	00000080 delay
080432a0 g     F .text	00000060 alt_up_av_config_open_dev
08041edc g     F .text	00000038 alt_irq_init
080442dc g     F .text	00000064 alt_release_fd
08048f98 g     O .rwdata	00000004 effect4_buffer
0804734f g     O .rodata	00000100 .hidden __clz_tab
08044744 g     F .text	00000014 atexit
0804691c g     F .text	00000060 _write_r
080434e0 g     F .text	00000038 alt_up_av_config_read_ready
08048fa8 g     O .rwdata	00000004 _impure_ptr
0804ab2c g     O .bss	00000004 alt_argc
08045098 g     F .text	0000021c __sflush_r
08043d88 g     F .text	00000060 _do_dtors
0804ab18 g     O .bss	00000004 current_index
0804aafc g     O .bss	00000004 effect1_avg
08048f84 g     O .rwdata	00000004 audio_buffer
08040020 g       .exceptions	00000000 alt_irq_entry
080456c8 g     F .text	00000018 __fp_unlock_all
08048fb0 g     O .rwdata	00000008 alt_fs_list
08042e68 g     F .text	00000068 alt_up_audio_record_l
08040020 g       *ABS*	00000000 __ram_exceptions_start
04000000 g       *ABS*	00000000 __alt_mem_new_sdram_controller_0
0804341c g     F .text	00000038 alt_up_av_config_enable_interrupt
08041784 g     F .text	00000050 alt_ic_isr_register
08043488 g     F .text	00000058 alt_up_av_config_read_acknowledge
080437e4 g     F .text	00000058 alt_up_av_config_write_DC2_cfg_register
08048fdc g       *ABS*	00000000 _edata
0804ac7c g       *ABS*	00000000 _end
08040244 g       *ABS*	00000000 __ram_exceptions_end
080424d4 g     F .text	000000f0 altera_avalon_jtag_uart_ioctl
08048f9c g     O .rwdata	00000004 captured_val
08042f98 g     F .text	00000068 alt_up_audio_play_l
0804185c g     F .text	0000008c alt_ic_irq_disable
0804683c g     F .text	0000007c __swrite
08048fd4 g     O .rwdata	00000004 __malloc_trim_threshold
08044758 g     F .text	00000038 exit
08045bd8 g     F .text	000000c4 _fwalk_reent
080415dc g     F .text	000000f0 .hidden __floatunsisf
080438ec g     F .text	00000058 alt_up_av_config_read_LTM_cfg_register
08040f1c g     F .text	00000074 .hidden __modsi3
0804ab04 g     O .bss	00000004 effect3_avg
08080000 g       *ABS*	00000000 __alt_data_end
08040020 g     F .exceptions	00000000 alt_exception
080456a4 g     F .text	00000004 __sfp_lock_release
08046c44 g     F .text	00000034 _exit
0804399c g     F .text	0000012c alt_alarm_start
08045c9c g     F .text	000001bc __smakebuf_r
08044abc g     F .text	00000098 strlen
08044188 g     F .text	00000154 open
08041db8 g     F .text	0000003c alt_putchar
08041730 g     F .text	0000004c clock
080435bc g     F .text	000000e8 alt_up_av_config_read_video_cfg_register
08040310 g     F .text	00000148 record
08043e78 g     F .text	00000034 alt_icache_flush_all
08048fac g     O .rwdata	00000004 alt_priority_mask
080417d4 g     F .text	00000088 alt_ic_irq_enable
08043894 g     F .text	00000058 alt_up_av_config_write_D5M_cfg_register
08048fc8 g     O .rwdata	00000008 alt_alarm_list
08043d28 g     F .text	00000060 _do_ctors
08048fa0 g     O .rwdata	00000004 sw_val
08043b04 g     F .text	000000d0 close
0804104c g     F .text	000004c8 .hidden __addsf3
08041a8c g     F .text	00000084 alt_load
08042b34 g     F .text	00000054 alt_up_audio_enable_read_interrupt
080436a4 g     F .text	000000e8 alt_up_av_config_write_video_cfg_register
080456a8 g     F .text	00000004 __sinit_lock_acquire
0804378c g     F .text	00000058 alt_up_av_config_read_DC2_cfg_register
08042c8c g     F .text	00000040 alt_up_audio_read_interrupt_pending



Disassembly of section .entry:

08040000 <__reset>:
#if NIOS2_ICACHE_SIZE > 0 && defined(ALT_ALLOW_CODE_AT_RESET) && (!defined(ALT_SIM_OPTIMIZE) || defined(NIOS2_ECC_PRESENT))
    /* Assume the instruction cache size is always a power of two. */
#if NIOS2_ICACHE_SIZE > 0x8000
    movhi r2, %hi(NIOS2_ICACHE_SIZE)
#else
    movui r2, NIOS2_ICACHE_SIZE
 8040000:	00840014 	movui	r2,4096
#endif

0:
    initi r2
 8040004:	1001483a 	initi	r2
    addi r2, r2, -NIOS2_ICACHE_LINE_SIZE
 8040008:	10bff804 	addi	r2,r2,-32
    bgt r2, zero, 0b
 804000c:	00bffd16 	blt	zero,r2,8040004 <__alt_data_end+0xfffc0004>
 * Jump to the _start entry point in the .text section if reset code
 * is allowed or if optimizing for RTL simulation.
 */
#if defined(ALT_ALLOW_CODE_AT_RESET) || defined(ALT_SIM_OPTIMIZE)
    /* Jump to the _start entry point in the .text section. */
    movhi r1, %hi(_start)
 8040010:	00420134 	movhi	at,2052
    ori r1, r1, %lo(_start)
 8040014:	08409114 	ori	at,at,580
    jmp r1
 8040018:	0800683a 	jmp	at
 804001c:	00000000 	call	0 <__alt_mem_new_sdram_controller_0-0x4000000>

Disassembly of section .exceptions:

08040020 <alt_exception>:

#else /* ALT_EXCEPTION_STACK disabled */
        /* 
         * Reserve space on normal stack for registers about to be pushed.
         */
        addi  sp, sp, -76
 8040020:	deffed04 	addi	sp,sp,-76
         * documentation for details).
         *
         * Leave a gap in the stack frame at 4(sp) for the muldiv handler to
         * store zero into.
         */
        stw   ra,  0(sp)
 8040024:	dfc00015 	stw	ra,0(sp)
        stw   r1,   8(sp)
 8040028:	d8400215 	stw	at,8(sp)
        stw   r2,  12(sp)
 804002c:	d8800315 	stw	r2,12(sp)
        stw   r3,  16(sp)
 8040030:	d8c00415 	stw	r3,16(sp)
        stw   r4,  20(sp)
 8040034:	d9000515 	stw	r4,20(sp)
        stw   r5,  24(sp)
 8040038:	d9400615 	stw	r5,24(sp)
        stw   r6,  28(sp)
 804003c:	d9800715 	stw	r6,28(sp)
        stw   r7,  32(sp)
 8040040:	d9c00815 	stw	r7,32(sp)
        rdctl r5, estatus   /* Read early to avoid usage stall */
 8040044:	000b307a 	rdctl	r5,estatus
        stw   r8,  36(sp)
 8040048:	da000915 	stw	r8,36(sp)
        stw   r9,  40(sp)
 804004c:	da400a15 	stw	r9,40(sp)
        stw   r10, 44(sp)
 8040050:	da800b15 	stw	r10,44(sp)
        stw   r11, 48(sp)
 8040054:	dac00c15 	stw	r11,48(sp)
        stw   r12, 52(sp)
 8040058:	db000d15 	stw	r12,52(sp)
        stw   r13, 56(sp)
 804005c:	db400e15 	stw	r13,56(sp)
        stw   r14, 60(sp)
 8040060:	db800f15 	stw	r14,60(sp)
        stw   r15, 64(sp)
 8040064:	dbc01015 	stw	r15,64(sp)
        /*
         * ea-4 contains the address of the instruction being executed
         * when the exception occured. For interrupt exceptions, we will
         * will be re-issue the isntruction. Store it in 72(sp)
         */
        stw   r5,  68(sp)  /* estatus */
 8040068:	d9401115 	stw	r5,68(sp)
        addi  r15, ea, -4  /* instruction that caused exception */
 804006c:	ebffff04 	addi	r15,ea,-4
        stw   r15,  72(sp)
 8040070:	dbc01215 	stw	r15,72(sp)
#else
        /*
         * Test to see if the exception was a software exception or caused 
         * by an external interrupt, and vector accordingly.
         */
        rdctl r4, ipending
 8040074:	0009313a 	rdctl	r4,ipending
        andi  r2, r5, 1
 8040078:	2880004c 	andi	r2,r5,1
        beq   r2, zero, .Lnot_irq
 804007c:	10000326 	beq	r2,zero,804008c <alt_exception+0x6c>
        beq   r4, zero, .Lnot_irq
 8040080:	20000226 	beq	r4,zero,804008c <alt_exception+0x6c>
        /*
         * Now that all necessary registers have been preserved, call 
         * alt_irq_handler() to process the interrupts.
         */

        call alt_irq_handler
 8040084:	80400fc0 	call	80400fc <alt_irq_handler>

        .section .exceptions.irqreturn, "xa"

        br    .Lexception_exit
 8040088:	00000706 	br	80400a8 <alt_exception+0x88>
         * upon completion, so we write ea (address of instruction *after*
         * the one where the exception occured) into 72(sp). The actual
         * instruction that caused the exception is written in r2, which these
         * handlers will utilize.
         */
        stw ea, 72(sp) /* EA is PC+4 so will skip over instruction causing exception */
 804008c:	df401215 	stw	ea,72(sp)
.Lunknown_16bit:
        addi.n r4, r4, 2 /* Need PC+2 to skip over instruction causing exception */
        stw r4, 72(sp)

#else /* CDX is not Enabled and all instructions are 32bits */
        ldw r2, -4(ea) /* Instruction value that caused exception */
 8040090:	e8bfff17 	ldw	r2,-4(ea)
         * debugger is present) or go into an infinite loop since the
         * handling behavior is undefined; in that case we will not return here.
         */

        /* Load exception-causing address as first argument (r4) */
        addi   r4, ea, -4
 8040094:	e93fff04 	addi	r4,ea,-4

        /* Call the instruction-exception entry */
        call   alt_instruction_exception_entry
 8040098:	80401d00 	call	80401d0 <alt_instruction_exception_entry>
         * instruction
         *
         * Return code was 0: Skip. The instruction after the exception is
         * already stored in 72(sp).
         */
        bne   r2, r0, .Lexception_exit
 804009c:	1000021e 	bne	r2,zero,80400a8 <alt_exception+0x88>

        /*
         * Otherwise, modify 72(sp) to re-issue the instruction that caused the
         * exception.
         */
        addi  r15, ea, -4  /* instruction that caused exception */
 80400a0:	ebffff04 	addi	r15,ea,-4
        stw   r15,  72(sp)
 80400a4:	dbc01215 	stw	r15,72(sp)
        /* 
         * Restore the saved registers, so that all general purpose registers 
         * have been restored to their state at the time the interrupt occured.
         */

        ldw   r5,  68(sp)
 80400a8:	d9401117 	ldw	r5,68(sp)
        ldw   ea,  72(sp)  /* This becomes the PC once eret is executed */
 80400ac:	df401217 	ldw	ea,72(sp)
        ldw   ra,   0(sp)
 80400b0:	dfc00017 	ldw	ra,0(sp)

        wrctl estatus, r5
 80400b4:	2801707a 	wrctl	estatus,r5

        ldw   r1,   8(sp)
 80400b8:	d8400217 	ldw	at,8(sp)
        ldw   r2,  12(sp)
 80400bc:	d8800317 	ldw	r2,12(sp)
        ldw   r3,  16(sp)
 80400c0:	d8c00417 	ldw	r3,16(sp)
        ldw   r4,  20(sp)
 80400c4:	d9000517 	ldw	r4,20(sp)
        ldw   r5,  24(sp)
 80400c8:	d9400617 	ldw	r5,24(sp)
        ldw   r6,  28(sp)
 80400cc:	d9800717 	ldw	r6,28(sp)
        ldw   r7,  32(sp)
 80400d0:	d9c00817 	ldw	r7,32(sp)

#if defined(ALT_EXCEPTION_STACK) && defined(ALT_STACK_CHECK)
        ldw   et, %gprel(alt_exception_old_stack_limit)(gp)
#endif

        ldw   r8,  36(sp)
 80400d4:	da000917 	ldw	r8,36(sp)
        ldw   r9,  40(sp)
 80400d8:	da400a17 	ldw	r9,40(sp)
        ldw   r10, 44(sp)
 80400dc:	da800b17 	ldw	r10,44(sp)
        ldw   r11, 48(sp)
 80400e0:	dac00c17 	ldw	r11,48(sp)
        ldw   r12, 52(sp)
 80400e4:	db000d17 	ldw	r12,52(sp)
        ldw   r13, 56(sp)
 80400e8:	db400e17 	ldw	r13,56(sp)
        ldw   r14, 60(sp)
 80400ec:	db800f17 	ldw	r14,60(sp)
        ldw   r15, 64(sp)
 80400f0:	dbc01017 	ldw	r15,64(sp)
        stw   et, %gprel(alt_stack_limit_value)(gp)
        stw   zero, %gprel(alt_exception_old_stack_limit)(gp)
#endif /* ALT_STACK_CHECK */
        ldw   sp,  76(sp)
#else /* ALT_EXCEPTION_STACK disabled */
        addi  sp, sp, 76
 80400f4:	dec01304 	addi	sp,sp,76

        /*
         * Return to the interrupted instruction.
         */

        eret
 80400f8:	ef80083a 	eret

080400fc <alt_irq_handler>:
 * instruction is present if the macro ALT_CI_INTERRUPT_VECTOR defined.
 */

void alt_irq_handler (void) __attribute__ ((section (".exceptions")));
void alt_irq_handler (void)
{
 80400fc:	defff904 	addi	sp,sp,-28
 8040100:	dfc00615 	stw	ra,24(sp)
 8040104:	df000515 	stw	fp,20(sp)
 8040108:	df000504 	addi	fp,sp,20
  
  /*
   * Notify the operating system that we are at interrupt level.
   */ 
  
  ALT_OS_INT_ENTER();
 804010c:	0001883a 	nop
#ifndef NIOS2_EIC_PRESENT
static ALT_INLINE alt_u32 ALT_ALWAYS_INLINE alt_irq_pending (void)
{
  alt_u32 active;

  NIOS2_READ_IPENDING (active);
 8040110:	0005313a 	rdctl	r2,ipending
 8040114:	e0bffe15 	stw	r2,-8(fp)

  return active;
 8040118:	e0bffe17 	ldw	r2,-8(fp)
   * Consider the case where the high priority interupt is asserted during
   * the interrupt entry sequence for a lower priority interrupt to see why
   * this is the case.
   */

  active = alt_irq_pending ();
 804011c:	e0bffb15 	stw	r2,-20(fp)

  do
  {
    i = 0;
 8040120:	e03ffd15 	stw	zero,-12(fp)
    mask = 1;
 8040124:	00800044 	movi	r2,1
 8040128:	e0bffc15 	stw	r2,-16(fp)
     * called to clear the interrupt condition.
     */

    do
    {
      if (active & mask)
 804012c:	e0fffb17 	ldw	r3,-20(fp)
 8040130:	e0bffc17 	ldw	r2,-16(fp)
 8040134:	1884703a 	and	r2,r3,r2
 8040138:	10001426 	beq	r2,zero,804018c <alt_irq_handler+0x90>
      { 
#ifdef ALT_ENHANCED_INTERRUPT_API_PRESENT
        alt_irq[i].handler(alt_irq[i].context); 
 804013c:	00820174 	movhi	r2,2053
 8040140:	10aadf04 	addi	r2,r2,-21636
 8040144:	e0fffd17 	ldw	r3,-12(fp)
 8040148:	180690fa 	slli	r3,r3,3
 804014c:	10c5883a 	add	r2,r2,r3
 8040150:	10c00017 	ldw	r3,0(r2)
 8040154:	00820174 	movhi	r2,2053
 8040158:	10aadf04 	addi	r2,r2,-21636
 804015c:	e13ffd17 	ldw	r4,-12(fp)
 8040160:	200890fa 	slli	r4,r4,3
 8040164:	1105883a 	add	r2,r2,r4
 8040168:	10800104 	addi	r2,r2,4
 804016c:	10800017 	ldw	r2,0(r2)
 8040170:	1009883a 	mov	r4,r2
 8040174:	183ee83a 	callr	r3
#else
        alt_irq[i].handler(alt_irq[i].context, i); 
#endif
        break;
 8040178:	0001883a 	nop
#ifndef NIOS2_EIC_PRESENT
static ALT_INLINE alt_u32 ALT_ALWAYS_INLINE alt_irq_pending (void)
{
  alt_u32 active;

  NIOS2_READ_IPENDING (active);
 804017c:	0005313a 	rdctl	r2,ipending
 8040180:	e0bfff15 	stw	r2,-4(fp)

  return active;
 8040184:	e0bfff17 	ldw	r2,-4(fp)
 8040188:	00000706 	br	80401a8 <alt_irq_handler+0xac>
      }
      mask <<= 1;
 804018c:	e0bffc17 	ldw	r2,-16(fp)
 8040190:	1085883a 	add	r2,r2,r2
 8040194:	e0bffc15 	stw	r2,-16(fp)
      i++;
 8040198:	e0bffd17 	ldw	r2,-12(fp)
 804019c:	10800044 	addi	r2,r2,1
 80401a0:	e0bffd15 	stw	r2,-12(fp)

    } while (1);
 80401a4:	003fe106 	br	804012c <__alt_data_end+0xfffc012c>

    active = alt_irq_pending ();
 80401a8:	e0bffb15 	stw	r2,-20(fp)
    
  } while (active);
 80401ac:	e0bffb17 	ldw	r2,-20(fp)
 80401b0:	103fdb1e 	bne	r2,zero,8040120 <__alt_data_end+0xfffc0120>

  /*
   * Notify the operating system that interrupt processing is complete.
   */ 

  ALT_OS_INT_EXIT();
 80401b4:	0001883a 	nop
}
 80401b8:	0001883a 	nop
 80401bc:	e037883a 	mov	sp,fp
 80401c0:	dfc00117 	ldw	ra,4(sp)
 80401c4:	df000017 	ldw	fp,0(sp)
 80401c8:	dec00204 	addi	sp,sp,8
 80401cc:	f800283a 	ret

080401d0 <alt_instruction_exception_entry>:
 * that handler if it has been registered. Absent a handler, it will
 * break break or hang as discussed below.
 */
int 
alt_instruction_exception_entry (alt_u32 exception_pc)
{
 80401d0:	defffb04 	addi	sp,sp,-20
 80401d4:	dfc00415 	stw	ra,16(sp)
 80401d8:	df000315 	stw	fp,12(sp)
 80401dc:	df000304 	addi	fp,sp,12
 80401e0:	e13fff15 	stw	r4,-4(fp)
 * NIOS2_EXCEPTION_CAUSE_NOT_PRESENT. Your handling routine should
 * check the validity of the cause argument before proceeding.
 */
#ifdef NIOS2_HAS_EXTRA_EXCEPTION_INFO
  /* Get exception cause & "badaddr" */
  NIOS2_READ_EXCEPTION(cause);
 80401e4:	000531fa 	rdctl	r2,exception
 80401e8:	e0bffd15 	stw	r2,-12(fp)
  cause = ( (cause & NIOS2_EXCEPTION_REG_CAUSE_MASK) >>
 80401ec:	e0bffd17 	ldw	r2,-12(fp)
 80401f0:	10801f0c 	andi	r2,r2,124
 80401f4:	1004d0ba 	srli	r2,r2,2
 80401f8:	e0bffd15 	stw	r2,-12(fp)
              NIOS2_EXCEPTION_REG_CAUSE_OFST );

  NIOS2_READ_BADADDR(badaddr);
 80401fc:	0005333a 	rdctl	r2,badaddr
 8040200:	e0bffe15 	stw	r2,-8(fp)
#else
  cause = NIOS2_EXCEPTION_CAUSE_NOT_PRESENT;
  badaddr = 0;
#endif /* NIOS2_HAS_EXTRA_EXCEPTION_INFO */

  if(alt_instruction_exception_handler) {
 8040204:	d0a6ed17 	ldw	r2,-25676(gp)
 8040208:	10000726 	beq	r2,zero,8040228 <alt_instruction_exception_entry+0x58>
     * Call handler. Its return value indicates whether the exception-causing
     * instruction should be re-issued. The code that called us,
     * alt_eceptions_entry.S, will look at this value and adjust the ea
     * register as necessary
     */
    return alt_instruction_exception_handler(cause, exception_pc, badaddr);
 804020c:	d0a6ed17 	ldw	r2,-25676(gp)
 8040210:	e0fffd17 	ldw	r3,-12(fp)
 8040214:	e1bffe17 	ldw	r6,-8(fp)
 8040218:	e17fff17 	ldw	r5,-4(fp)
 804021c:	1809883a 	mov	r4,r3
 8040220:	103ee83a 	callr	r2
 8040224:	00000206 	br	8040230 <alt_instruction_exception_entry+0x60>
   *    (a peripheral which negates its interrupt output before its
   *    interrupt handler has been executed will cause spurious interrupts)
   */
  else {
#ifdef NIOS2_HAS_DEBUG_STUB
    NIOS2_BREAK();
 8040228:	003da03a 	break	0
      ;
#endif /* NIOS2_HAS_DEBUG_STUB */
  }

  /* We should not get here. Remove compiler warning. */
  return NIOS2_EXCEPTION_RETURN_REISSUE_INST;
 804022c:	0005883a 	mov	r2,zero
}
 8040230:	e037883a 	mov	sp,fp
 8040234:	dfc00117 	ldw	ra,4(sp)
 8040238:	df000017 	ldw	fp,0(sp)
 804023c:	dec00204 	addi	sp,sp,8
 8040240:	f800283a 	ret

Disassembly of section .text:

08040244 <_start>:

    /* Assume the data cache size is always a power of two. */
#if NIOS2_DCACHE_SIZE > 0x8000
    movhi r2, %hi(NIOS2_DCACHE_SIZE)
#else
    movui r2, NIOS2_DCACHE_SIZE
 8040244:	00820014 	movui	r2,2048
#endif

0:
    initd 0(r2)
 8040248:	10000033 	initd	0(r2)
#ifdef NIOS2_ECC_PRESENT
    addi r2, r2, -4
#else
    addi r2, r2, -NIOS2_DCACHE_LINE_SIZE
 804024c:	10bff804 	addi	r2,r2,-32
#endif
    bgt r2, zero, 0b
 8040250:	00bffd16 	blt	zero,r2,8040248 <__alt_data_end+0xfffc0248>

    /*
     * Now that the caches are initialized, set up the stack pointer and global pointer.
     * The values provided by the linker are assumed to be correctly aligned.
     */
    movhi sp, %hi(__alt_stack_pointer)
 8040254:	06c20234 	movhi	sp,2056
    ori sp, sp, %lo(__alt_stack_pointer)
 8040258:	dec00014 	ori	sp,sp,0
    movhi gp, %hi(_gp)
 804025c:	06820174 	movhi	gp,2053
    ori gp, gp, %lo(_gp)
 8040260:	d683e114 	ori	gp,gp,3972
 */
#ifndef ALT_SIM_OPTIMIZE
    /* Log that the BSS is about to be cleared. */
    ALT_LOG_PUTS(alt_log_msg_bss)

    movhi r2, %hi(__bss_start)
 8040264:	00820134 	movhi	r2,2052
    ori r2, r2, %lo(__bss_start)
 8040268:	10aabd14 	ori	r2,r2,43764

    movhi r3, %hi(__bss_end)
 804026c:	00c20134 	movhi	r3,2052
    ori r3, r3, %lo(__bss_end)
 8040270:	18eb1f14 	ori	r3,r3,44156

    beq r2, r3, 1f
 8040274:	10c00326 	beq	r2,r3,8040284 <_start+0x40>

0:
    stw zero, (r2)
 8040278:	10000015 	stw	zero,0(r2)
    addi r2, r2, 4
 804027c:	10800104 	addi	r2,r2,4
    bltu r2, r3, 0b
 8040280:	10fffd36 	bltu	r2,r3,8040278 <__alt_data_end+0xfffc0278>
     * section aren't defined until alt_load() has been called).
     */
    mov   et, zero
#endif

    call alt_load
 8040284:	8041a8c0 	call	8041a8c <alt_load>

    /* Log that alt_main is about to be called. */
    ALT_LOG_PUTS(alt_log_msg_alt_main)

    /* Call the C entry point. It should never return. */
    call alt_main
 8040288:	8041b100 	call	8041b10 <alt_main>

0804028c <alt_after_alt_main>:

    /* Wait in infinite loop in case alt_main does return. */
alt_after_alt_main:
    br alt_after_alt_main
 804028c:	003fff06 	br	804028c <__alt_data_end+0xfffc028c>

08040290 <delay>:
unsigned int current_index2 = 0;
alt_up_audio_dev * audio_dev;
alt_up_av_config_dev *audio_conf;

void delay(float milli_seconds)
{
 8040290:	defffb04 	addi	sp,sp,-20
 8040294:	dfc00415 	stw	ra,16(sp)
 8040298:	df000315 	stw	fp,12(sp)
 804029c:	dc000215 	stw	r16,8(sp)
 80402a0:	df000304 	addi	fp,sp,12
 80402a4:	e13ffe15 	stw	r4,-8(fp)
    // Stroing start time
    clock_t start_time = clock();
 80402a8:	80417300 	call	8041730 <clock>
 80402ac:	e0bffd15 	stw	r2,-12(fp)

    // looping till required time is not acheived
    while (clock() < start_time + milli_seconds)
 80402b0:	0001883a 	nop
 80402b4:	80417300 	call	8041730 <clock>
 80402b8:	1009883a 	mov	r4,r2
 80402bc:	80415dc0 	call	80415dc <__floatunsisf>
 80402c0:	1021883a 	mov	r16,r2
 80402c4:	e13ffd17 	ldw	r4,-12(fp)
 80402c8:	80415dc0 	call	80415dc <__floatunsisf>
 80402cc:	1007883a 	mov	r3,r2
 80402d0:	e17ffe17 	ldw	r5,-8(fp)
 80402d4:	1809883a 	mov	r4,r3
 80402d8:	804104c0 	call	804104c <__addsf3>
 80402dc:	1007883a 	mov	r3,r2
 80402e0:	1805883a 	mov	r2,r3
 80402e4:	100b883a 	mov	r5,r2
 80402e8:	8009883a 	mov	r4,r16
 80402ec:	80415140 	call	8041514 <__lesf2>
 80402f0:	103ff016 	blt	r2,zero,80402b4 <__alt_data_end+0xfffc02b4>
        ;
}
 80402f4:	0001883a 	nop
 80402f8:	e6ffff04 	addi	sp,fp,-4
 80402fc:	dfc00217 	ldw	ra,8(sp)
 8040300:	df000117 	ldw	fp,4(sp)
 8040304:	dc000017 	ldw	r16,0(sp)
 8040308:	dec00304 	addi	sp,sp,12
 804030c:	f800283a 	ret

08040310 <record>:

void record(unsigned int* addr,unsigned int duration,unsigned int* avg,alt_up_audio_dev * audio_dev){
 8040310:	defff804 	addi	sp,sp,-32
 8040314:	dfc00715 	stw	ra,28(sp)
 8040318:	df000615 	stw	fp,24(sp)
 804031c:	df000604 	addi	fp,sp,24
 8040320:	e13ffc15 	stw	r4,-16(fp)
 8040324:	e17ffd15 	stw	r5,-12(fp)
 8040328:	e1bffe15 	stw	r6,-8(fp)
 804032c:	e1ffff15 	stw	r7,-4(fp)
	alt_printf("Get ready to mingle\n");
 8040330:	01020134 	movhi	r4,2052
 8040334:	211cae04 	addi	r4,r4,29368
 8040338:	8041b8c0 	call	8041b8c <alt_printf>
	alt_up_audio_reset_audio_core(audio_dev);
 804033c:	e13fff17 	ldw	r4,-4(fp)
 8040340:	8042d0c0 	call	8042d0c <alt_up_audio_reset_audio_core>
	for(int index=0;index<duration*SAMPLING_RATE;index++){
 8040344:	e03ffa15 	stw	zero,-24(fp)
 8040348:	00002f06 	br	8040408 <record+0xf8>
		int fifospace = alt_up_audio_read_fifo_avail (audio_dev, ALT_UP_AUDIO_RIGHT);
 804034c:	01400044 	movi	r5,1
 8040350:	e13fff17 	ldw	r4,-4(fp)
 8040354:	8042da00 	call	8042da0 <alt_up_audio_read_fifo_avail>
 8040358:	e0bffb15 	stw	r2,-20(fp)
		if ( fifospace > 0 ) // check if data is available
 804035c:	e0bffb17 	ldw	r2,-20(fp)
 8040360:	0080230e 	bge	zero,r2,80403f0 <record+0xe0>
		{
			alt_up_audio_read_fifo (audio_dev, (addr+index), 1, ALT_UP_AUDIO_RIGHT);
 8040364:	e0bffa17 	ldw	r2,-24(fp)
 8040368:	1085883a 	add	r2,r2,r2
 804036c:	1085883a 	add	r2,r2,r2
 8040370:	1007883a 	mov	r3,r2
 8040374:	e0bffc17 	ldw	r2,-16(fp)
 8040378:	10c5883a 	add	r2,r2,r3
 804037c:	01c00044 	movi	r7,1
 8040380:	01800044 	movi	r6,1
 8040384:	100b883a 	mov	r5,r2
 8040388:	e13fff17 	ldw	r4,-4(fp)
 804038c:	80430000 	call	8043000 <alt_up_audio_read_fifo>
			alt_up_audio_read_fifo (audio_dev, (addr+index), 1, ALT_UP_AUDIO_LEFT);
 8040390:	e0bffa17 	ldw	r2,-24(fp)
 8040394:	1085883a 	add	r2,r2,r2
 8040398:	1085883a 	add	r2,r2,r2
 804039c:	1007883a 	mov	r3,r2
 80403a0:	e0bffc17 	ldw	r2,-16(fp)
 80403a4:	10c5883a 	add	r2,r2,r3
 80403a8:	000f883a 	mov	r7,zero
 80403ac:	01800044 	movi	r6,1
 80403b0:	100b883a 	mov	r5,r2
 80403b4:	e13fff17 	ldw	r4,-4(fp)
 80403b8:	80430000 	call	8043000 <alt_up_audio_read_fifo>
			*avg=*avg+*(addr+index);
 80403bc:	e0bffe17 	ldw	r2,-8(fp)
 80403c0:	10c00017 	ldw	r3,0(r2)
 80403c4:	e0bffa17 	ldw	r2,-24(fp)
 80403c8:	1085883a 	add	r2,r2,r2
 80403cc:	1085883a 	add	r2,r2,r2
 80403d0:	1009883a 	mov	r4,r2
 80403d4:	e0bffc17 	ldw	r2,-16(fp)
 80403d8:	1105883a 	add	r2,r2,r4
 80403dc:	10800017 	ldw	r2,0(r2)
 80403e0:	1887883a 	add	r3,r3,r2
 80403e4:	e0bffe17 	ldw	r2,-8(fp)
 80403e8:	10c00015 	stw	r3,0(r2)
 80403ec:	00000306 	br	80403fc <record+0xec>
		}
		else{
			index=index-1;
 80403f0:	e0bffa17 	ldw	r2,-24(fp)
 80403f4:	10bfffc4 	addi	r2,r2,-1
 80403f8:	e0bffa15 	stw	r2,-24(fp)
}

void record(unsigned int* addr,unsigned int duration,unsigned int* avg,alt_up_audio_dev * audio_dev){
	alt_printf("Get ready to mingle\n");
	alt_up_audio_reset_audio_core(audio_dev);
	for(int index=0;index<duration*SAMPLING_RATE;index++){
 80403fc:	e0bffa17 	ldw	r2,-24(fp)
 8040400:	10800044 	addi	r2,r2,1
 8040404:	e0bffa15 	stw	r2,-24(fp)
 8040408:	e0fffd17 	ldw	r3,-12(fp)
 804040c:	00aee014 	movui	r2,48000
 8040410:	1885383a 	mul	r2,r3,r2
 8040414:	e0fffa17 	ldw	r3,-24(fp)
 8040418:	18bfcc36 	bltu	r3,r2,804034c <__alt_data_end+0xfffc034c>
		}
		else{
			index=index-1;
		}
	}
	*avg=*avg/(DURATION*SAMPLING_RATE);
 804041c:	e0bffe17 	ldw	r2,-8(fp)
 8040420:	10800017 	ldw	r2,0(r2)
 8040424:	01400134 	movhi	r5,4
 8040428:	296a6004 	addi	r5,r5,-22144
 804042c:	1009883a 	mov	r4,r2
 8040430:	8040f900 	call	8040f90 <__udivsi3>
 8040434:	1007883a 	mov	r3,r2
 8040438:	e0bffe17 	ldw	r2,-8(fp)
 804043c:	10c00015 	stw	r3,0(r2)
}
 8040440:	0001883a 	nop
 8040444:	e037883a 	mov	sp,fp
 8040448:	dfc00117 	ldw	ra,4(sp)
 804044c:	df000017 	ldw	fp,0(sp)
 8040450:	dec00204 	addi	sp,sp,8
 8040454:	f800283a 	ret

08040458 <combined_play>:



void combined_play(unsigned int* first_sound,unsigned int first_duration,unsigned int* second_sound,unsigned int second_duration,alt_up_audio_dev * audio_dev,unsigned int volume){
 8040458:	defff404 	addi	sp,sp,-48
 804045c:	dfc00b15 	stw	ra,44(sp)
 8040460:	df000a15 	stw	fp,40(sp)
 8040464:	df000a04 	addi	fp,sp,40
 8040468:	e13ffc15 	stw	r4,-16(fp)
 804046c:	e17ffd15 	stw	r5,-12(fp)
 8040470:	e1bffe15 	stw	r6,-8(fp)
 8040474:	e1ffff15 	stw	r7,-4(fp)
	unsigned int intermediate=0;
 8040478:	e03ffb15 	stw	zero,-20(fp)
	unsigned int min_duration=first_duration;
 804047c:	e0bffd17 	ldw	r2,-12(fp)
 8040480:	e0bff615 	stw	r2,-40(fp)
	unsigned int max_duration=second_duration;
 8040484:	e0bfff17 	ldw	r2,-4(fp)
 8040488:	e0bff715 	stw	r2,-36(fp)
	unsigned int* max_sound =second_sound;
 804048c:	e0bffe17 	ldw	r2,-8(fp)
 8040490:	e0bff815 	stw	r2,-32(fp)
	unsigned int* min_sound =first_sound;
 8040494:	e0bffc17 	ldw	r2,-16(fp)
 8040498:	e0bff915 	stw	r2,-28(fp)
	if(first_duration>second_duration){
 804049c:	e0bffd17 	ldw	r2,-12(fp)
 80404a0:	e0ffff17 	ldw	r3,-4(fp)
 80404a4:	1880082e 	bgeu	r3,r2,80404c8 <combined_play+0x70>
		min_duration=second_duration;
 80404a8:	e0bfff17 	ldw	r2,-4(fp)
 80404ac:	e0bff615 	stw	r2,-40(fp)
		max_duration=first_duration;
 80404b0:	e0bffd17 	ldw	r2,-12(fp)
 80404b4:	e0bff715 	stw	r2,-36(fp)
		max_sound=first_sound;
 80404b8:	e0bffc17 	ldw	r2,-16(fp)
 80404bc:	e0bff815 	stw	r2,-32(fp)
		min_sound =second_sound;
 80404c0:	e0bffe17 	ldw	r2,-8(fp)
 80404c4:	e0bff915 	stw	r2,-28(fp)
	}
	for(int index=current_index2;index<max_duration*SAMPLING_RATE;index++){
 80404c8:	d0a6e617 	ldw	r2,-25704(gp)
 80404cc:	e0bffa15 	stw	r2,-24(fp)
 80404d0:	00003506 	br	80405a8 <combined_play+0x150>
		delay((1000/SAMPLING_RATE));
 80404d4:	0009883a 	mov	r4,zero
 80404d8:	80402900 	call	8040290 <delay>
		if(index<min_duration*SAMPLING_RATE)
 80404dc:	e0fff617 	ldw	r3,-40(fp)
 80404e0:	00aee014 	movui	r2,48000
 80404e4:	1885383a 	mul	r2,r3,r2
 80404e8:	e0fffa17 	ldw	r3,-24(fp)
 80404ec:	1880132e 	bgeu	r3,r2,804053c <combined_play+0xe4>
			intermediate = volume*((*(max_sound+index))+(*(min_sound+index)));
 80404f0:	e0bffa17 	ldw	r2,-24(fp)
 80404f4:	1085883a 	add	r2,r2,r2
 80404f8:	1085883a 	add	r2,r2,r2
 80404fc:	1007883a 	mov	r3,r2
 8040500:	e0bff817 	ldw	r2,-32(fp)
 8040504:	10c5883a 	add	r2,r2,r3
 8040508:	10c00017 	ldw	r3,0(r2)
 804050c:	e0bffa17 	ldw	r2,-24(fp)
 8040510:	1085883a 	add	r2,r2,r2
 8040514:	1085883a 	add	r2,r2,r2
 8040518:	1009883a 	mov	r4,r2
 804051c:	e0bff917 	ldw	r2,-28(fp)
 8040520:	1105883a 	add	r2,r2,r4
 8040524:	10800017 	ldw	r2,0(r2)
 8040528:	1887883a 	add	r3,r3,r2
 804052c:	e0800317 	ldw	r2,12(fp)
 8040530:	1885383a 	mul	r2,r3,r2
 8040534:	e0bffb15 	stw	r2,-20(fp)
 8040538:	00000a06 	br	8040564 <combined_play+0x10c>
		else
			intermediate = volume*(*(max_sound+index));
 804053c:	e0bffa17 	ldw	r2,-24(fp)
 8040540:	1085883a 	add	r2,r2,r2
 8040544:	1085883a 	add	r2,r2,r2
 8040548:	1007883a 	mov	r3,r2
 804054c:	e0bff817 	ldw	r2,-32(fp)
 8040550:	10c5883a 	add	r2,r2,r3
 8040554:	10c00017 	ldw	r3,0(r2)
 8040558:	e0800317 	ldw	r2,12(fp)
 804055c:	1885383a 	mul	r2,r3,r2
 8040560:	e0bffb15 	stw	r2,-20(fp)
		alt_up_audio_write_fifo (audio_dev, &intermediate, 1, ALT_UP_AUDIO_RIGHT);
 8040564:	e0bffb04 	addi	r2,fp,-20
 8040568:	01c00044 	movi	r7,1
 804056c:	01800044 	movi	r6,1
 8040570:	100b883a 	mov	r5,r2
 8040574:	e1000217 	ldw	r4,8(fp)
 8040578:	80430e00 	call	80430e0 <alt_up_audio_write_fifo>
		alt_up_audio_write_fifo (audio_dev, &intermediate, 1, ALT_UP_AUDIO_LEFT);
 804057c:	e0bffb04 	addi	r2,fp,-20
 8040580:	000f883a 	mov	r7,zero
 8040584:	01800044 	movi	r6,1
 8040588:	100b883a 	mov	r5,r2
 804058c:	e1000217 	ldw	r4,8(fp)
 8040590:	80430e00 	call	80430e0 <alt_up_audio_write_fifo>
		delay((1000/SAMPLING_RATE));
 8040594:	0009883a 	mov	r4,zero
 8040598:	80402900 	call	8040290 <delay>
		min_duration=second_duration;
		max_duration=first_duration;
		max_sound=first_sound;
		min_sound =second_sound;
	}
	for(int index=current_index2;index<max_duration*SAMPLING_RATE;index++){
 804059c:	e0bffa17 	ldw	r2,-24(fp)
 80405a0:	10800044 	addi	r2,r2,1
 80405a4:	e0bffa15 	stw	r2,-24(fp)
 80405a8:	e0fff717 	ldw	r3,-36(fp)
 80405ac:	00aee014 	movui	r2,48000
 80405b0:	1885383a 	mul	r2,r3,r2
 80405b4:	e0fffa17 	ldw	r3,-24(fp)
 80405b8:	18bfc636 	bltu	r3,r2,80404d4 <__alt_data_end+0xfffc04d4>
			intermediate = volume*(*(max_sound+index));
		alt_up_audio_write_fifo (audio_dev, &intermediate, 1, ALT_UP_AUDIO_RIGHT);
		alt_up_audio_write_fifo (audio_dev, &intermediate, 1, ALT_UP_AUDIO_LEFT);
		delay((1000/SAMPLING_RATE));
	}
	current_index2 = 0;
 80405bc:	d026e615 	stw	zero,-25704(gp)
	alt_up_audio_reset_audio_core(audio_dev);
 80405c0:	e1000217 	ldw	r4,8(fp)
 80405c4:	8042d0c0 	call	8042d0c <alt_up_audio_reset_audio_core>
}
 80405c8:	0001883a 	nop
 80405cc:	e037883a 	mov	sp,fp
 80405d0:	dfc00117 	ldw	ra,4(sp)
 80405d4:	df000017 	ldw	fp,0(sp)
 80405d8:	dec00204 	addi	sp,sp,8
 80405dc:	f800283a 	ret

080405e0 <play>:

void play(unsigned int* addr,unsigned int duration,unsigned int volume,alt_up_audio_dev * audio_dev,unsigned int delaying){
 80405e0:	defff804 	addi	sp,sp,-32
 80405e4:	dfc00715 	stw	ra,28(sp)
 80405e8:	df000615 	stw	fp,24(sp)
 80405ec:	df000604 	addi	fp,sp,24
 80405f0:	e13ffc15 	stw	r4,-16(fp)
 80405f4:	e17ffd15 	stw	r5,-12(fp)
 80405f8:	e1bffe15 	stw	r6,-8(fp)
 80405fc:	e1ffff15 	stw	r7,-4(fp)
	unsigned int intermediate=0;
 8040600:	e03ffb15 	stw	zero,-20(fp)
	for(int index=0;(index<duration*SAMPLING_RATE) && (beat_state==IDLE);index++){
 8040604:	e03ffa15 	stw	zero,-24(fp)
 8040608:	00002306 	br	8040698 <play+0xb8>
		current_index = index;
 804060c:	e0bffa17 	ldw	r2,-24(fp)
 8040610:	d0a6e515 	stw	r2,-25708(gp)
		delay((8000/SAMPLING_RATE));
 8040614:	0009883a 	mov	r4,zero
 8040618:	80402900 	call	8040290 <delay>
		alt_up_audio_write_fifo_head(audio_dev, (*(addr+index))*volume, ALT_UP_AUDIO_RIGHT);
 804061c:	e0bffa17 	ldw	r2,-24(fp)
 8040620:	1085883a 	add	r2,r2,r2
 8040624:	1085883a 	add	r2,r2,r2
 8040628:	1007883a 	mov	r3,r2
 804062c:	e0bffc17 	ldw	r2,-16(fp)
 8040630:	10c5883a 	add	r2,r2,r3
 8040634:	10c00017 	ldw	r3,0(r2)
 8040638:	e0bffe17 	ldw	r2,-8(fp)
 804063c:	1885383a 	mul	r2,r3,r2
 8040640:	01800044 	movi	r6,1
 8040644:	100b883a 	mov	r5,r2
 8040648:	e13fff17 	ldw	r4,-4(fp)
 804064c:	80432380 	call	8043238 <alt_up_audio_write_fifo_head>
		alt_up_audio_write_fifo_head(audio_dev, (*(addr+index))*volume, ALT_UP_AUDIO_LEFT);
 8040650:	e0bffa17 	ldw	r2,-24(fp)
 8040654:	1085883a 	add	r2,r2,r2
 8040658:	1085883a 	add	r2,r2,r2
 804065c:	1007883a 	mov	r3,r2
 8040660:	e0bffc17 	ldw	r2,-16(fp)
 8040664:	10c5883a 	add	r2,r2,r3
 8040668:	10c00017 	ldw	r3,0(r2)
 804066c:	e0bffe17 	ldw	r2,-8(fp)
 8040670:	1885383a 	mul	r2,r3,r2
 8040674:	000d883a 	mov	r6,zero
 8040678:	100b883a 	mov	r5,r2
 804067c:	e13fff17 	ldw	r4,-4(fp)
 8040680:	80432380 	call	8043238 <alt_up_audio_write_fifo_head>
		delay((8000/SAMPLING_RATE));
 8040684:	0009883a 	mov	r4,zero
 8040688:	80402900 	call	8040290 <delay>
	alt_up_audio_reset_audio_core(audio_dev);
}

void play(unsigned int* addr,unsigned int duration,unsigned int volume,alt_up_audio_dev * audio_dev,unsigned int delaying){
	unsigned int intermediate=0;
	for(int index=0;(index<duration*SAMPLING_RATE) && (beat_state==IDLE);index++){
 804068c:	e0bffa17 	ldw	r2,-24(fp)
 8040690:	10800044 	addi	r2,r2,1
 8040694:	e0bffa15 	stw	r2,-24(fp)
 8040698:	e0fffd17 	ldw	r3,-12(fp)
 804069c:	00aee014 	movui	r2,48000
 80406a0:	1885383a 	mul	r2,r3,r2
 80406a4:	e0fffa17 	ldw	r3,-24(fp)
 80406a8:	1880022e 	bgeu	r3,r2,80406b4 <play+0xd4>
 80406ac:	d0a6e417 	ldw	r2,-25712(gp)
 80406b0:	103fd626 	beq	r2,zero,804060c <__alt_data_end+0xfffc060c>
		alt_up_audio_write_fifo_head(audio_dev, (*(addr+index))*volume, ALT_UP_AUDIO_RIGHT);
		alt_up_audio_write_fifo_head(audio_dev, (*(addr+index))*volume, ALT_UP_AUDIO_LEFT);
		delay((8000/SAMPLING_RATE));
	}

	if(!interrupted)
 80406b4:	d0a6e217 	ldw	r2,-25720(gp)
 80406b8:	1000021e 	bne	r2,zero,80406c4 <play+0xe4>
		alt_up_audio_reset_audio_core(audio_dev);
 80406bc:	e13fff17 	ldw	r4,-4(fp)
 80406c0:	8042d0c0 	call	8042d0c <alt_up_audio_reset_audio_core>
}
 80406c4:	0001883a 	nop
 80406c8:	e037883a 	mov	sp,fp
 80406cc:	dfc00117 	ldw	ra,4(sp)
 80406d0:	df000017 	ldw	fp,0(sp)
 80406d4:	dec00204 	addi	sp,sp,8
 80406d8:	f800283a 	ret

080406dc <effects_isr>:
//    printf("Hello from task2\n");
//    OSTimeDlyHMSM(0, 0, 3, 0);
//  }
//}
/* The main function creates two task and starts multi-tasking */
void effects_isr(void* context){
 80406dc:	defffe04 	addi	sp,sp,-8
 80406e0:	df000115 	stw	fp,4(sp)
 80406e4:	df000104 	addi	fp,sp,4
 80406e8:	e13fff15 	stw	r4,-4(fp)

	captured_val=IORD_ALTERA_AVALON_PIO_EDGE_CAP(PIO_BUTTONS_BASE);
 80406ec:	00820234 	movhi	r2,2056
 80406f0:	10845304 	addi	r2,r2,4428
 80406f4:	10800037 	ldwio	r2,0(r2)
 80406f8:	d0a00615 	stw	r2,-32744(gp)
	if(captured_val==1){ // Right Button
 80406fc:	d0a00617 	ldw	r2,-32744(gp)
 8040700:	10800058 	cmpnei	r2,r2,1
 8040704:	1000031e 	bne	r2,zero,8040714 <effects_isr+0x38>
		beat_state=FIRST_COMBO;
 8040708:	00800044 	movi	r2,1
 804070c:	d0a6e415 	stw	r2,-25712(gp)
 8040710:	00001106 	br	8040758 <effects_isr+0x7c>
	}
	else if(captured_val==0xd){
 8040714:	d0a00617 	ldw	r2,-32744(gp)
 8040718:	10800358 	cmpnei	r2,r2,13
 804071c:	1000031e 	bne	r2,zero,804072c <effects_isr+0x50>
		beat_state=SECOND_COMBO;
 8040720:	00800084 	movi	r2,2
 8040724:	d0a6e415 	stw	r2,-25712(gp)
 8040728:	00000b06 	br	8040758 <effects_isr+0x7c>
	}
	else if(captured_val==0xb){
 804072c:	d0a00617 	ldw	r2,-32744(gp)
 8040730:	108002d8 	cmpnei	r2,r2,11
 8040734:	1000031e 	bne	r2,zero,8040744 <effects_isr+0x68>
		beat_state=THIRD_COMBO;
 8040738:	008000c4 	movi	r2,3
 804073c:	d0a6e415 	stw	r2,-25712(gp)
 8040740:	00000506 	br	8040758 <effects_isr+0x7c>
	}
	else if(captured_val==0x7){
 8040744:	d0a00617 	ldw	r2,-32744(gp)
 8040748:	108001d8 	cmpnei	r2,r2,7
 804074c:	1000021e 	bne	r2,zero,8040758 <effects_isr+0x7c>
		beat_state=FOURTH_COMBO;
 8040750:	00800104 	movi	r2,4
 8040754:	d0a6e415 	stw	r2,-25712(gp)
	}
	interrupted=1;
 8040758:	00800044 	movi	r2,1
 804075c:	d0a6e215 	stw	r2,-25720(gp)
	IOWR_ALTERA_AVALON_PIO_EDGE_CAP(PIO_BUTTONS_BASE, 0xFFFFF);
 8040760:	00c00434 	movhi	r3,16
 8040764:	18ffffc4 	addi	r3,r3,-1
 8040768:	00820234 	movhi	r2,2056
 804076c:	10845304 	addi	r2,r2,4428
 8040770:	10c00035 	stwio	r3,0(r2)

}
 8040774:	0001883a 	nop
 8040778:	e037883a 	mov	sp,fp
 804077c:	df000017 	ldw	fp,0(sp)
 8040780:	dec00104 	addi	sp,sp,4
 8040784:	f800283a 	ret

08040788 <recording_isr>:
void recording_isr(void* context){
 8040788:	defffe04 	addi	sp,sp,-8
 804078c:	df000115 	stw	fp,4(sp)
 8040790:	df000104 	addi	fp,sp,4
 8040794:	e13fff15 	stw	r4,-4(fp)

	sw_val=IORD_ALTERA_AVALON_PIO_EDGE_CAP(PIO_SW_BASE);
 8040798:	00820234 	movhi	r2,2056
 804079c:	10845704 	addi	r2,r2,4444
 80407a0:	10800037 	ldwio	r2,0(r2)
 80407a4:	d0a00715 	stw	r2,-32740(gp)
	IOWR_ALTERA_AVALON_PIO_EDGE_CAP(PIO_SW_BASE, 0xFFFFF);
 80407a8:	00c00434 	movhi	r3,16
 80407ac:	18ffffc4 	addi	r3,r3,-1
 80407b0:	00820234 	movhi	r2,2056
 80407b4:	10845704 	addi	r2,r2,4444
 80407b8:	10c00035 	stwio	r3,0(r2)
	IOWR_ALTERA_AVALON_PIO_IRQ_MASK(PIO_SW_BASE, 0);
 80407bc:	0007883a 	mov	r3,zero
 80407c0:	00820234 	movhi	r2,2056
 80407c4:	10845604 	addi	r2,r2,4440
 80407c8:	10c00035 	stwio	r3,0(r2)
	switch(sw_val)
 80407cc:	d0a00717 	ldw	r2,-32740(gp)
 80407d0:	10c00420 	cmpeqi	r3,r2,16
 80407d4:	1800271e 	bne	r3,zero,8040874 <recording_isr+0xec>
 80407d8:	10c00468 	cmpgeui	r3,r2,17
 80407dc:	1800091e 	bne	r3,zero,8040804 <recording_isr+0x7c>
 80407e0:	10c000a0 	cmpeqi	r3,r2,2
 80407e4:	18002b1e 	bne	r3,zero,8040894 <recording_isr+0x10c>
 80407e8:	10c000e8 	cmpgeui	r3,r2,3
 80407ec:	18002b26 	beq	r3,zero,804089c <recording_isr+0x114>
 80407f0:	10c00120 	cmpeqi	r3,r2,4
 80407f4:	1800241e 	bne	r3,zero,8040888 <recording_isr+0x100>
 80407f8:	10800220 	cmpeqi	r2,r2,8
 80407fc:	1000201e 	bne	r2,zero,8040880 <recording_isr+0xf8>
 8040800:	00002706 	br	80408a0 <recording_isr+0x118>
 8040804:	10c02020 	cmpeqi	r3,r2,128
 8040808:	1800111e 	bne	r3,zero,8040850 <recording_isr+0xc8>
 804080c:	10c02068 	cmpgeui	r3,r2,129
 8040810:	1800051e 	bne	r3,zero,8040828 <recording_isr+0xa0>
 8040814:	10c00820 	cmpeqi	r3,r2,32
 8040818:	1800131e 	bne	r3,zero,8040868 <recording_isr+0xe0>
 804081c:	10801020 	cmpeqi	r2,r2,64
 8040820:	10000e1e 	bne	r2,zero,804085c <recording_isr+0xd4>
 8040824:	00001e06 	br	80408a0 <recording_isr+0x118>
 8040828:	10c04020 	cmpeqi	r3,r2,256
 804082c:	1800051e 	bne	r3,zero,8040844 <recording_isr+0xbc>
 8040830:	10808020 	cmpeqi	r2,r2,512
 8040834:	10001a26 	beq	r2,zero,80408a0 <recording_isr+0x118>
	{
	case 0x200:
		state=FIRST_RECORDING;
 8040838:	00800044 	movi	r2,1
 804083c:	d0a6e315 	stw	r2,-25716(gp)
		break;
 8040840:	00001706 	br	80408a0 <recording_isr+0x118>
	case 0x100:
		state=SECOND_RECORDING;
 8040844:	00800084 	movi	r2,2
 8040848:	d0a6e315 	stw	r2,-25716(gp)
		break;
 804084c:	00001406 	br	80408a0 <recording_isr+0x118>
	case 0x80:
		state=THIRD_RECORDING;
 8040850:	008000c4 	movi	r2,3
 8040854:	d0a6e315 	stw	r2,-25716(gp)
		break;
 8040858:	00001106 	br	80408a0 <recording_isr+0x118>
	case 0x40:
		state=FOURTH_RECORDING;
 804085c:	00800104 	movi	r2,4
 8040860:	d0a6e315 	stw	r2,-25716(gp)
		break;
 8040864:	00000e06 	br	80408a0 <recording_isr+0x118>
	case 0x20:
		state=FIFTH_RECORDING;
 8040868:	00800144 	movi	r2,5
 804086c:	d0a6e315 	stw	r2,-25716(gp)
		break;
 8040870:	00000b06 	br	80408a0 <recording_isr+0x118>
	case 0x10:
		state=CONTINUOUS_PLAYBACK;
 8040874:	00800184 	movi	r2,6
 8040878:	d0a6e315 	stw	r2,-25716(gp)
		break;
 804087c:	00000806 	br	80408a0 <recording_isr+0x118>
	case 0x8:
		state=IDLE;
 8040880:	d026e315 	stw	zero,-25716(gp)
		break;
 8040884:	00000606 	br	80408a0 <recording_isr+0x118>
	case 0x4:
		state=FIRST_PLAYBACK;
 8040888:	008001c4 	movi	r2,7
 804088c:	d0a6e315 	stw	r2,-25716(gp)
		break;
 8040890:	00000306 	br	80408a0 <recording_isr+0x118>
	case 0x2:

		break;
 8040894:	0001883a 	nop
 8040898:	00000106 	br	80408a0 <recording_isr+0x118>
	case 0x1:

	break;
 804089c:	0001883a 	nop
	}

	interrupted=1;
 80408a0:	00800044 	movi	r2,1
 80408a4:	d0a6e215 	stw	r2,-25720(gp)
}
 80408a8:	0001883a 	nop
 80408ac:	e037883a 	mov	sp,fp
 80408b0:	df000017 	ldw	fp,0(sp)
 80408b4:	dec00104 	addi	sp,sp,4
 80408b8:	f800283a 	ret

080408bc <main>:
int main(void)
{
 80408bc:	defff804 	addi	sp,sp,-32
 80408c0:	dfc00715 	stw	ra,28(sp)
 80408c4:	df000615 	stw	fp,24(sp)
 80408c8:	df000604 	addi	fp,sp,24
	unsigned int l_buf=0;
 80408cc:	e03ffc15 	stw	zero,-16(fp)
	unsigned int curr_idx=0;
 80408d0:	e03ffd15 	stw	zero,-12(fp)
	unsigned int start_idx=0;
 80408d4:	e03ffe15 	stw	zero,-8(fp)
	audio_dev = alt_up_audio_open_dev ("/dev/audio_0");
 80408d8:	01020134 	movhi	r4,2052
 80408dc:	211cb404 	addi	r4,r4,29392
 80408e0:	8042af80 	call	8042af8 <alt_up_audio_open_dev>
 80408e4:	d0a6e715 	stw	r2,-25700(gp)
	audio_conf = alt_up_av_config_open_dev("/dev/audio_and_video_config_0");
 80408e8:	01020134 	movhi	r4,2052
 80408ec:	211cb804 	addi	r4,r4,29408
 80408f0:	80432a00 	call	80432a0 <alt_up_av_config_open_dev>
 80408f4:	d0a6e815 	stw	r2,-25696(gp)
		if ( audio_dev == NULL)
 80408f8:	d0a6e717 	ldw	r2,-25700(gp)
 80408fc:	1000041e 	bne	r2,zero,8040910 <main+0x54>
			alt_printf ("Error: could not open audio device \n");
 8040900:	01020134 	movhi	r4,2052
 8040904:	211cc004 	addi	r4,r4,29440
 8040908:	8041b8c0 	call	8041b8c <alt_printf>
 804090c:	00000306 	br	804091c <main+0x60>
		else
			alt_printf ("Opened audio device \n");
 8040910:	01020134 	movhi	r4,2052
 8040914:	211cca04 	addi	r4,r4,29480
 8040918:	8041b8c0 	call	8041b8c <alt_printf>
		/* read and echo audio data */
	alt_up_av_config_reset(audio_conf);
 804091c:	d0a6e817 	ldw	r2,-25696(gp)
 8040920:	1009883a 	mov	r4,r2
 8040924:	80433e40 	call	80433e4 <alt_up_av_config_reset>
	alt_up_audio_reset_audio_core(audio_dev);
 8040928:	d0a6e717 	ldw	r2,-25700(gp)
 804092c:	1009883a 	mov	r4,r2
 8040930:	8042d0c0 	call	8042d0c <alt_up_audio_reset_audio_core>
	alt_ic_isr_register(PIO_BUTTONS_IRQ_INTERRUPT_CONTROLLER_ID, PIO_BUTTONS_IRQ,effects_isr, NULL, NULL);
 8040934:	d8000015 	stw	zero,0(sp)
 8040938:	000f883a 	mov	r7,zero
 804093c:	01820134 	movhi	r6,2052
 8040940:	3181b704 	addi	r6,r6,1756
 8040944:	014000c4 	movi	r5,3
 8040948:	0009883a 	mov	r4,zero
 804094c:	80417840 	call	8041784 <alt_ic_isr_register>
	IOWR_ALTERA_AVALON_PIO_IRQ_MASK(PIO_BUTTONS_BASE, 0xFF);
 8040950:	00c03fc4 	movi	r3,255
 8040954:	00820234 	movhi	r2,2056
 8040958:	10845204 	addi	r2,r2,4424
 804095c:	10c00035 	stwio	r3,0(r2)
	alt_ic_isr_register(PIO_SW_IRQ_INTERRUPT_CONTROLLER_ID, PIO_SW_IRQ,recording_isr, NULL, NULL);
 8040960:	d8000015 	stw	zero,0(sp)
 8040964:	000f883a 	mov	r7,zero
 8040968:	01820134 	movhi	r6,2052
 804096c:	3181e204 	addi	r6,r6,1928
 8040970:	01400084 	movi	r5,2
 8040974:	0009883a 	mov	r4,zero
 8040978:	80417840 	call	8041784 <alt_ic_isr_register>
	IOWR_ALTERA_AVALON_PIO_IRQ_MASK(PIO_SW_BASE, 0xFFFF);
 804097c:	00ffffd4 	movui	r3,65535
 8040980:	00820234 	movhi	r2,2056
 8040984:	10845604 	addi	r2,r2,4440
 8040988:	10c00035 	stwio	r3,0(r2)
//	alt_ic_isr_register(PIO_SW_IRQ_INTERRUPT_CONTROLLER_ID, PIO_SW_IRQ,effects_isr, NULL, NULL);
//	IOWR_ALTERA_AVALON_PIO_IRQ_MASK(PIO_SW_BASE, 0xFF);
	IOWR_ALTERA_AVALON_PIO_DATA(PIO_LEDS_BASE, 0xFF);
 804098c:	00c03fc4 	movi	r3,255
 8040990:	00820234 	movhi	r2,2056
 8040994:	10842004 	addi	r2,r2,4224
 8040998:	10c00035 	stwio	r3,0(r2)
	alt_printf("Getting there\n");
 804099c:	01020134 	movhi	r4,2052
 80409a0:	211cd004 	addi	r4,r4,29504
 80409a4:	8041b8c0 	call	8041b8c <alt_printf>
	unsigned int current_idx=0;
 80409a8:	e03fff15 	stw	zero,-4(fp)
	while(1){
		if(state==CONTINUOUS_PLAYBACK){
 80409ac:	d0a6e317 	ldw	r2,-25716(gp)
 80409b0:	10800198 	cmpnei	r2,r2,6
 80409b4:	1000581e 	bne	r2,zero,8040b18 <main+0x25c>
			if(interrupted!=1)
 80409b8:	d0a6e217 	ldw	r2,-25720(gp)
 80409bc:	10800060 	cmpeqi	r2,r2,1
 80409c0:	1000091e 	bne	r2,zero,80409e8 <main+0x12c>
				play(audio_buffer,DURATION,6,audio_dev,0);
 80409c4:	d0a00017 	ldw	r2,-32768(gp)
 80409c8:	d0e6e717 	ldw	r3,-25700(gp)
 80409cc:	d8000015 	stw	zero,0(sp)
 80409d0:	180f883a 	mov	r7,r3
 80409d4:	01800184 	movi	r6,6
 80409d8:	01400144 	movi	r5,5
 80409dc:	1009883a 	mov	r4,r2
 80409e0:	80405e00 	call	80405e0 <play>
 80409e4:	003ff106 	br	80409ac <__alt_data_end+0xfffc09ac>
			else
			{
				current_index2=current_index;
 80409e8:	d0a6e517 	ldw	r2,-25708(gp)
 80409ec:	d0a6e615 	stw	r2,-25704(gp)
				switch(beat_state){
 80409f0:	d0a6e417 	ldw	r2,-25712(gp)
 80409f4:	10c000a0 	cmpeqi	r3,r2,2
 80409f8:	1800191e 	bne	r3,zero,8040a60 <main+0x1a4>
 80409fc:	10c000e8 	cmpgeui	r3,r2,3
 8040a00:	1800031e 	bne	r3,zero,8040a10 <main+0x154>
 8040a04:	10800060 	cmpeqi	r2,r2,1
 8040a08:	1000061e 	bne	r2,zero,8040a24 <main+0x168>
 8040a0c:	00012106 	br	8040e94 <main+0x5d8>
 8040a10:	10c000e0 	cmpeqi	r3,r2,3
 8040a14:	1800211e 	bne	r3,zero,8040a9c <main+0x1e0>
 8040a18:	10800120 	cmpeqi	r2,r2,4
 8040a1c:	10002e1e 	bne	r2,zero,8040ad8 <main+0x21c>
 8040a20:	00011c06 	br	8040e94 <main+0x5d8>
				case FIRST_COMBO:
					combined_play(audio_buffer,DURATION,effect1_buffer,EFFECT_DURATION,audio_dev,6);
 8040a24:	d1200017 	ldw	r4,-32768(gp)
 8040a28:	d1600217 	ldw	r5,-32760(gp)
 8040a2c:	d0a6e717 	ldw	r2,-25700(gp)
 8040a30:	00c00184 	movi	r3,6
 8040a34:	d8c00115 	stw	r3,4(sp)
 8040a38:	d8800015 	stw	r2,0(sp)
 8040a3c:	01c00104 	movi	r7,4
 8040a40:	280d883a 	mov	r6,r5
 8040a44:	01400144 	movi	r5,5
 8040a48:	80404580 	call	8040458 <combined_play>
					state= CONTINUOUS_PLAYBACK;
 8040a4c:	00800184 	movi	r2,6
 8040a50:	d0a6e315 	stw	r2,-25716(gp)
					beat_state=IDLE;
 8040a54:	d026e415 	stw	zero,-25712(gp)
					interrupted=0;
 8040a58:	d026e215 	stw	zero,-25720(gp)
					break;
 8040a5c:	00010d06 	br	8040e94 <main+0x5d8>
				case SECOND_COMBO:
					combined_play(audio_buffer,DURATION,effect2_buffer,EFFECT_DURATION,audio_dev,6);
 8040a60:	d1200017 	ldw	r4,-32768(gp)
 8040a64:	d1600317 	ldw	r5,-32756(gp)
 8040a68:	d0a6e717 	ldw	r2,-25700(gp)
 8040a6c:	00c00184 	movi	r3,6
 8040a70:	d8c00115 	stw	r3,4(sp)
 8040a74:	d8800015 	stw	r2,0(sp)
 8040a78:	01c00104 	movi	r7,4
 8040a7c:	280d883a 	mov	r6,r5
 8040a80:	01400144 	movi	r5,5
 8040a84:	80404580 	call	8040458 <combined_play>
					state= CONTINUOUS_PLAYBACK;
 8040a88:	00800184 	movi	r2,6
 8040a8c:	d0a6e315 	stw	r2,-25716(gp)
					beat_state=IDLE;
 8040a90:	d026e415 	stw	zero,-25712(gp)
					interrupted=0;
 8040a94:	d026e215 	stw	zero,-25720(gp)
					break;
 8040a98:	0000fe06 	br	8040e94 <main+0x5d8>
				case THIRD_COMBO:
					combined_play(audio_buffer,DURATION,effect3_buffer,EFFECT_DURATION,audio_dev,6);
 8040a9c:	d1200017 	ldw	r4,-32768(gp)
 8040aa0:	d1600417 	ldw	r5,-32752(gp)
 8040aa4:	d0a6e717 	ldw	r2,-25700(gp)
 8040aa8:	00c00184 	movi	r3,6
 8040aac:	d8c00115 	stw	r3,4(sp)
 8040ab0:	d8800015 	stw	r2,0(sp)
 8040ab4:	01c00104 	movi	r7,4
 8040ab8:	280d883a 	mov	r6,r5
 8040abc:	01400144 	movi	r5,5
 8040ac0:	80404580 	call	8040458 <combined_play>
					state= CONTINUOUS_PLAYBACK;
 8040ac4:	00800184 	movi	r2,6
 8040ac8:	d0a6e315 	stw	r2,-25716(gp)
					beat_state=IDLE;
 8040acc:	d026e415 	stw	zero,-25712(gp)
					interrupted=0;
 8040ad0:	d026e215 	stw	zero,-25720(gp)
					break;
 8040ad4:	0000ef06 	br	8040e94 <main+0x5d8>
				case FOURTH_COMBO:
					combined_play(audio_buffer,DURATION,effect4_buffer,EFFECT_DURATION,audio_dev,6);
 8040ad8:	d1200017 	ldw	r4,-32768(gp)
 8040adc:	d1600517 	ldw	r5,-32748(gp)
 8040ae0:	d0a6e717 	ldw	r2,-25700(gp)
 8040ae4:	00c00184 	movi	r3,6
 8040ae8:	d8c00115 	stw	r3,4(sp)
 8040aec:	d8800015 	stw	r2,0(sp)
 8040af0:	01c00104 	movi	r7,4
 8040af4:	280d883a 	mov	r6,r5
 8040af8:	01400144 	movi	r5,5
 8040afc:	80404580 	call	8040458 <combined_play>
					state= CONTINUOUS_PLAYBACK;
 8040b00:	00800184 	movi	r2,6
 8040b04:	d0a6e315 	stw	r2,-25716(gp)
					beat_state=IDLE;
 8040b08:	d026e415 	stw	zero,-25712(gp)
					interrupted=0;
 8040b0c:	d026e215 	stw	zero,-25720(gp)
					break;
 8040b10:	0001883a 	nop
 8040b14:	0000df06 	br	8040e94 <main+0x5d8>
				}
			}
		}
		else if(interrupted==1){
 8040b18:	d0a6e217 	ldw	r2,-25720(gp)
 8040b1c:	10800058 	cmpnei	r2,r2,1
 8040b20:	103fa21e 	bne	r2,zero,80409ac <__alt_data_end+0xfffc09ac>
			IOWR_ALTERA_AVALON_PIO_IRQ_MASK(PIO_SW_BASE, 0);
 8040b24:	0007883a 	mov	r3,zero
 8040b28:	00820234 	movhi	r2,2056
 8040b2c:	10845604 	addi	r2,r2,4440
 8040b30:	10c00035 	stwio	r3,0(r2)
			switch(state)
 8040b34:	d0a6e317 	ldw	r2,-25716(gp)
 8040b38:	10c00228 	cmpgeui	r3,r2,8
 8040b3c:	18007f1e 	bne	r3,zero,8040d3c <main+0x480>
 8040b40:	100690ba 	slli	r3,r2,2
 8040b44:	00820134 	movhi	r2,2052
 8040b48:	1082d604 	addi	r2,r2,2904
 8040b4c:	1885883a 	add	r2,r3,r2
 8040b50:	10800017 	ldw	r2,0(r2)
 8040b54:	1000683a 	jmp	r2
 8040b58:	08040d3c 	xorhi	zero,at,4148
 8040b5c:	08040b78 	rdprs	zero,at,4141
 8040b60:	08040bc8 	cmpgei	zero,at,4143
 8040b64:	08040c18 	cmpnei	zero,at,4144
 8040b68:	08040c68 	cmpgeui	zero,at,4145
 8040b6c:	08040cb8 	rdprs	zero,at,4146
 8040b70:	08040d3c 	xorhi	zero,at,4148
 8040b74:	08040d08 	cmpgei	zero,at,4148
				{
				case FIRST_RECORDING:
					state=IDLE;
 8040b78:	d026e315 	stw	zero,-25716(gp)
					record(audio_buffer,DURATION,&buffer_avg,audio_dev);
 8040b7c:	d0a00017 	ldw	r2,-32768(gp)
 8040b80:	d0e6e717 	ldw	r3,-25700(gp)
 8040b84:	180f883a 	mov	r7,r3
 8040b88:	d1a6dc04 	addi	r6,gp,-25744
 8040b8c:	01400144 	movi	r5,5
 8040b90:	1009883a 	mov	r4,r2
 8040b94:	80403100 	call	8040310 <record>
					delay(1000);
 8040b98:	01111eb4 	movhi	r4,17530
 8040b9c:	80402900 	call	8040290 <delay>
					play(audio_buffer,DURATION,4,audio_dev,1);
 8040ba0:	d0e00017 	ldw	r3,-32768(gp)
 8040ba4:	d126e717 	ldw	r4,-25700(gp)
 8040ba8:	00800044 	movi	r2,1
 8040bac:	d8800015 	stw	r2,0(sp)
 8040bb0:	200f883a 	mov	r7,r4
 8040bb4:	01800104 	movi	r6,4
 8040bb8:	01400144 	movi	r5,5
 8040bbc:	1809883a 	mov	r4,r3
 8040bc0:	80405e00 	call	80405e0 <play>
					break;
 8040bc4:	00005d06 	br	8040d3c <main+0x480>
				case SECOND_RECORDING:
					state=IDLE;
 8040bc8:	d026e315 	stw	zero,-25716(gp)
					record(effect1_buffer,EFFECT_DURATION,&effect1_avg,audio_dev);
 8040bcc:	d0a00217 	ldw	r2,-32760(gp)
 8040bd0:	d0e6e717 	ldw	r3,-25700(gp)
 8040bd4:	180f883a 	mov	r7,r3
 8040bd8:	d1a6de04 	addi	r6,gp,-25736
 8040bdc:	01400104 	movi	r5,4
 8040be0:	1009883a 	mov	r4,r2
 8040be4:	80403100 	call	8040310 <record>
					delay(1000);
 8040be8:	01111eb4 	movhi	r4,17530
 8040bec:	80402900 	call	8040290 <delay>
					play(effect1_buffer,EFFECT_DURATION,4,audio_dev,1);
 8040bf0:	d0e00217 	ldw	r3,-32760(gp)
 8040bf4:	d126e717 	ldw	r4,-25700(gp)
 8040bf8:	00800044 	movi	r2,1
 8040bfc:	d8800015 	stw	r2,0(sp)
 8040c00:	200f883a 	mov	r7,r4
 8040c04:	01800104 	movi	r6,4
 8040c08:	01400104 	movi	r5,4
 8040c0c:	1809883a 	mov	r4,r3
 8040c10:	80405e00 	call	80405e0 <play>
					break;
 8040c14:	00004906 	br	8040d3c <main+0x480>
				case THIRD_RECORDING:
					state=IDLE;
 8040c18:	d026e315 	stw	zero,-25716(gp)
					record(effect2_buffer,EFFECT_DURATION,&effect2_avg,audio_dev);
 8040c1c:	d0a00317 	ldw	r2,-32756(gp)
 8040c20:	d0e6e717 	ldw	r3,-25700(gp)
 8040c24:	180f883a 	mov	r7,r3
 8040c28:	d1a6df04 	addi	r6,gp,-25732
 8040c2c:	01400104 	movi	r5,4
 8040c30:	1009883a 	mov	r4,r2
 8040c34:	80403100 	call	8040310 <record>
					delay(1000);
 8040c38:	01111eb4 	movhi	r4,17530
 8040c3c:	80402900 	call	8040290 <delay>
					play(effect2_buffer,EFFECT_DURATION,4,audio_dev,1);
 8040c40:	d0e00317 	ldw	r3,-32756(gp)
 8040c44:	d126e717 	ldw	r4,-25700(gp)
 8040c48:	00800044 	movi	r2,1
 8040c4c:	d8800015 	stw	r2,0(sp)
 8040c50:	200f883a 	mov	r7,r4
 8040c54:	01800104 	movi	r6,4
 8040c58:	01400104 	movi	r5,4
 8040c5c:	1809883a 	mov	r4,r3
 8040c60:	80405e00 	call	80405e0 <play>
					break;
 8040c64:	00003506 	br	8040d3c <main+0x480>
				case FOURTH_RECORDING:
					state=IDLE;
 8040c68:	d026e315 	stw	zero,-25716(gp)
					record(effect3_buffer,EFFECT_DURATION,&effect3_avg,audio_dev);
 8040c6c:	d0a00417 	ldw	r2,-32752(gp)
 8040c70:	d0e6e717 	ldw	r3,-25700(gp)
 8040c74:	180f883a 	mov	r7,r3
 8040c78:	d1a6e004 	addi	r6,gp,-25728
 8040c7c:	01400104 	movi	r5,4
 8040c80:	1009883a 	mov	r4,r2
 8040c84:	80403100 	call	8040310 <record>
					delay(1000);
 8040c88:	01111eb4 	movhi	r4,17530
 8040c8c:	80402900 	call	8040290 <delay>
					play(effect3_buffer,EFFECT_DURATION,4,audio_dev,1);
 8040c90:	d0e00417 	ldw	r3,-32752(gp)
 8040c94:	d126e717 	ldw	r4,-25700(gp)
 8040c98:	00800044 	movi	r2,1
 8040c9c:	d8800015 	stw	r2,0(sp)
 8040ca0:	200f883a 	mov	r7,r4
 8040ca4:	01800104 	movi	r6,4
 8040ca8:	01400104 	movi	r5,4
 8040cac:	1809883a 	mov	r4,r3
 8040cb0:	80405e00 	call	80405e0 <play>
					break;
 8040cb4:	00002106 	br	8040d3c <main+0x480>
				case FIFTH_RECORDING:
					state=IDLE;
 8040cb8:	d026e315 	stw	zero,-25716(gp)
					record(effect4_buffer,EFFECT_DURATION,&effect4_avg,audio_dev);
 8040cbc:	d0a00517 	ldw	r2,-32748(gp)
 8040cc0:	d0e6e717 	ldw	r3,-25700(gp)
 8040cc4:	180f883a 	mov	r7,r3
 8040cc8:	d1a6e104 	addi	r6,gp,-25724
 8040ccc:	01400104 	movi	r5,4
 8040cd0:	1009883a 	mov	r4,r2
 8040cd4:	80403100 	call	8040310 <record>
					delay(1000);
 8040cd8:	01111eb4 	movhi	r4,17530
 8040cdc:	80402900 	call	8040290 <delay>
					play(effect4_buffer,EFFECT_DURATION,4,audio_dev,1);
 8040ce0:	d0e00517 	ldw	r3,-32748(gp)
 8040ce4:	d126e717 	ldw	r4,-25700(gp)
 8040ce8:	00800044 	movi	r2,1
 8040cec:	d8800015 	stw	r2,0(sp)
 8040cf0:	200f883a 	mov	r7,r4
 8040cf4:	01800104 	movi	r6,4
 8040cf8:	01400104 	movi	r5,4
 8040cfc:	1809883a 	mov	r4,r3
 8040d00:	80405e00 	call	80405e0 <play>
					break;
 8040d04:	00000d06 	br	8040d3c <main+0x480>
				case FIRST_PLAYBACK:
					state=IDLE;
 8040d08:	d026e315 	stw	zero,-25716(gp)
					delay(1000);
 8040d0c:	01111eb4 	movhi	r4,17530
 8040d10:	80402900 	call	8040290 <delay>
					play(audio_buffer,DURATION,4,audio_dev,1);
 8040d14:	d0e00017 	ldw	r3,-32768(gp)
 8040d18:	d126e717 	ldw	r4,-25700(gp)
 8040d1c:	00800044 	movi	r2,1
 8040d20:	d8800015 	stw	r2,0(sp)
 8040d24:	200f883a 	mov	r7,r4
 8040d28:	01800104 	movi	r6,4
 8040d2c:	01400144 	movi	r5,5
 8040d30:	1809883a 	mov	r4,r3
 8040d34:	80405e00 	call	80405e0 <play>
					break;
 8040d38:	0001883a 	nop
				}
			IOWR_ALTERA_AVALON_PIO_EDGE_CAP(PIO_SW_BASE, 0xFFFFF);
 8040d3c:	00c00434 	movhi	r3,16
 8040d40:	18ffffc4 	addi	r3,r3,-1
 8040d44:	00820234 	movhi	r2,2056
 8040d48:	10845704 	addi	r2,r2,4444
 8040d4c:	10c00035 	stwio	r3,0(r2)
			IOWR_ALTERA_AVALON_PIO_EDGE_CAP(PIO_SW_BASE, 0);
 8040d50:	0007883a 	mov	r3,zero
 8040d54:	00820234 	movhi	r2,2056
 8040d58:	10845704 	addi	r2,r2,4444
 8040d5c:	10c00035 	stwio	r3,0(r2)
			delay(100);
 8040d60:	0110b234 	movhi	r4,17096
 8040d64:	80402900 	call	8040290 <delay>
			IOWR_ALTERA_AVALON_PIO_EDGE_CAP(PIO_SW_BASE, 0xFFFFF);
 8040d68:	00c00434 	movhi	r3,16
 8040d6c:	18ffffc4 	addi	r3,r3,-1
 8040d70:	00820234 	movhi	r2,2056
 8040d74:	10845704 	addi	r2,r2,4444
 8040d78:	10c00035 	stwio	r3,0(r2)
			IOWR_ALTERA_AVALON_PIO_IRQ_MASK(PIO_SW_BASE, 0xFFFF);
 8040d7c:	00ffffd4 	movui	r3,65535
 8040d80:	00820234 	movhi	r2,2056
 8040d84:	10845604 	addi	r2,r2,4440
 8040d88:	10c00035 	stwio	r3,0(r2)
			interrupted=0;
 8040d8c:	d026e215 	stw	zero,-25720(gp)

			switch(beat_state){
 8040d90:	d0a6e417 	ldw	r2,-25712(gp)
 8040d94:	10c000a0 	cmpeqi	r3,r2,2
 8040d98:	1800171e 	bne	r3,zero,8040df8 <main+0x53c>
 8040d9c:	10c000e8 	cmpgeui	r3,r2,3
 8040da0:	1800031e 	bne	r3,zero,8040db0 <main+0x4f4>
 8040da4:	10800060 	cmpeqi	r2,r2,1
 8040da8:	1000061e 	bne	r2,zero,8040dc4 <main+0x508>
 8040dac:	00003906 	br	8040e94 <main+0x5d8>
 8040db0:	10c000e0 	cmpeqi	r3,r2,3
 8040db4:	18001d1e 	bne	r3,zero,8040e2c <main+0x570>
 8040db8:	10800120 	cmpeqi	r2,r2,4
 8040dbc:	1000281e 	bne	r2,zero,8040e60 <main+0x5a4>
 8040dc0:	00003406 	br	8040e94 <main+0x5d8>
				case FIRST_COMBO:
					beat_state=IDLE;
 8040dc4:	d026e415 	stw	zero,-25712(gp)
					delay(1000);
 8040dc8:	01111eb4 	movhi	r4,17530
 8040dcc:	80402900 	call	8040290 <delay>
					play(effect1_buffer,EFFECT_DURATION,4,audio_dev,1);
 8040dd0:	d0e00217 	ldw	r3,-32760(gp)
 8040dd4:	d126e717 	ldw	r4,-25700(gp)
 8040dd8:	00800044 	movi	r2,1
 8040ddc:	d8800015 	stw	r2,0(sp)
 8040de0:	200f883a 	mov	r7,r4
 8040de4:	01800104 	movi	r6,4
 8040de8:	01400104 	movi	r5,4
 8040dec:	1809883a 	mov	r4,r3
 8040df0:	80405e00 	call	80405e0 <play>
					break;
 8040df4:	00002706 	br	8040e94 <main+0x5d8>
				case SECOND_COMBO:
					beat_state=IDLE;
 8040df8:	d026e415 	stw	zero,-25712(gp)
					delay(1000);
 8040dfc:	01111eb4 	movhi	r4,17530
 8040e00:	80402900 	call	8040290 <delay>
					play(effect2_buffer,EFFECT_DURATION,4,audio_dev,1);
 8040e04:	d0e00317 	ldw	r3,-32756(gp)
 8040e08:	d126e717 	ldw	r4,-25700(gp)
 8040e0c:	00800044 	movi	r2,1
 8040e10:	d8800015 	stw	r2,0(sp)
 8040e14:	200f883a 	mov	r7,r4
 8040e18:	01800104 	movi	r6,4
 8040e1c:	01400104 	movi	r5,4
 8040e20:	1809883a 	mov	r4,r3
 8040e24:	80405e00 	call	80405e0 <play>
					break;
 8040e28:	00001a06 	br	8040e94 <main+0x5d8>
				case THIRD_COMBO:
					beat_state=IDLE;
 8040e2c:	d026e415 	stw	zero,-25712(gp)
					delay(1000);
 8040e30:	01111eb4 	movhi	r4,17530
 8040e34:	80402900 	call	8040290 <delay>
					play(effect3_buffer,EFFECT_DURATION,4,audio_dev,1);
 8040e38:	d0e00417 	ldw	r3,-32752(gp)
 8040e3c:	d126e717 	ldw	r4,-25700(gp)
 8040e40:	00800044 	movi	r2,1
 8040e44:	d8800015 	stw	r2,0(sp)
 8040e48:	200f883a 	mov	r7,r4
 8040e4c:	01800104 	movi	r6,4
 8040e50:	01400104 	movi	r5,4
 8040e54:	1809883a 	mov	r4,r3
 8040e58:	80405e00 	call	80405e0 <play>
					break;
 8040e5c:	00000d06 	br	8040e94 <main+0x5d8>
				case FOURTH_COMBO:
					beat_state=IDLE;
 8040e60:	d026e415 	stw	zero,-25712(gp)
					delay(1000);
 8040e64:	01111eb4 	movhi	r4,17530
 8040e68:	80402900 	call	8040290 <delay>
					play(effect4_buffer,EFFECT_DURATION,4,audio_dev,1);
 8040e6c:	d0e00517 	ldw	r3,-32748(gp)
 8040e70:	d126e717 	ldw	r4,-25700(gp)
 8040e74:	00800044 	movi	r2,1
 8040e78:	d8800015 	stw	r2,0(sp)
 8040e7c:	200f883a 	mov	r7,r4
 8040e80:	01800104 	movi	r6,4
 8040e84:	01400104 	movi	r5,4
 8040e88:	1809883a 	mov	r4,r3
 8040e8c:	80405e00 	call	80405e0 <play>
					break;
 8040e90:	0001883a 	nop
			}
		}
	}
 8040e94:	003ec506 	br	80409ac <__alt_data_end+0xfffc09ac>

08040e98 <__divsi3>:
 8040e98:	20001b16 	blt	r4,zero,8040f08 <__divsi3+0x70>
 8040e9c:	000f883a 	mov	r7,zero
 8040ea0:	28001616 	blt	r5,zero,8040efc <__divsi3+0x64>
 8040ea4:	200d883a 	mov	r6,r4
 8040ea8:	29001a2e 	bgeu	r5,r4,8040f14 <__divsi3+0x7c>
 8040eac:	00800804 	movi	r2,32
 8040eb0:	00c00044 	movi	r3,1
 8040eb4:	00000106 	br	8040ebc <__divsi3+0x24>
 8040eb8:	10000d26 	beq	r2,zero,8040ef0 <__divsi3+0x58>
 8040ebc:	294b883a 	add	r5,r5,r5
 8040ec0:	10bfffc4 	addi	r2,r2,-1
 8040ec4:	18c7883a 	add	r3,r3,r3
 8040ec8:	293ffb36 	bltu	r5,r4,8040eb8 <__alt_data_end+0xfffc0eb8>
 8040ecc:	0005883a 	mov	r2,zero
 8040ed0:	18000726 	beq	r3,zero,8040ef0 <__divsi3+0x58>
 8040ed4:	0005883a 	mov	r2,zero
 8040ed8:	31400236 	bltu	r6,r5,8040ee4 <__divsi3+0x4c>
 8040edc:	314dc83a 	sub	r6,r6,r5
 8040ee0:	10c4b03a 	or	r2,r2,r3
 8040ee4:	1806d07a 	srli	r3,r3,1
 8040ee8:	280ad07a 	srli	r5,r5,1
 8040eec:	183ffa1e 	bne	r3,zero,8040ed8 <__alt_data_end+0xfffc0ed8>
 8040ef0:	38000126 	beq	r7,zero,8040ef8 <__divsi3+0x60>
 8040ef4:	0085c83a 	sub	r2,zero,r2
 8040ef8:	f800283a 	ret
 8040efc:	014bc83a 	sub	r5,zero,r5
 8040f00:	39c0005c 	xori	r7,r7,1
 8040f04:	003fe706 	br	8040ea4 <__alt_data_end+0xfffc0ea4>
 8040f08:	0109c83a 	sub	r4,zero,r4
 8040f0c:	01c00044 	movi	r7,1
 8040f10:	003fe306 	br	8040ea0 <__alt_data_end+0xfffc0ea0>
 8040f14:	00c00044 	movi	r3,1
 8040f18:	003fee06 	br	8040ed4 <__alt_data_end+0xfffc0ed4>

08040f1c <__modsi3>:
 8040f1c:	20001716 	blt	r4,zero,8040f7c <__modsi3+0x60>
 8040f20:	000f883a 	mov	r7,zero
 8040f24:	2005883a 	mov	r2,r4
 8040f28:	28001216 	blt	r5,zero,8040f74 <__modsi3+0x58>
 8040f2c:	2900162e 	bgeu	r5,r4,8040f88 <__modsi3+0x6c>
 8040f30:	01800804 	movi	r6,32
 8040f34:	00c00044 	movi	r3,1
 8040f38:	00000106 	br	8040f40 <__modsi3+0x24>
 8040f3c:	30000a26 	beq	r6,zero,8040f68 <__modsi3+0x4c>
 8040f40:	294b883a 	add	r5,r5,r5
 8040f44:	31bfffc4 	addi	r6,r6,-1
 8040f48:	18c7883a 	add	r3,r3,r3
 8040f4c:	293ffb36 	bltu	r5,r4,8040f3c <__alt_data_end+0xfffc0f3c>
 8040f50:	18000526 	beq	r3,zero,8040f68 <__modsi3+0x4c>
 8040f54:	1806d07a 	srli	r3,r3,1
 8040f58:	11400136 	bltu	r2,r5,8040f60 <__modsi3+0x44>
 8040f5c:	1145c83a 	sub	r2,r2,r5
 8040f60:	280ad07a 	srli	r5,r5,1
 8040f64:	183ffb1e 	bne	r3,zero,8040f54 <__alt_data_end+0xfffc0f54>
 8040f68:	38000126 	beq	r7,zero,8040f70 <__modsi3+0x54>
 8040f6c:	0085c83a 	sub	r2,zero,r2
 8040f70:	f800283a 	ret
 8040f74:	014bc83a 	sub	r5,zero,r5
 8040f78:	003fec06 	br	8040f2c <__alt_data_end+0xfffc0f2c>
 8040f7c:	0109c83a 	sub	r4,zero,r4
 8040f80:	01c00044 	movi	r7,1
 8040f84:	003fe706 	br	8040f24 <__alt_data_end+0xfffc0f24>
 8040f88:	00c00044 	movi	r3,1
 8040f8c:	003ff106 	br	8040f54 <__alt_data_end+0xfffc0f54>

08040f90 <__udivsi3>:
 8040f90:	200d883a 	mov	r6,r4
 8040f94:	2900152e 	bgeu	r5,r4,8040fec <__udivsi3+0x5c>
 8040f98:	28001416 	blt	r5,zero,8040fec <__udivsi3+0x5c>
 8040f9c:	00800804 	movi	r2,32
 8040fa0:	00c00044 	movi	r3,1
 8040fa4:	00000206 	br	8040fb0 <__udivsi3+0x20>
 8040fa8:	10000e26 	beq	r2,zero,8040fe4 <__udivsi3+0x54>
 8040fac:	28000516 	blt	r5,zero,8040fc4 <__udivsi3+0x34>
 8040fb0:	294b883a 	add	r5,r5,r5
 8040fb4:	10bfffc4 	addi	r2,r2,-1
 8040fb8:	18c7883a 	add	r3,r3,r3
 8040fbc:	293ffa36 	bltu	r5,r4,8040fa8 <__alt_data_end+0xfffc0fa8>
 8040fc0:	18000826 	beq	r3,zero,8040fe4 <__udivsi3+0x54>
 8040fc4:	0005883a 	mov	r2,zero
 8040fc8:	31400236 	bltu	r6,r5,8040fd4 <__udivsi3+0x44>
 8040fcc:	314dc83a 	sub	r6,r6,r5
 8040fd0:	10c4b03a 	or	r2,r2,r3
 8040fd4:	1806d07a 	srli	r3,r3,1
 8040fd8:	280ad07a 	srli	r5,r5,1
 8040fdc:	183ffa1e 	bne	r3,zero,8040fc8 <__alt_data_end+0xfffc0fc8>
 8040fe0:	f800283a 	ret
 8040fe4:	0005883a 	mov	r2,zero
 8040fe8:	f800283a 	ret
 8040fec:	00c00044 	movi	r3,1
 8040ff0:	003ff406 	br	8040fc4 <__alt_data_end+0xfffc0fc4>

08040ff4 <__umodsi3>:
 8040ff4:	2005883a 	mov	r2,r4
 8040ff8:	2900122e 	bgeu	r5,r4,8041044 <__umodsi3+0x50>
 8040ffc:	28001116 	blt	r5,zero,8041044 <__umodsi3+0x50>
 8041000:	01800804 	movi	r6,32
 8041004:	00c00044 	movi	r3,1
 8041008:	00000206 	br	8041014 <__umodsi3+0x20>
 804100c:	30000c26 	beq	r6,zero,8041040 <__umodsi3+0x4c>
 8041010:	28000516 	blt	r5,zero,8041028 <__umodsi3+0x34>
 8041014:	294b883a 	add	r5,r5,r5
 8041018:	31bfffc4 	addi	r6,r6,-1
 804101c:	18c7883a 	add	r3,r3,r3
 8041020:	293ffa36 	bltu	r5,r4,804100c <__alt_data_end+0xfffc100c>
 8041024:	18000626 	beq	r3,zero,8041040 <__umodsi3+0x4c>
 8041028:	1806d07a 	srli	r3,r3,1
 804102c:	11400136 	bltu	r2,r5,8041034 <__umodsi3+0x40>
 8041030:	1145c83a 	sub	r2,r2,r5
 8041034:	280ad07a 	srli	r5,r5,1
 8041038:	183ffb1e 	bne	r3,zero,8041028 <__alt_data_end+0xfffc1028>
 804103c:	f800283a 	ret
 8041040:	f800283a 	ret
 8041044:	00c00044 	movi	r3,1
 8041048:	003ff706 	br	8041028 <__alt_data_end+0xfffc1028>

0804104c <__addsf3>:
 804104c:	defffc04 	addi	sp,sp,-16
 8041050:	2004d7fa 	srli	r2,r4,31
 8041054:	280cd5fa 	srli	r6,r5,23
 8041058:	dc000015 	stw	r16,0(sp)
 804105c:	00c02034 	movhi	r3,128
 8041060:	2020d5fa 	srli	r16,r4,23
 8041064:	280ed7fa 	srli	r7,r5,31
 8041068:	18ffffc4 	addi	r3,r3,-1
 804106c:	dc400115 	stw	r17,4(sp)
 8041070:	1908703a 	and	r4,r3,r4
 8041074:	194a703a 	and	r5,r3,r5
 8041078:	dfc00315 	stw	ra,12(sp)
 804107c:	dc800215 	stw	r18,8(sp)
 8041080:	14403fcc 	andi	r17,r2,255
 8041084:	84003fcc 	andi	r16,r16,255
 8041088:	200890fa 	slli	r4,r4,3
 804108c:	31803fcc 	andi	r6,r6,255
 8041090:	280a90fa 	slli	r5,r5,3
 8041094:	89c05026 	beq	r17,r7,80411d8 <__addsf3+0x18c>
 8041098:	8185c83a 	sub	r2,r16,r6
 804109c:	00807a0e 	bge	zero,r2,8041288 <__addsf3+0x23c>
 80410a0:	30001e1e 	bne	r6,zero,804111c <__addsf3+0xd0>
 80410a4:	28006d1e 	bne	r5,zero,804125c <__addsf3+0x210>
 80410a8:	208001cc 	andi	r2,r4,7
 80410ac:	10000426 	beq	r2,zero,80410c0 <__addsf3+0x74>
 80410b0:	208003cc 	andi	r2,r4,15
 80410b4:	00c00104 	movi	r3,4
 80410b8:	10c00126 	beq	r2,r3,80410c0 <__addsf3+0x74>
 80410bc:	20c9883a 	add	r4,r4,r3
 80410c0:	2081002c 	andhi	r2,r4,1024
 80410c4:	10003926 	beq	r2,zero,80411ac <__addsf3+0x160>
 80410c8:	84000044 	addi	r16,r16,1
 80410cc:	00803fc4 	movi	r2,255
 80410d0:	80807826 	beq	r16,r2,80412b4 <__addsf3+0x268>
 80410d4:	200891ba 	slli	r4,r4,6
 80410d8:	8805883a 	mov	r2,r17
 80410dc:	2008d27a 	srli	r4,r4,9
 80410e0:	84003fcc 	andi	r16,r16,255
 80410e4:	800695fa 	slli	r3,r16,23
 80410e8:	10803fcc 	andi	r2,r2,255
 80410ec:	04002034 	movhi	r16,128
 80410f0:	843fffc4 	addi	r16,r16,-1
 80410f4:	100497fa 	slli	r2,r2,31
 80410f8:	2408703a 	and	r4,r4,r16
 80410fc:	20e0b03a 	or	r16,r4,r3
 8041100:	8084b03a 	or	r2,r16,r2
 8041104:	dfc00317 	ldw	ra,12(sp)
 8041108:	dc800217 	ldw	r18,8(sp)
 804110c:	dc400117 	ldw	r17,4(sp)
 8041110:	dc000017 	ldw	r16,0(sp)
 8041114:	dec00404 	addi	sp,sp,16
 8041118:	f800283a 	ret
 804111c:	00c03fc4 	movi	r3,255
 8041120:	80ffe126 	beq	r16,r3,80410a8 <__alt_data_end+0xfffc10a8>
 8041124:	29410034 	orhi	r5,r5,1024
 8041128:	00c006c4 	movi	r3,27
 804112c:	18807516 	blt	r3,r2,8041304 <__addsf3+0x2b8>
 8041130:	00c00804 	movi	r3,32
 8041134:	1887c83a 	sub	r3,r3,r2
 8041138:	28c6983a 	sll	r3,r5,r3
 804113c:	288ad83a 	srl	r5,r5,r2
 8041140:	1804c03a 	cmpne	r2,r3,zero
 8041144:	288ab03a 	or	r5,r5,r2
 8041148:	2149c83a 	sub	r4,r4,r5
 804114c:	2081002c 	andhi	r2,r4,1024
 8041150:	10001426 	beq	r2,zero,80411a4 <__addsf3+0x158>
 8041154:	04810034 	movhi	r18,1024
 8041158:	94bfffc4 	addi	r18,r18,-1
 804115c:	24a4703a 	and	r18,r4,r18
 8041160:	9009883a 	mov	r4,r18
 8041164:	80416cc0 	call	80416cc <__clzsi2>
 8041168:	10bffec4 	addi	r2,r2,-5
 804116c:	90a4983a 	sll	r18,r18,r2
 8041170:	14005416 	blt	r2,r16,80412c4 <__addsf3+0x278>
 8041174:	1405c83a 	sub	r2,r2,r16
 8041178:	11000044 	addi	r4,r2,1
 804117c:	00800804 	movi	r2,32
 8041180:	1105c83a 	sub	r2,r2,r4
 8041184:	9084983a 	sll	r2,r18,r2
 8041188:	9124d83a 	srl	r18,r18,r4
 804118c:	0021883a 	mov	r16,zero
 8041190:	1008c03a 	cmpne	r4,r2,zero
 8041194:	9108b03a 	or	r4,r18,r4
 8041198:	003fc306 	br	80410a8 <__alt_data_end+0xfffc10a8>
 804119c:	1000db26 	beq	r2,zero,804150c <__addsf3+0x4c0>
 80411a0:	1009883a 	mov	r4,r2
 80411a4:	208001cc 	andi	r2,r4,7
 80411a8:	103fc11e 	bne	r2,zero,80410b0 <__alt_data_end+0xfffc10b0>
 80411ac:	2006d0fa 	srli	r3,r4,3
 80411b0:	01003fc4 	movi	r4,255
 80411b4:	8805883a 	mov	r2,r17
 80411b8:	8100241e 	bne	r16,r4,804124c <__addsf3+0x200>
 80411bc:	18006e26 	beq	r3,zero,8041378 <__addsf3+0x32c>
 80411c0:	19001034 	orhi	r4,r3,64
 80411c4:	00c02034 	movhi	r3,128
 80411c8:	18ffffc4 	addi	r3,r3,-1
 80411cc:	043fffc4 	movi	r16,-1
 80411d0:	20c8703a 	and	r4,r4,r3
 80411d4:	003fc206 	br	80410e0 <__alt_data_end+0xfffc10e0>
 80411d8:	8187c83a 	sub	r3,r16,r6
 80411dc:	00c03e0e 	bge	zero,r3,80412d8 <__addsf3+0x28c>
 80411e0:	30002326 	beq	r6,zero,8041270 <__addsf3+0x224>
 80411e4:	01803fc4 	movi	r6,255
 80411e8:	81bfaf26 	beq	r16,r6,80410a8 <__alt_data_end+0xfffc10a8>
 80411ec:	29410034 	orhi	r5,r5,1024
 80411f0:	018006c4 	movi	r6,27
 80411f4:	30c07416 	blt	r6,r3,80413c8 <__addsf3+0x37c>
 80411f8:	01800804 	movi	r6,32
 80411fc:	30cdc83a 	sub	r6,r6,r3
 8041200:	298c983a 	sll	r6,r5,r6
 8041204:	28cad83a 	srl	r5,r5,r3
 8041208:	3006c03a 	cmpne	r3,r6,zero
 804120c:	28cab03a 	or	r5,r5,r3
 8041210:	2149883a 	add	r4,r4,r5
 8041214:	20c1002c 	andhi	r3,r4,1024
 8041218:	183fe226 	beq	r3,zero,80411a4 <__alt_data_end+0xfffc11a4>
 804121c:	84000044 	addi	r16,r16,1
 8041220:	00c03fc4 	movi	r3,255
 8041224:	80c05426 	beq	r16,r3,8041378 <__addsf3+0x32c>
 8041228:	00bf0034 	movhi	r2,64512
 804122c:	10bfffc4 	addi	r2,r2,-1
 8041230:	20c0004c 	andi	r3,r4,1
 8041234:	2088703a 	and	r4,r4,r2
 8041238:	2008d07a 	srli	r4,r4,1
 804123c:	20c8b03a 	or	r4,r4,r3
 8041240:	003f9906 	br	80410a8 <__alt_data_end+0xfffc10a8>
 8041244:	0007883a 	mov	r3,zero
 8041248:	0005883a 	mov	r2,zero
 804124c:	01002034 	movhi	r4,128
 8041250:	213fffc4 	addi	r4,r4,-1
 8041254:	1908703a 	and	r4,r3,r4
 8041258:	003fa106 	br	80410e0 <__alt_data_end+0xfffc10e0>
 804125c:	10bfffc4 	addi	r2,r2,-1
 8041260:	103fb926 	beq	r2,zero,8041148 <__alt_data_end+0xfffc1148>
 8041264:	00c03fc4 	movi	r3,255
 8041268:	80ffaf1e 	bne	r16,r3,8041128 <__alt_data_end+0xfffc1128>
 804126c:	003f8e06 	br	80410a8 <__alt_data_end+0xfffc10a8>
 8041270:	283f8d26 	beq	r5,zero,80410a8 <__alt_data_end+0xfffc10a8>
 8041274:	18ffffc4 	addi	r3,r3,-1
 8041278:	183fe526 	beq	r3,zero,8041210 <__alt_data_end+0xfffc1210>
 804127c:	01803fc4 	movi	r6,255
 8041280:	81bfdb1e 	bne	r16,r6,80411f0 <__alt_data_end+0xfffc11f0>
 8041284:	003f8806 	br	80410a8 <__alt_data_end+0xfffc10a8>
 8041288:	1000201e 	bne	r2,zero,804130c <__addsf3+0x2c0>
 804128c:	80800044 	addi	r2,r16,1
 8041290:	10803fcc 	andi	r2,r2,255
 8041294:	01800044 	movi	r6,1
 8041298:	3080450e 	bge	r6,r2,80413b0 <__addsf3+0x364>
 804129c:	2165c83a 	sub	r18,r4,r5
 80412a0:	90c1002c 	andhi	r3,r18,1024
 80412a4:	18002b26 	beq	r3,zero,8041354 <__addsf3+0x308>
 80412a8:	2925c83a 	sub	r18,r5,r4
 80412ac:	3823883a 	mov	r17,r7
 80412b0:	003fab06 	br	8041160 <__alt_data_end+0xfffc1160>
 80412b4:	8805883a 	mov	r2,r17
 80412b8:	043fffc4 	movi	r16,-1
 80412bc:	0009883a 	mov	r4,zero
 80412c0:	003f8706 	br	80410e0 <__alt_data_end+0xfffc10e0>
 80412c4:	013f0034 	movhi	r4,64512
 80412c8:	213fffc4 	addi	r4,r4,-1
 80412cc:	80a1c83a 	sub	r16,r16,r2
 80412d0:	9108703a 	and	r4,r18,r4
 80412d4:	003f7406 	br	80410a8 <__alt_data_end+0xfffc10a8>
 80412d8:	1800411e 	bne	r3,zero,80413e0 <__addsf3+0x394>
 80412dc:	80c00044 	addi	r3,r16,1
 80412e0:	19c03fcc 	andi	r7,r3,255
 80412e4:	01800044 	movi	r6,1
 80412e8:	31c0260e 	bge	r6,r7,8041384 <__addsf3+0x338>
 80412ec:	01803fc4 	movi	r6,255
 80412f0:	19802126 	beq	r3,r6,8041378 <__addsf3+0x32c>
 80412f4:	2149883a 	add	r4,r4,r5
 80412f8:	2008d07a 	srli	r4,r4,1
 80412fc:	1821883a 	mov	r16,r3
 8041300:	003f6906 	br	80410a8 <__alt_data_end+0xfffc10a8>
 8041304:	01400044 	movi	r5,1
 8041308:	003f8f06 	br	8041148 <__alt_data_end+0xfffc1148>
 804130c:	8000151e 	bne	r16,zero,8041364 <__addsf3+0x318>
 8041310:	20002f26 	beq	r4,zero,80413d0 <__addsf3+0x384>
 8041314:	0084303a 	nor	r2,zero,r2
 8041318:	10000a26 	beq	r2,zero,8041344 <__addsf3+0x2f8>
 804131c:	00c03fc4 	movi	r3,255
 8041320:	30c02b26 	beq	r6,r3,80413d0 <__addsf3+0x384>
 8041324:	00c006c4 	movi	r3,27
 8041328:	18806d16 	blt	r3,r2,80414e0 <__addsf3+0x494>
 804132c:	00c00804 	movi	r3,32
 8041330:	1887c83a 	sub	r3,r3,r2
 8041334:	20c6983a 	sll	r3,r4,r3
 8041338:	2084d83a 	srl	r2,r4,r2
 804133c:	1808c03a 	cmpne	r4,r3,zero
 8041340:	1108b03a 	or	r4,r2,r4
 8041344:	2909c83a 	sub	r4,r5,r4
 8041348:	3021883a 	mov	r16,r6
 804134c:	3823883a 	mov	r17,r7
 8041350:	003f7e06 	br	804114c <__alt_data_end+0xfffc114c>
 8041354:	903f821e 	bne	r18,zero,8041160 <__alt_data_end+0xfffc1160>
 8041358:	0005883a 	mov	r2,zero
 804135c:	0021883a 	mov	r16,zero
 8041360:	003fba06 	br	804124c <__alt_data_end+0xfffc124c>
 8041364:	00c03fc4 	movi	r3,255
 8041368:	30c01926 	beq	r6,r3,80413d0 <__addsf3+0x384>
 804136c:	0085c83a 	sub	r2,zero,r2
 8041370:	21010034 	orhi	r4,r4,1024
 8041374:	003feb06 	br	8041324 <__alt_data_end+0xfffc1324>
 8041378:	043fffc4 	movi	r16,-1
 804137c:	0009883a 	mov	r4,zero
 8041380:	003f5706 	br	80410e0 <__alt_data_end+0xfffc10e0>
 8041384:	80004a1e 	bne	r16,zero,80414b0 <__addsf3+0x464>
 8041388:	20005926 	beq	r4,zero,80414f0 <__addsf3+0x4a4>
 804138c:	283f4626 	beq	r5,zero,80410a8 <__alt_data_end+0xfffc10a8>
 8041390:	2149883a 	add	r4,r4,r5
 8041394:	2081002c 	andhi	r2,r4,1024
 8041398:	103f8226 	beq	r2,zero,80411a4 <__alt_data_end+0xfffc11a4>
 804139c:	00bf0034 	movhi	r2,64512
 80413a0:	10bfffc4 	addi	r2,r2,-1
 80413a4:	3021883a 	mov	r16,r6
 80413a8:	2088703a 	and	r4,r4,r2
 80413ac:	003f3e06 	br	80410a8 <__alt_data_end+0xfffc10a8>
 80413b0:	8000121e 	bne	r16,zero,80413fc <__addsf3+0x3b0>
 80413b4:	2000261e 	bne	r4,zero,8041450 <__addsf3+0x404>
 80413b8:	283fa226 	beq	r5,zero,8041244 <__alt_data_end+0xfffc1244>
 80413bc:	2809883a 	mov	r4,r5
 80413c0:	3823883a 	mov	r17,r7
 80413c4:	003f3806 	br	80410a8 <__alt_data_end+0xfffc10a8>
 80413c8:	01400044 	movi	r5,1
 80413cc:	003f9006 	br	8041210 <__alt_data_end+0xfffc1210>
 80413d0:	2809883a 	mov	r4,r5
 80413d4:	3021883a 	mov	r16,r6
 80413d8:	3823883a 	mov	r17,r7
 80413dc:	003f3206 	br	80410a8 <__alt_data_end+0xfffc10a8>
 80413e0:	80000c1e 	bne	r16,zero,8041414 <__addsf3+0x3c8>
 80413e4:	20002f26 	beq	r4,zero,80414a4 <__addsf3+0x458>
 80413e8:	00c6303a 	nor	r3,zero,r3
 80413ec:	18002b1e 	bne	r3,zero,804149c <__addsf3+0x450>
 80413f0:	2149883a 	add	r4,r4,r5
 80413f4:	3021883a 	mov	r16,r6
 80413f8:	003f8606 	br	8041214 <__alt_data_end+0xfffc1214>
 80413fc:	20001b1e 	bne	r4,zero,804146c <__addsf3+0x420>
 8041400:	28003926 	beq	r5,zero,80414e8 <__addsf3+0x49c>
 8041404:	2809883a 	mov	r4,r5
 8041408:	3823883a 	mov	r17,r7
 804140c:	04003fc4 	movi	r16,255
 8041410:	003f2506 	br	80410a8 <__alt_data_end+0xfffc10a8>
 8041414:	01c03fc4 	movi	r7,255
 8041418:	31c02226 	beq	r6,r7,80414a4 <__addsf3+0x458>
 804141c:	00c7c83a 	sub	r3,zero,r3
 8041420:	21010034 	orhi	r4,r4,1024
 8041424:	01c006c4 	movi	r7,27
 8041428:	38c03616 	blt	r7,r3,8041504 <__addsf3+0x4b8>
 804142c:	01c00804 	movi	r7,32
 8041430:	38cfc83a 	sub	r7,r7,r3
 8041434:	21ce983a 	sll	r7,r4,r7
 8041438:	20c6d83a 	srl	r3,r4,r3
 804143c:	3808c03a 	cmpne	r4,r7,zero
 8041440:	1906b03a 	or	r3,r3,r4
 8041444:	1949883a 	add	r4,r3,r5
 8041448:	3021883a 	mov	r16,r6
 804144c:	003f7106 	br	8041214 <__alt_data_end+0xfffc1214>
 8041450:	283f1526 	beq	r5,zero,80410a8 <__alt_data_end+0xfffc10a8>
 8041454:	2145c83a 	sub	r2,r4,r5
 8041458:	10c1002c 	andhi	r3,r2,1024
 804145c:	183f4f26 	beq	r3,zero,804119c <__alt_data_end+0xfffc119c>
 8041460:	2909c83a 	sub	r4,r5,r4
 8041464:	3823883a 	mov	r17,r7
 8041468:	003f0f06 	br	80410a8 <__alt_data_end+0xfffc10a8>
 804146c:	28001a26 	beq	r5,zero,80414d8 <__addsf3+0x48c>
 8041470:	2008d0fa 	srli	r4,r4,3
 8041474:	2080102c 	andhi	r2,r4,64
 8041478:	10000526 	beq	r2,zero,8041490 <__addsf3+0x444>
 804147c:	280ad0fa 	srli	r5,r5,3
 8041480:	2880102c 	andhi	r2,r5,64
 8041484:	1000021e 	bne	r2,zero,8041490 <__addsf3+0x444>
 8041488:	2809883a 	mov	r4,r5
 804148c:	3823883a 	mov	r17,r7
 8041490:	200890fa 	slli	r4,r4,3
 8041494:	04003fc4 	movi	r16,255
 8041498:	003f0306 	br	80410a8 <__alt_data_end+0xfffc10a8>
 804149c:	01c03fc4 	movi	r7,255
 80414a0:	31ffe01e 	bne	r6,r7,8041424 <__alt_data_end+0xfffc1424>
 80414a4:	2809883a 	mov	r4,r5
 80414a8:	3021883a 	mov	r16,r6
 80414ac:	003efe06 	br	80410a8 <__alt_data_end+0xfffc10a8>
 80414b0:	20001126 	beq	r4,zero,80414f8 <__addsf3+0x4ac>
 80414b4:	28000826 	beq	r5,zero,80414d8 <__addsf3+0x48c>
 80414b8:	2008d0fa 	srli	r4,r4,3
 80414bc:	2080102c 	andhi	r2,r4,64
 80414c0:	103ff326 	beq	r2,zero,8041490 <__alt_data_end+0xfffc1490>
 80414c4:	280ad0fa 	srli	r5,r5,3
 80414c8:	2880102c 	andhi	r2,r5,64
 80414cc:	103ff01e 	bne	r2,zero,8041490 <__alt_data_end+0xfffc1490>
 80414d0:	2809883a 	mov	r4,r5
 80414d4:	003fee06 	br	8041490 <__alt_data_end+0xfffc1490>
 80414d8:	04003fc4 	movi	r16,255
 80414dc:	003ef206 	br	80410a8 <__alt_data_end+0xfffc10a8>
 80414e0:	01000044 	movi	r4,1
 80414e4:	003f9706 	br	8041344 <__alt_data_end+0xfffc1344>
 80414e8:	0005883a 	mov	r2,zero
 80414ec:	003f3406 	br	80411c0 <__alt_data_end+0xfffc11c0>
 80414f0:	2809883a 	mov	r4,r5
 80414f4:	003eec06 	br	80410a8 <__alt_data_end+0xfffc10a8>
 80414f8:	2809883a 	mov	r4,r5
 80414fc:	04003fc4 	movi	r16,255
 8041500:	003ee906 	br	80410a8 <__alt_data_end+0xfffc10a8>
 8041504:	00c00044 	movi	r3,1
 8041508:	003fce06 	br	8041444 <__alt_data_end+0xfffc1444>
 804150c:	0005883a 	mov	r2,zero
 8041510:	003f4e06 	br	804124c <__alt_data_end+0xfffc124c>

08041514 <__lesf2>:
 8041514:	2004d5fa 	srli	r2,r4,23
 8041518:	280cd5fa 	srli	r6,r5,23
 804151c:	00c02034 	movhi	r3,128
 8041520:	18ffffc4 	addi	r3,r3,-1
 8041524:	10803fcc 	andi	r2,r2,255
 8041528:	01c03fc4 	movi	r7,255
 804152c:	1910703a 	and	r8,r3,r4
 8041530:	31803fcc 	andi	r6,r6,255
 8041534:	1946703a 	and	r3,r3,r5
 8041538:	2008d7fa 	srli	r4,r4,31
 804153c:	280ad7fa 	srli	r5,r5,31
 8041540:	11c01b26 	beq	r2,r7,80415b0 <__lesf2+0x9c>
 8041544:	01c03fc4 	movi	r7,255
 8041548:	31c01126 	beq	r6,r7,8041590 <__lesf2+0x7c>
 804154c:	1000071e 	bne	r2,zero,804156c <__lesf2+0x58>
 8041550:	400f003a 	cmpeq	r7,r8,zero
 8041554:	21003fcc 	andi	r4,r4,255
 8041558:	3000081e 	bne	r6,zero,804157c <__lesf2+0x68>
 804155c:	1800071e 	bne	r3,zero,804157c <__lesf2+0x68>
 8041560:	0005883a 	mov	r2,zero
 8041564:	40000f1e 	bne	r8,zero,80415a4 <__lesf2+0x90>
 8041568:	f800283a 	ret
 804156c:	21003fcc 	andi	r4,r4,255
 8041570:	30000a1e 	bne	r6,zero,804159c <__lesf2+0x88>
 8041574:	18000b26 	beq	r3,zero,80415a4 <__lesf2+0x90>
 8041578:	000f883a 	mov	r7,zero
 804157c:	29403fcc 	andi	r5,r5,255
 8041580:	38000726 	beq	r7,zero,80415a0 <__lesf2+0x8c>
 8041584:	28000826 	beq	r5,zero,80415a8 <__lesf2+0x94>
 8041588:	00800044 	movi	r2,1
 804158c:	f800283a 	ret
 8041590:	183fee26 	beq	r3,zero,804154c <__alt_data_end+0xfffc154c>
 8041594:	00800084 	movi	r2,2
 8041598:	f800283a 	ret
 804159c:	29403fcc 	andi	r5,r5,255
 80415a0:	21400626 	beq	r4,r5,80415bc <__lesf2+0xa8>
 80415a4:	203ff826 	beq	r4,zero,8041588 <__alt_data_end+0xfffc1588>
 80415a8:	00bfffc4 	movi	r2,-1
 80415ac:	f800283a 	ret
 80415b0:	403fe426 	beq	r8,zero,8041544 <__alt_data_end+0xfffc1544>
 80415b4:	00800084 	movi	r2,2
 80415b8:	f800283a 	ret
 80415bc:	30bff916 	blt	r6,r2,80415a4 <__alt_data_end+0xfffc15a4>
 80415c0:	11800216 	blt	r2,r6,80415cc <__lesf2+0xb8>
 80415c4:	1a3ff736 	bltu	r3,r8,80415a4 <__alt_data_end+0xfffc15a4>
 80415c8:	40c0022e 	bgeu	r8,r3,80415d4 <__lesf2+0xc0>
 80415cc:	203fee1e 	bne	r4,zero,8041588 <__alt_data_end+0xfffc1588>
 80415d0:	003ff506 	br	80415a8 <__alt_data_end+0xfffc15a8>
 80415d4:	0005883a 	mov	r2,zero
 80415d8:	f800283a 	ret

080415dc <__floatunsisf>:
 80415dc:	defffe04 	addi	sp,sp,-8
 80415e0:	dfc00115 	stw	ra,4(sp)
 80415e4:	dc000015 	stw	r16,0(sp)
 80415e8:	20002c26 	beq	r4,zero,804169c <__floatunsisf+0xc0>
 80415ec:	2021883a 	mov	r16,r4
 80415f0:	80416cc0 	call	80416cc <__clzsi2>
 80415f4:	00c02784 	movi	r3,158
 80415f8:	1887c83a 	sub	r3,r3,r2
 80415fc:	01002584 	movi	r4,150
 8041600:	20c00f16 	blt	r4,r3,8041640 <__floatunsisf+0x64>
 8041604:	20c9c83a 	sub	r4,r4,r3
 8041608:	8108983a 	sll	r4,r16,r4
 804160c:	00802034 	movhi	r2,128
 8041610:	10bfffc4 	addi	r2,r2,-1
 8041614:	2088703a 	and	r4,r4,r2
 8041618:	18803fcc 	andi	r2,r3,255
 804161c:	100695fa 	slli	r3,r2,23
 8041620:	00802034 	movhi	r2,128
 8041624:	10bfffc4 	addi	r2,r2,-1
 8041628:	2084703a 	and	r2,r4,r2
 804162c:	10c4b03a 	or	r2,r2,r3
 8041630:	dfc00117 	ldw	ra,4(sp)
 8041634:	dc000017 	ldw	r16,0(sp)
 8041638:	dec00204 	addi	sp,sp,8
 804163c:	f800283a 	ret
 8041640:	01002644 	movi	r4,153
 8041644:	20c01816 	blt	r4,r3,80416a8 <__floatunsisf+0xcc>
 8041648:	20c9c83a 	sub	r4,r4,r3
 804164c:	8108983a 	sll	r4,r16,r4
 8041650:	017f0034 	movhi	r5,64512
 8041654:	297fffc4 	addi	r5,r5,-1
 8041658:	218001cc 	andi	r6,r4,7
 804165c:	214a703a 	and	r5,r4,r5
 8041660:	30000426 	beq	r6,zero,8041674 <__floatunsisf+0x98>
 8041664:	210003cc 	andi	r4,r4,15
 8041668:	01800104 	movi	r6,4
 804166c:	21800126 	beq	r4,r6,8041674 <__floatunsisf+0x98>
 8041670:	298b883a 	add	r5,r5,r6
 8041674:	2901002c 	andhi	r4,r5,1024
 8041678:	20000526 	beq	r4,zero,8041690 <__floatunsisf+0xb4>
 804167c:	00c027c4 	movi	r3,159
 8041680:	1887c83a 	sub	r3,r3,r2
 8041684:	00bf0034 	movhi	r2,64512
 8041688:	10bfffc4 	addi	r2,r2,-1
 804168c:	288a703a 	and	r5,r5,r2
 8041690:	280891ba 	slli	r4,r5,6
 8041694:	2008d27a 	srli	r4,r4,9
 8041698:	003fdf06 	br	8041618 <__alt_data_end+0xfffc1618>
 804169c:	0007883a 	mov	r3,zero
 80416a0:	0009883a 	mov	r4,zero
 80416a4:	003fdc06 	br	8041618 <__alt_data_end+0xfffc1618>
 80416a8:	01402e44 	movi	r5,185
 80416ac:	28cbc83a 	sub	r5,r5,r3
 80416b0:	01000144 	movi	r4,5
 80416b4:	2089c83a 	sub	r4,r4,r2
 80416b8:	814a983a 	sll	r5,r16,r5
 80416bc:	8108d83a 	srl	r4,r16,r4
 80416c0:	2820c03a 	cmpne	r16,r5,zero
 80416c4:	2408b03a 	or	r4,r4,r16
 80416c8:	003fe106 	br	8041650 <__alt_data_end+0xfffc1650>

080416cc <__clzsi2>:
 80416cc:	00bfffd4 	movui	r2,65535
 80416d0:	11000536 	bltu	r2,r4,80416e8 <__clzsi2+0x1c>
 80416d4:	00803fc4 	movi	r2,255
 80416d8:	11000f36 	bltu	r2,r4,8041718 <__clzsi2+0x4c>
 80416dc:	00800804 	movi	r2,32
 80416e0:	0007883a 	mov	r3,zero
 80416e4:	00000506 	br	80416fc <__clzsi2+0x30>
 80416e8:	00804034 	movhi	r2,256
 80416ec:	10bfffc4 	addi	r2,r2,-1
 80416f0:	11000c2e 	bgeu	r2,r4,8041724 <__clzsi2+0x58>
 80416f4:	00800204 	movi	r2,8
 80416f8:	00c00604 	movi	r3,24
 80416fc:	20c8d83a 	srl	r4,r4,r3
 8041700:	00c20134 	movhi	r3,2052
 8041704:	18dcd3c4 	addi	r3,r3,29519
 8041708:	1909883a 	add	r4,r3,r4
 804170c:	20c00003 	ldbu	r3,0(r4)
 8041710:	10c5c83a 	sub	r2,r2,r3
 8041714:	f800283a 	ret
 8041718:	00800604 	movi	r2,24
 804171c:	00c00204 	movi	r3,8
 8041720:	003ff606 	br	80416fc <__alt_data_end+0xfffc16fc>
 8041724:	00800404 	movi	r2,16
 8041728:	1007883a 	mov	r3,r2
 804172c:	003ff306 	br	80416fc <__alt_data_end+0xfffc16fc>

08041730 <clock>:
 8041730:	00820174 	movhi	r2,2053
 8041734:	10a3ea04 	addi	r2,r2,-28760
 8041738:	11000017 	ldw	r4,0(r2)
 804173c:	defffb04 	addi	sp,sp,-20
 8041740:	d80b883a 	mov	r5,sp
 8041744:	dfc00415 	stw	ra,16(sp)
 8041748:	804177c0 	call	804177c <_times_r>
 804174c:	00ffffc4 	movi	r3,-1
 8041750:	10c00726 	beq	r2,r3,8041770 <clock+0x40>
 8041754:	d8c00017 	ldw	r3,0(sp)
 8041758:	d8800117 	ldw	r2,4(sp)
 804175c:	1885883a 	add	r2,r3,r2
 8041760:	d8c00217 	ldw	r3,8(sp)
 8041764:	10c7883a 	add	r3,r2,r3
 8041768:	d8800317 	ldw	r2,12(sp)
 804176c:	1885883a 	add	r2,r3,r2
 8041770:	dfc00417 	ldw	ra,16(sp)
 8041774:	dec00504 	addi	sp,sp,20
 8041778:	f800283a 	ret

0804177c <_times_r>:
 804177c:	2809883a 	mov	r4,r5
 8041780:	8041e301 	jmpi	8041e30 <times>

08041784 <alt_ic_isr_register>:
  * @param irq              IRQ number
  * @return                 0 if successful, else error (-1)
  */
int alt_ic_isr_register(alt_u32 ic_id, alt_u32 irq, alt_isr_func isr, 
  void *isr_context, void *flags)
{
 8041784:	defff904 	addi	sp,sp,-28
 8041788:	dfc00615 	stw	ra,24(sp)
 804178c:	df000515 	stw	fp,20(sp)
 8041790:	df000504 	addi	fp,sp,20
 8041794:	e13ffc15 	stw	r4,-16(fp)
 8041798:	e17ffd15 	stw	r5,-12(fp)
 804179c:	e1bffe15 	stw	r6,-8(fp)
 80417a0:	e1ffff15 	stw	r7,-4(fp)
    return alt_iic_isr_register(ic_id, irq, isr, isr_context, flags);
 80417a4:	e0800217 	ldw	r2,8(fp)
 80417a8:	d8800015 	stw	r2,0(sp)
 80417ac:	e1ffff17 	ldw	r7,-4(fp)
 80417b0:	e1bffe17 	ldw	r6,-8(fp)
 80417b4:	e17ffd17 	ldw	r5,-12(fp)
 80417b8:	e13ffc17 	ldw	r4,-16(fp)
 80417bc:	80419340 	call	8041934 <alt_iic_isr_register>
}  
 80417c0:	e037883a 	mov	sp,fp
 80417c4:	dfc00117 	ldw	ra,4(sp)
 80417c8:	df000017 	ldw	fp,0(sp)
 80417cc:	dec00204 	addi	sp,sp,8
 80417d0:	f800283a 	ret

080417d4 <alt_ic_irq_enable>:
  * @param ic_id            Ignored.
  * @param irq              IRQ number
  * @return                 0 if successful, else error (-1)
  */
int alt_ic_irq_enable (alt_u32 ic_id, alt_u32 irq)
{
 80417d4:	defff904 	addi	sp,sp,-28
 80417d8:	df000615 	stw	fp,24(sp)
 80417dc:	df000604 	addi	fp,sp,24
 80417e0:	e13ffe15 	stw	r4,-8(fp)
 80417e4:	e17fff15 	stw	r5,-4(fp)
 80417e8:	e0bfff17 	ldw	r2,-4(fp)
 80417ec:	e0bffa15 	stw	r2,-24(fp)
static ALT_INLINE alt_irq_context ALT_ALWAYS_INLINE 
       alt_irq_disable_all (void)
{
  alt_irq_context context;

  NIOS2_READ_STATUS (context);
 80417f0:	0005303a 	rdctl	r2,status
 80417f4:	e0bffb15 	stw	r2,-20(fp)

  NIOS2_WRITE_STATUS (context & ~NIOS2_STATUS_PIE_MSK);
 80417f8:	e0fffb17 	ldw	r3,-20(fp)
 80417fc:	00bfff84 	movi	r2,-2
 8041800:	1884703a 	and	r2,r3,r2
 8041804:	1001703a 	wrctl	status,r2
  
  return context;
 8041808:	e0bffb17 	ldw	r2,-20(fp)
static ALT_INLINE int ALT_ALWAYS_INLINE alt_irq_enable (alt_u32 id)
{
  alt_irq_context  status;
  extern volatile alt_u32 alt_irq_active;

  status = alt_irq_disable_all ();
 804180c:	e0bffc15 	stw	r2,-16(fp)

  alt_irq_active |= (1 << id);
 8041810:	00c00044 	movi	r3,1
 8041814:	e0bffa17 	ldw	r2,-24(fp)
 8041818:	1884983a 	sll	r2,r3,r2
 804181c:	1007883a 	mov	r3,r2
 8041820:	d0a6e917 	ldw	r2,-25692(gp)
 8041824:	1884b03a 	or	r2,r3,r2
 8041828:	d0a6e915 	stw	r2,-25692(gp)
  NIOS2_WRITE_IENABLE (alt_irq_active);
 804182c:	d0a6e917 	ldw	r2,-25692(gp)
 8041830:	100170fa 	wrctl	ienable,r2
 8041834:	e0bffc17 	ldw	r2,-16(fp)
 8041838:	e0bffd15 	stw	r2,-12(fp)
  status &= ~NIOS2_STATUS_PIE_MSK;
  status |= (context & NIOS2_STATUS_PIE_MSK);
  
  NIOS2_WRITE_STATUS (status);
#else
  NIOS2_WRITE_STATUS (context);
 804183c:	e0bffd17 	ldw	r2,-12(fp)
 8041840:	1001703a 	wrctl	status,r2

  alt_irq_enable_all(status);

  return 0;
 8041844:	0005883a 	mov	r2,zero
    return alt_irq_enable(irq);
 8041848:	0001883a 	nop
}
 804184c:	e037883a 	mov	sp,fp
 8041850:	df000017 	ldw	fp,0(sp)
 8041854:	dec00104 	addi	sp,sp,4
 8041858:	f800283a 	ret

0804185c <alt_ic_irq_disable>:
  * @param ic_id            Ignored.
  * @param irq              IRQ number
  * @return                 0 if successful, else error (-1)
  */
int alt_ic_irq_disable(alt_u32 ic_id, alt_u32 irq)
{
 804185c:	defff904 	addi	sp,sp,-28
 8041860:	df000615 	stw	fp,24(sp)
 8041864:	df000604 	addi	fp,sp,24
 8041868:	e13ffe15 	stw	r4,-8(fp)
 804186c:	e17fff15 	stw	r5,-4(fp)
 8041870:	e0bfff17 	ldw	r2,-4(fp)
 8041874:	e0bffa15 	stw	r2,-24(fp)
static ALT_INLINE alt_irq_context ALT_ALWAYS_INLINE 
       alt_irq_disable_all (void)
{
  alt_irq_context context;

  NIOS2_READ_STATUS (context);
 8041878:	0005303a 	rdctl	r2,status
 804187c:	e0bffb15 	stw	r2,-20(fp)

  NIOS2_WRITE_STATUS (context & ~NIOS2_STATUS_PIE_MSK);
 8041880:	e0fffb17 	ldw	r3,-20(fp)
 8041884:	00bfff84 	movi	r2,-2
 8041888:	1884703a 	and	r2,r3,r2
 804188c:	1001703a 	wrctl	status,r2
  
  return context;
 8041890:	e0bffb17 	ldw	r2,-20(fp)
static ALT_INLINE int ALT_ALWAYS_INLINE alt_irq_disable (alt_u32 id)
{
  alt_irq_context  status;
  extern volatile alt_u32 alt_irq_active;

  status = alt_irq_disable_all ();
 8041894:	e0bffc15 	stw	r2,-16(fp)

  alt_irq_active &= ~(1 << id);
 8041898:	00c00044 	movi	r3,1
 804189c:	e0bffa17 	ldw	r2,-24(fp)
 80418a0:	1884983a 	sll	r2,r3,r2
 80418a4:	0084303a 	nor	r2,zero,r2
 80418a8:	1007883a 	mov	r3,r2
 80418ac:	d0a6e917 	ldw	r2,-25692(gp)
 80418b0:	1884703a 	and	r2,r3,r2
 80418b4:	d0a6e915 	stw	r2,-25692(gp)
  NIOS2_WRITE_IENABLE (alt_irq_active);
 80418b8:	d0a6e917 	ldw	r2,-25692(gp)
 80418bc:	100170fa 	wrctl	ienable,r2
 80418c0:	e0bffc17 	ldw	r2,-16(fp)
 80418c4:	e0bffd15 	stw	r2,-12(fp)
  status &= ~NIOS2_STATUS_PIE_MSK;
  status |= (context & NIOS2_STATUS_PIE_MSK);
  
  NIOS2_WRITE_STATUS (status);
#else
  NIOS2_WRITE_STATUS (context);
 80418c8:	e0bffd17 	ldw	r2,-12(fp)
 80418cc:	1001703a 	wrctl	status,r2

  alt_irq_enable_all(status);

  return 0;
 80418d0:	0005883a 	mov	r2,zero
    return alt_irq_disable(irq);
 80418d4:	0001883a 	nop
}
 80418d8:	e037883a 	mov	sp,fp
 80418dc:	df000017 	ldw	fp,0(sp)
 80418e0:	dec00104 	addi	sp,sp,4
 80418e4:	f800283a 	ret

080418e8 <alt_ic_irq_enabled>:
  * @param irq              IRQ number
  * @return                 Zero if corresponding interrupt is disabled and
  *                         non-zero otherwise.
  */
alt_u32 alt_ic_irq_enabled(alt_u32 ic_id, alt_u32 irq)
{
 80418e8:	defffc04 	addi	sp,sp,-16
 80418ec:	df000315 	stw	fp,12(sp)
 80418f0:	df000304 	addi	fp,sp,12
 80418f4:	e13ffe15 	stw	r4,-8(fp)
 80418f8:	e17fff15 	stw	r5,-4(fp)
    alt_u32 irq_enabled;

    NIOS2_READ_IENABLE(irq_enabled);
 80418fc:	000530fa 	rdctl	r2,ienable
 8041900:	e0bffd15 	stw	r2,-12(fp)

    return (irq_enabled & (1 << irq)) ? 1: 0;
 8041904:	00c00044 	movi	r3,1
 8041908:	e0bfff17 	ldw	r2,-4(fp)
 804190c:	1884983a 	sll	r2,r3,r2
 8041910:	1007883a 	mov	r3,r2
 8041914:	e0bffd17 	ldw	r2,-12(fp)
 8041918:	1884703a 	and	r2,r3,r2
 804191c:	1004c03a 	cmpne	r2,r2,zero
 8041920:	10803fcc 	andi	r2,r2,255
}
 8041924:	e037883a 	mov	sp,fp
 8041928:	df000017 	ldw	fp,0(sp)
 804192c:	dec00104 	addi	sp,sp,4
 8041930:	f800283a 	ret

08041934 <alt_iic_isr_register>:
  * @param flags            
  * @return                 0 if successful, else error (-1)
  */
int alt_iic_isr_register(alt_u32 ic_id, alt_u32 irq, alt_isr_func isr, 
  void *isr_context, void *flags)
{
 8041934:	defff504 	addi	sp,sp,-44
 8041938:	dfc00a15 	stw	ra,40(sp)
 804193c:	df000915 	stw	fp,36(sp)
 8041940:	df000904 	addi	fp,sp,36
 8041944:	e13ffc15 	stw	r4,-16(fp)
 8041948:	e17ffd15 	stw	r5,-12(fp)
 804194c:	e1bffe15 	stw	r6,-8(fp)
 8041950:	e1ffff15 	stw	r7,-4(fp)
  int rc = -EINVAL;  
 8041954:	00bffa84 	movi	r2,-22
 8041958:	e0bff715 	stw	r2,-36(fp)
  int id = irq;             /* IRQ interpreted as the interrupt ID. */
 804195c:	e0bffd17 	ldw	r2,-12(fp)
 8041960:	e0bff815 	stw	r2,-32(fp)
  alt_irq_context status;

  if (id < ALT_NIRQ)
 8041964:	e0bff817 	ldw	r2,-32(fp)
 8041968:	10800808 	cmpgei	r2,r2,32
 804196c:	1000271e 	bne	r2,zero,8041a0c <alt_iic_isr_register+0xd8>
static ALT_INLINE alt_irq_context ALT_ALWAYS_INLINE 
       alt_irq_disable_all (void)
{
  alt_irq_context context;

  NIOS2_READ_STATUS (context);
 8041970:	0005303a 	rdctl	r2,status
 8041974:	e0bffb15 	stw	r2,-20(fp)

  NIOS2_WRITE_STATUS (context & ~NIOS2_STATUS_PIE_MSK);
 8041978:	e0fffb17 	ldw	r3,-20(fp)
 804197c:	00bfff84 	movi	r2,-2
 8041980:	1884703a 	and	r2,r3,r2
 8041984:	1001703a 	wrctl	status,r2
  
  return context;
 8041988:	e0bffb17 	ldw	r2,-20(fp)
     * interrupts are disabled while the handler tables are updated to ensure
     * that an interrupt doesn't occur while the tables are in an inconsistant
     * state.
     */

    status = alt_irq_disable_all();
 804198c:	e0bffa15 	stw	r2,-24(fp)

    alt_irq[id].handler = isr;
 8041990:	00820174 	movhi	r2,2053
 8041994:	10aadf04 	addi	r2,r2,-21636
 8041998:	e0fff817 	ldw	r3,-32(fp)
 804199c:	180690fa 	slli	r3,r3,3
 80419a0:	10c5883a 	add	r2,r2,r3
 80419a4:	e0fffe17 	ldw	r3,-8(fp)
 80419a8:	10c00015 	stw	r3,0(r2)
    alt_irq[id].context = isr_context;
 80419ac:	00820174 	movhi	r2,2053
 80419b0:	10aadf04 	addi	r2,r2,-21636
 80419b4:	e0fff817 	ldw	r3,-32(fp)
 80419b8:	180690fa 	slli	r3,r3,3
 80419bc:	10c5883a 	add	r2,r2,r3
 80419c0:	10800104 	addi	r2,r2,4
 80419c4:	e0ffff17 	ldw	r3,-4(fp)
 80419c8:	10c00015 	stw	r3,0(r2)

    rc = (isr) ? alt_ic_irq_enable(ic_id, id) : alt_ic_irq_disable(ic_id, id);
 80419cc:	e0bffe17 	ldw	r2,-8(fp)
 80419d0:	10000526 	beq	r2,zero,80419e8 <alt_iic_isr_register+0xb4>
 80419d4:	e0bff817 	ldw	r2,-32(fp)
 80419d8:	100b883a 	mov	r5,r2
 80419dc:	e13ffc17 	ldw	r4,-16(fp)
 80419e0:	80417d40 	call	80417d4 <alt_ic_irq_enable>
 80419e4:	00000406 	br	80419f8 <alt_iic_isr_register+0xc4>
 80419e8:	e0bff817 	ldw	r2,-32(fp)
 80419ec:	100b883a 	mov	r5,r2
 80419f0:	e13ffc17 	ldw	r4,-16(fp)
 80419f4:	804185c0 	call	804185c <alt_ic_irq_disable>
 80419f8:	e0bff715 	stw	r2,-36(fp)
 80419fc:	e0bffa17 	ldw	r2,-24(fp)
 8041a00:	e0bff915 	stw	r2,-28(fp)
  status &= ~NIOS2_STATUS_PIE_MSK;
  status |= (context & NIOS2_STATUS_PIE_MSK);
  
  NIOS2_WRITE_STATUS (status);
#else
  NIOS2_WRITE_STATUS (context);
 8041a04:	e0bff917 	ldw	r2,-28(fp)
 8041a08:	1001703a 	wrctl	status,r2

    alt_irq_enable_all(status);
  }

  return rc; 
 8041a0c:	e0bff717 	ldw	r2,-36(fp)
}
 8041a10:	e037883a 	mov	sp,fp
 8041a14:	dfc00117 	ldw	ra,4(sp)
 8041a18:	df000017 	ldw	fp,0(sp)
 8041a1c:	dec00204 	addi	sp,sp,8
 8041a20:	f800283a 	ret

08041a24 <alt_load_section>:
 */

static void ALT_INLINE alt_load_section (alt_u32* from, 
                                         alt_u32* to, 
                                         alt_u32* end)
{
 8041a24:	defffc04 	addi	sp,sp,-16
 8041a28:	df000315 	stw	fp,12(sp)
 8041a2c:	df000304 	addi	fp,sp,12
 8041a30:	e13ffd15 	stw	r4,-12(fp)
 8041a34:	e17ffe15 	stw	r5,-8(fp)
 8041a38:	e1bfff15 	stw	r6,-4(fp)
  if (to != from)
 8041a3c:	e0fffe17 	ldw	r3,-8(fp)
 8041a40:	e0bffd17 	ldw	r2,-12(fp)
 8041a44:	18800c26 	beq	r3,r2,8041a78 <alt_load_section+0x54>
  {
    while( to != end )
 8041a48:	00000806 	br	8041a6c <alt_load_section+0x48>
    {
      *to++ = *from++;
 8041a4c:	e0bffe17 	ldw	r2,-8(fp)
 8041a50:	10c00104 	addi	r3,r2,4
 8041a54:	e0fffe15 	stw	r3,-8(fp)
 8041a58:	e0fffd17 	ldw	r3,-12(fp)
 8041a5c:	19000104 	addi	r4,r3,4
 8041a60:	e13ffd15 	stw	r4,-12(fp)
 8041a64:	18c00017 	ldw	r3,0(r3)
 8041a68:	10c00015 	stw	r3,0(r2)
                                         alt_u32* to, 
                                         alt_u32* end)
{
  if (to != from)
  {
    while( to != end )
 8041a6c:	e0fffe17 	ldw	r3,-8(fp)
 8041a70:	e0bfff17 	ldw	r2,-4(fp)
 8041a74:	18bff51e 	bne	r3,r2,8041a4c <__alt_data_end+0xfffc1a4c>
    {
      *to++ = *from++;
    }
  }
}
 8041a78:	0001883a 	nop
 8041a7c:	e037883a 	mov	sp,fp
 8041a80:	df000017 	ldw	fp,0(sp)
 8041a84:	dec00104 	addi	sp,sp,4
 8041a88:	f800283a 	ret

08041a8c <alt_load>:
 * there is no bootloader, so this application is responsible for loading to
 * RAM any sections that are required.
 */  

void alt_load (void)
{
 8041a8c:	defffe04 	addi	sp,sp,-8
 8041a90:	dfc00115 	stw	ra,4(sp)
 8041a94:	df000015 	stw	fp,0(sp)
 8041a98:	d839883a 	mov	fp,sp
  /* 
   * Copy the .rwdata section. 
   */

  alt_load_section (&__flash_rwdata_start, 
 8041a9c:	01820174 	movhi	r6,2053
 8041aa0:	31a3f704 	addi	r6,r6,-28708
 8041aa4:	01420134 	movhi	r5,2052
 8041aa8:	295d3104 	addi	r5,r5,29892
 8041aac:	01020174 	movhi	r4,2053
 8041ab0:	2123f704 	addi	r4,r4,-28708
 8041ab4:	8041a240 	call	8041a24 <alt_load_section>

  /*
   * Copy the exception handler.
   */

  alt_load_section (&__flash_exceptions_start, 
 8041ab8:	01820134 	movhi	r6,2052
 8041abc:	31809104 	addi	r6,r6,580
 8041ac0:	01420134 	movhi	r5,2052
 8041ac4:	29400804 	addi	r5,r5,32
 8041ac8:	01020134 	movhi	r4,2052
 8041acc:	21000804 	addi	r4,r4,32
 8041ad0:	8041a240 	call	8041a24 <alt_load_section>

  /*
   * Copy the .rodata section.
   */

  alt_load_section (&__flash_rodata_start, 
 8041ad4:	01820134 	movhi	r6,2052
 8041ad8:	319d3104 	addi	r6,r6,29892
 8041adc:	01420134 	movhi	r5,2052
 8041ae0:	295cae04 	addi	r5,r5,29368
 8041ae4:	01020134 	movhi	r4,2052
 8041ae8:	211cae04 	addi	r4,r4,29368
 8041aec:	8041a240 	call	8041a24 <alt_load_section>
  
  /*
   * Now ensure that the caches are in synch.
   */
  
  alt_dcache_flush_all();
 8041af0:	8043bd40 	call	8043bd4 <alt_dcache_flush_all>
  alt_icache_flush_all();
 8041af4:	8043e780 	call	8043e78 <alt_icache_flush_all>
}
 8041af8:	0001883a 	nop
 8041afc:	e037883a 	mov	sp,fp
 8041b00:	dfc00117 	ldw	ra,4(sp)
 8041b04:	df000017 	ldw	fp,0(sp)
 8041b08:	dec00204 	addi	sp,sp,8
 8041b0c:	f800283a 	ret

08041b10 <alt_main>:
 * devices/filesystems/components in the system; and call the entry point for
 * the users application, i.e. main().
 */

void alt_main (void)
{
 8041b10:	defffd04 	addi	sp,sp,-12
 8041b14:	dfc00215 	stw	ra,8(sp)
 8041b18:	df000115 	stw	fp,4(sp)
 8041b1c:	df000104 	addi	fp,sp,4
#endif

  /* ALT LOG - please see HAL/sys/alt_log_printf.h for details */
  ALT_LOG_PRINT_BOOT("[alt_main.c] Entering alt_main, calling alt_irq_init.\r\n");
  /* Initialize the interrupt controller. */
  alt_irq_init (NULL);
 8041b20:	0009883a 	mov	r4,zero
 8041b24:	8041edc0 	call	8041edc <alt_irq_init>

  /* Initialize the operating system */
  ALT_LOG_PRINT_BOOT("[alt_main.c] Done alt_irq_init, calling alt_os_init.\r\n");
  ALT_OS_INIT();
 8041b28:	0001883a 	nop
  ALT_LOG_PRINT_BOOT("[alt_main.c] Done OS Init, calling alt_sem_create.\r\n");
  ALT_SEM_CREATE (&alt_fd_list_lock, 1);

  /* Initialize the device drivers/software components. */
  ALT_LOG_PRINT_BOOT("[alt_main.c] Calling alt_sys_init.\r\n");
  alt_sys_init();
 8041b2c:	8041f140 	call	8041f14 <alt_sys_init>
   * devices be present (not equal to /dev/null) and if direct drivers
   * aren't being used.
   */

    ALT_LOG_PRINT_BOOT("[alt_main.c] Redirecting IO.\r\n");
    alt_io_redirect(ALT_STDOUT, ALT_STDIN, ALT_STDERR);
 8041b30:	01820134 	movhi	r6,2052
 8041b34:	319d1504 	addi	r6,r6,29780
 8041b38:	01420134 	movhi	r5,2052
 8041b3c:	295d1504 	addi	r5,r5,29780
 8041b40:	01020134 	movhi	r4,2052
 8041b44:	211d1504 	addi	r4,r4,29780
 8041b48:	804400c0 	call	804400c <alt_io_redirect>
  /* 
   * Call the C++ constructors 
   */

  ALT_LOG_PRINT_BOOT("[alt_main.c] Calling C++ constructors.\r\n");
  _do_ctors ();
 8041b4c:	8043d280 	call	8043d28 <_do_ctors>
   * redefined as _exit()). This is in the interest of reducing code footprint,
   * in that the atexit() overhead is removed when it's not needed.
   */

  ALT_LOG_PRINT_BOOT("[alt_main.c] Calling atexit.\r\n");
  atexit (_do_dtors);
 8041b50:	01020134 	movhi	r4,2052
 8041b54:	210f6204 	addi	r4,r4,15752
 8041b58:	80447440 	call	8044744 <atexit>
  ALT_LOG_PRINT_BOOT("[alt_main.c] Calling main.\r\n");

#ifdef ALT_NO_EXIT
  main (alt_argc, alt_argv, alt_envp);
#else
  result = main (alt_argc, alt_argv, alt_envp);
 8041b5c:	d0a6ea17 	ldw	r2,-25688(gp)
 8041b60:	d0e6eb17 	ldw	r3,-25684(gp)
 8041b64:	d126ec17 	ldw	r4,-25680(gp)
 8041b68:	200d883a 	mov	r6,r4
 8041b6c:	180b883a 	mov	r5,r3
 8041b70:	1009883a 	mov	r4,r2
 8041b74:	80408bc0 	call	80408bc <main>
 8041b78:	e0bfff15 	stw	r2,-4(fp)
  close(STDOUT_FILENO);
 8041b7c:	01000044 	movi	r4,1
 8041b80:	8043b040 	call	8043b04 <close>
  exit (result);
 8041b84:	e13fff17 	ldw	r4,-4(fp)
 8041b88:	80447580 	call	8044758 <exit>

08041b8c <alt_printf>:
/* 
 * ALT printf function 
 */
void 
alt_printf(const char* fmt, ... )
{
 8041b8c:	defff204 	addi	sp,sp,-56
 8041b90:	dfc00a15 	stw	ra,40(sp)
 8041b94:	df000915 	stw	fp,36(sp)
 8041b98:	df000904 	addi	fp,sp,36
 8041b9c:	e13fff15 	stw	r4,-4(fp)
 8041ba0:	e1400215 	stw	r5,8(fp)
 8041ba4:	e1800315 	stw	r6,12(fp)
 8041ba8:	e1c00415 	stw	r7,16(fp)
	va_list args;
	va_start(args, fmt);
 8041bac:	e0800204 	addi	r2,fp,8
 8041bb0:	e0bffe15 	stw	r2,-8(fp)
    const char *w;
    char c;

    /* Process format string. */
    w = fmt;
 8041bb4:	e0bfff17 	ldw	r2,-4(fp)
 8041bb8:	e0bff715 	stw	r2,-36(fp)
    while ((c = *w++) != 0)
 8041bbc:	00006f06 	br	8041d7c <alt_printf+0x1f0>
    {
        /* If not a format escape character, just print  */
        /* character.  Otherwise, process format string. */
        if (c != '%')
 8041bc0:	e0bff807 	ldb	r2,-32(fp)
 8041bc4:	10800960 	cmpeqi	r2,r2,37
 8041bc8:	1000041e 	bne	r2,zero,8041bdc <alt_printf+0x50>
        {
            alt_putchar(c);
 8041bcc:	e0bff807 	ldb	r2,-32(fp)
 8041bd0:	1009883a 	mov	r4,r2
 8041bd4:	8041db80 	call	8041db8 <alt_putchar>
 8041bd8:	00006806 	br	8041d7c <alt_printf+0x1f0>
        }
        else
        {
            /* Get format character.  If none     */
            /* available, processing is complete. */
            if ((c = *w++) != 0)
 8041bdc:	e0bff717 	ldw	r2,-36(fp)
 8041be0:	10c00044 	addi	r3,r2,1
 8041be4:	e0fff715 	stw	r3,-36(fp)
 8041be8:	10800003 	ldbu	r2,0(r2)
 8041bec:	e0bff805 	stb	r2,-32(fp)
 8041bf0:	e0bff807 	ldb	r2,-32(fp)
 8041bf4:	10006926 	beq	r2,zero,8041d9c <alt_printf+0x210>
            {
                if (c == '%')
 8041bf8:	e0bff807 	ldb	r2,-32(fp)
 8041bfc:	10800958 	cmpnei	r2,r2,37
 8041c00:	1000041e 	bne	r2,zero,8041c14 <alt_printf+0x88>
                {
                    /* Process "%" escape sequence. */
                    alt_putchar(c);
 8041c04:	e0bff807 	ldb	r2,-32(fp)
 8041c08:	1009883a 	mov	r4,r2
 8041c0c:	8041db80 	call	8041db8 <alt_putchar>
 8041c10:	00005a06 	br	8041d7c <alt_printf+0x1f0>
                } 
                else if (c == 'c')
 8041c14:	e0bff807 	ldb	r2,-32(fp)
 8041c18:	108018d8 	cmpnei	r2,r2,99
 8041c1c:	1000081e 	bne	r2,zero,8041c40 <alt_printf+0xb4>
                {
                    int v = va_arg(args, int);
 8041c20:	e0bffe17 	ldw	r2,-8(fp)
 8041c24:	10c00104 	addi	r3,r2,4
 8041c28:	e0fffe15 	stw	r3,-8(fp)
 8041c2c:	10800017 	ldw	r2,0(r2)
 8041c30:	e0bffd15 	stw	r2,-12(fp)
                    alt_putchar(v);
 8041c34:	e13ffd17 	ldw	r4,-12(fp)
 8041c38:	8041db80 	call	8041db8 <alt_putchar>
 8041c3c:	00004f06 	br	8041d7c <alt_printf+0x1f0>
                }
                else if (c == 'x')
 8041c40:	e0bff807 	ldb	r2,-32(fp)
 8041c44:	10801e18 	cmpnei	r2,r2,120
 8041c48:	1000341e 	bne	r2,zero,8041d1c <alt_printf+0x190>
                {
                    /* Process hexadecimal number format. */
                    unsigned long v = va_arg(args, unsigned long);
 8041c4c:	e0bffe17 	ldw	r2,-8(fp)
 8041c50:	10c00104 	addi	r3,r2,4
 8041c54:	e0fffe15 	stw	r3,-8(fp)
 8041c58:	10800017 	ldw	r2,0(r2)
 8041c5c:	e0bffb15 	stw	r2,-20(fp)
                    unsigned long digit;
                    int digit_shift;

                    /* If the number value is zero, just print and continue. */
                    if (v == 0)
 8041c60:	e0bffb17 	ldw	r2,-20(fp)
 8041c64:	1000031e 	bne	r2,zero,8041c74 <alt_printf+0xe8>
                    {
                        alt_putchar('0');
 8041c68:	01000c04 	movi	r4,48
 8041c6c:	8041db80 	call	8041db8 <alt_putchar>
                        continue;
 8041c70:	00004206 	br	8041d7c <alt_printf+0x1f0>
                    }

                    /* Find first non-zero digit. */
                    digit_shift = 28;
 8041c74:	00800704 	movi	r2,28
 8041c78:	e0bff915 	stw	r2,-28(fp)
                    while (!(v & (0xF << digit_shift)))
 8041c7c:	00000306 	br	8041c8c <alt_printf+0x100>
                        digit_shift -= 4;
 8041c80:	e0bff917 	ldw	r2,-28(fp)
 8041c84:	10bfff04 	addi	r2,r2,-4
 8041c88:	e0bff915 	stw	r2,-28(fp)
                        continue;
                    }

                    /* Find first non-zero digit. */
                    digit_shift = 28;
                    while (!(v & (0xF << digit_shift)))
 8041c8c:	00c003c4 	movi	r3,15
 8041c90:	e0bff917 	ldw	r2,-28(fp)
 8041c94:	1884983a 	sll	r2,r3,r2
 8041c98:	1007883a 	mov	r3,r2
 8041c9c:	e0bffb17 	ldw	r2,-20(fp)
 8041ca0:	1884703a 	and	r2,r3,r2
 8041ca4:	103ff626 	beq	r2,zero,8041c80 <__alt_data_end+0xfffc1c80>
                        digit_shift -= 4;

                    /* Print digits. */
                    for (; digit_shift >= 0; digit_shift -= 4)
 8041ca8:	00001906 	br	8041d10 <alt_printf+0x184>
                    {
                        digit = (v & (0xF << digit_shift)) >> digit_shift;
 8041cac:	00c003c4 	movi	r3,15
 8041cb0:	e0bff917 	ldw	r2,-28(fp)
 8041cb4:	1884983a 	sll	r2,r3,r2
 8041cb8:	1007883a 	mov	r3,r2
 8041cbc:	e0bffb17 	ldw	r2,-20(fp)
 8041cc0:	1886703a 	and	r3,r3,r2
 8041cc4:	e0bff917 	ldw	r2,-28(fp)
 8041cc8:	1884d83a 	srl	r2,r3,r2
 8041ccc:	e0bffc15 	stw	r2,-16(fp)
                        if (digit <= 9)
 8041cd0:	e0bffc17 	ldw	r2,-16(fp)
 8041cd4:	108002a8 	cmpgeui	r2,r2,10
 8041cd8:	1000041e 	bne	r2,zero,8041cec <alt_printf+0x160>
                            c = '0' + digit;
 8041cdc:	e0bffc17 	ldw	r2,-16(fp)
 8041ce0:	10800c04 	addi	r2,r2,48
 8041ce4:	e0bff805 	stb	r2,-32(fp)
 8041ce8:	00000306 	br	8041cf8 <alt_printf+0x16c>
                        else
                            c = 'a' + digit - 10;
 8041cec:	e0bffc17 	ldw	r2,-16(fp)
 8041cf0:	108015c4 	addi	r2,r2,87
 8041cf4:	e0bff805 	stb	r2,-32(fp)
                        alt_putchar(c);
 8041cf8:	e0bff807 	ldb	r2,-32(fp)
 8041cfc:	1009883a 	mov	r4,r2
 8041d00:	8041db80 	call	8041db8 <alt_putchar>
                    digit_shift = 28;
                    while (!(v & (0xF << digit_shift)))
                        digit_shift -= 4;

                    /* Print digits. */
                    for (; digit_shift >= 0; digit_shift -= 4)
 8041d04:	e0bff917 	ldw	r2,-28(fp)
 8041d08:	10bfff04 	addi	r2,r2,-4
 8041d0c:	e0bff915 	stw	r2,-28(fp)
 8041d10:	e0bff917 	ldw	r2,-28(fp)
 8041d14:	103fe50e 	bge	r2,zero,8041cac <__alt_data_end+0xfffc1cac>
 8041d18:	00001806 	br	8041d7c <alt_printf+0x1f0>
                        else
                            c = 'a' + digit - 10;
                        alt_putchar(c);
                    }
                }
                else if (c == 's')
 8041d1c:	e0bff807 	ldb	r2,-32(fp)
 8041d20:	10801cd8 	cmpnei	r2,r2,115
 8041d24:	1000151e 	bne	r2,zero,8041d7c <alt_printf+0x1f0>
                {
                    /* Process string format. */
                    char *s = va_arg(args, char *);
 8041d28:	e0bffe17 	ldw	r2,-8(fp)
 8041d2c:	10c00104 	addi	r3,r2,4
 8041d30:	e0fffe15 	stw	r3,-8(fp)
 8041d34:	10800017 	ldw	r2,0(r2)
 8041d38:	e0bffa15 	stw	r2,-24(fp)

                    while(*s)
 8041d3c:	00000906 	br	8041d64 <alt_printf+0x1d8>
                      alt_putchar(*s++);
 8041d40:	e0bffa17 	ldw	r2,-24(fp)
 8041d44:	10c00044 	addi	r3,r2,1
 8041d48:	e0fffa15 	stw	r3,-24(fp)
 8041d4c:	10800003 	ldbu	r2,0(r2)
 8041d50:	10803fcc 	andi	r2,r2,255
 8041d54:	1080201c 	xori	r2,r2,128
 8041d58:	10bfe004 	addi	r2,r2,-128
 8041d5c:	1009883a 	mov	r4,r2
 8041d60:	8041db80 	call	8041db8 <alt_putchar>
                else if (c == 's')
                {
                    /* Process string format. */
                    char *s = va_arg(args, char *);

                    while(*s)
 8041d64:	e0bffa17 	ldw	r2,-24(fp)
 8041d68:	10800003 	ldbu	r2,0(r2)
 8041d6c:	10803fcc 	andi	r2,r2,255
 8041d70:	1080201c 	xori	r2,r2,128
 8041d74:	10bfe004 	addi	r2,r2,-128
 8041d78:	103ff11e 	bne	r2,zero,8041d40 <__alt_data_end+0xfffc1d40>
    const char *w;
    char c;

    /* Process format string. */
    w = fmt;
    while ((c = *w++) != 0)
 8041d7c:	e0bff717 	ldw	r2,-36(fp)
 8041d80:	10c00044 	addi	r3,r2,1
 8041d84:	e0fff715 	stw	r3,-36(fp)
 8041d88:	10800003 	ldbu	r2,0(r2)
 8041d8c:	e0bff805 	stb	r2,-32(fp)
 8041d90:	e0bff807 	ldb	r2,-32(fp)
 8041d94:	103f8a1e 	bne	r2,zero,8041bc0 <__alt_data_end+0xfffc1bc0>
        }
    }
#ifdef ALT_SEMIHOSTING
    alt_putbufflush();
#endif
}
 8041d98:	00000106 	br	8041da0 <alt_printf+0x214>
                      alt_putchar(*s++);
                }
            }
            else
            {
                break;
 8041d9c:	0001883a 	nop
        }
    }
#ifdef ALT_SEMIHOSTING
    alt_putbufflush();
#endif
}
 8041da0:	0001883a 	nop
 8041da4:	e037883a 	mov	sp,fp
 8041da8:	dfc00117 	ldw	ra,4(sp)
 8041dac:	df000017 	ldw	fp,0(sp)
 8041db0:	dec00504 	addi	sp,sp,20
 8041db4:	f800283a 	ret

08041db8 <alt_putchar>:
 * Uses the ALT_DRIVER_WRITE() macro to call directly to driver if available.
 * Otherwise, uses newlib provided putchar() routine.
 */
int 
alt_putchar(int c)
{
 8041db8:	defffd04 	addi	sp,sp,-12
 8041dbc:	dfc00215 	stw	ra,8(sp)
 8041dc0:	df000115 	stw	fp,4(sp)
 8041dc4:	df000104 	addi	fp,sp,4
 8041dc8:	e13fff15 	stw	r4,-4(fp)
    if (ALT_DRIVER_WRITE(ALT_STDOUT_DEV, &c1, 1, 0) == -1) {
        return -1;
    }
    return c;
#else
    return putchar(c);
 8041dcc:	d0a00917 	ldw	r2,-32732(gp)
 8041dd0:	10800217 	ldw	r2,8(r2)
 8041dd4:	100b883a 	mov	r5,r2
 8041dd8:	e13fff17 	ldw	r4,-4(fp)
 8041ddc:	80449f40 	call	80449f4 <putc>
#endif
#endif
}
 8041de0:	e037883a 	mov	sp,fp
 8041de4:	dfc00117 	ldw	ra,4(sp)
 8041de8:	df000017 	ldw	fp,0(sp)
 8041dec:	dec00204 	addi	sp,sp,8
 8041df0:	f800283a 	ret

08041df4 <alt_get_errno>:
#undef errno

extern int errno;

static ALT_INLINE int* alt_get_errno(void)
{
 8041df4:	defffe04 	addi	sp,sp,-8
 8041df8:	dfc00115 	stw	ra,4(sp)
 8041dfc:	df000015 	stw	fp,0(sp)
 8041e00:	d839883a 	mov	fp,sp
  return ((alt_errno) ? alt_errno() : &errno);
 8041e04:	d0a01017 	ldw	r2,-32704(gp)
 8041e08:	10000326 	beq	r2,zero,8041e18 <alt_get_errno+0x24>
 8041e0c:	d0a01017 	ldw	r2,-32704(gp)
 8041e10:	103ee83a 	callr	r2
 8041e14:	00000106 	br	8041e1c <alt_get_errno+0x28>
 8041e18:	d0a6f004 	addi	r2,gp,-25664
}
 8041e1c:	e037883a 	mov	sp,fp
 8041e20:	dfc00117 	ldw	ra,4(sp)
 8041e24:	df000017 	ldw	fp,0(sp)
 8041e28:	dec00204 	addi	sp,sp,8
 8041e2c:	f800283a 	ret

08041e30 <times>:
 *
 * ALT_TIMES is mapped onto the times() system call in alt_syscall.h
 */
 
clock_t ALT_TIMES (struct tms *buf)
{
 8041e30:	defffc04 	addi	sp,sp,-16
 8041e34:	dfc00315 	stw	ra,12(sp)
 8041e38:	df000215 	stw	fp,8(sp)
 8041e3c:	df000204 	addi	fp,sp,8
 8041e40:	e13fff15 	stw	r4,-4(fp)
 * alt_nticks() returns the elapsed number of system clock ticks since reset.
 */

static ALT_INLINE alt_u32 ALT_ALWAYS_INLINE alt_nticks (void)
{
  return _alt_nticks;
 8041e44:	d0a6ef17 	ldw	r2,-25668(gp)
  clock_t ticks = alt_nticks(); 
 8041e48:	e0bffe15 	stw	r2,-8(fp)
 * Obtain the system clock rate in ticks/s. 
 */

static ALT_INLINE alt_u32 ALT_ALWAYS_INLINE alt_ticks_per_second (void)
{
  return _alt_tick_rate;
 8041e4c:	d0a6ee17 	ldw	r2,-25672(gp)

  /* If there is no system clock present, generate an error */

  if (!alt_ticks_per_second())
 8041e50:	1000061e 	bne	r2,zero,8041e6c <times+0x3c>
  {
    ALT_ERRNO = ENOSYS;
 8041e54:	8041df40 	call	8041df4 <alt_get_errno>
 8041e58:	1007883a 	mov	r3,r2
 8041e5c:	00801604 	movi	r2,88
 8041e60:	18800015 	stw	r2,0(r3)
    return 0;
 8041e64:	0005883a 	mov	r2,zero
 8041e68:	00000a06 	br	8041e94 <times+0x64>
  }

  /* Otherwise return the elapsed time */

  buf->tms_utime  = 0;
 8041e6c:	e0bfff17 	ldw	r2,-4(fp)
 8041e70:	10000015 	stw	zero,0(r2)
  buf->tms_stime  = ticks;
 8041e74:	e0bfff17 	ldw	r2,-4(fp)
 8041e78:	e0fffe17 	ldw	r3,-8(fp)
 8041e7c:	10c00115 	stw	r3,4(r2)
  buf->tms_cutime = 0;
 8041e80:	e0bfff17 	ldw	r2,-4(fp)
 8041e84:	10000215 	stw	zero,8(r2)
  buf->tms_cstime = 0;
 8041e88:	e0bfff17 	ldw	r2,-4(fp)
 8041e8c:	10000315 	stw	zero,12(r2)

  return ticks;
 8041e90:	e0bffe17 	ldw	r2,-8(fp)
}
 8041e94:	e037883a 	mov	sp,fp
 8041e98:	dfc00117 	ldw	ra,4(sp)
 8041e9c:	df000017 	ldw	fp,0(sp)
 8041ea0:	dec00204 	addi	sp,sp,8
 8041ea4:	f800283a 	ret

08041ea8 <alt_dev_reg>:
 */

extern int alt_fs_reg  (alt_dev* dev); 

static ALT_INLINE int alt_dev_reg (alt_dev* dev)
{
 8041ea8:	defffd04 	addi	sp,sp,-12
 8041eac:	dfc00215 	stw	ra,8(sp)
 8041eb0:	df000115 	stw	fp,4(sp)
 8041eb4:	df000104 	addi	fp,sp,4
 8041eb8:	e13fff15 	stw	r4,-4(fp)
  extern alt_llist alt_dev_list;

  return alt_dev_llist_insert ((alt_dev_llist*) dev, &alt_dev_list);
 8041ebc:	d1600d04 	addi	r5,gp,-32716
 8041ec0:	e13fff17 	ldw	r4,-4(fp)
 8041ec4:	8043c840 	call	8043c84 <alt_dev_llist_insert>
}
 8041ec8:	e037883a 	mov	sp,fp
 8041ecc:	dfc00117 	ldw	ra,4(sp)
 8041ed0:	df000017 	ldw	fp,0(sp)
 8041ed4:	dec00204 	addi	sp,sp,8
 8041ed8:	f800283a 	ret

08041edc <alt_irq_init>:
 * The "base" parameter is ignored and only
 * present for backwards-compatibility.
 */

void alt_irq_init ( const void* base )
{
 8041edc:	defffd04 	addi	sp,sp,-12
 8041ee0:	dfc00215 	stw	ra,8(sp)
 8041ee4:	df000115 	stw	fp,4(sp)
 8041ee8:	df000104 	addi	fp,sp,4
 8041eec:	e13fff15 	stw	r4,-4(fp)
    ALTERA_NIOS2_GEN2_IRQ_INIT ( NIOS2_GEN2_0, nios2_gen2_0);
 8041ef0:	80444e40 	call	80444e4 <altera_nios2_gen2_irq_init>
 * alt_irq_cpu_enable_interrupts() enables the CPU to start taking interrupts.
 */
static ALT_INLINE void ALT_ALWAYS_INLINE 
       alt_irq_cpu_enable_interrupts (void)
{
    NIOS2_WRITE_STATUS(NIOS2_STATUS_PIE_MSK
 8041ef4:	00800044 	movi	r2,1
 8041ef8:	1001703a 	wrctl	status,r2
    alt_irq_cpu_enable_interrupts();
}
 8041efc:	0001883a 	nop
 8041f00:	e037883a 	mov	sp,fp
 8041f04:	dfc00117 	ldw	ra,4(sp)
 8041f08:	df000017 	ldw	fp,0(sp)
 8041f0c:	dec00204 	addi	sp,sp,8
 8041f10:	f800283a 	ret

08041f14 <alt_sys_init>:
 * Initialize the non-interrupt controller devices.
 * Called after alt_irq_init().
 */

void alt_sys_init( void )
{
 8041f14:	defffe04 	addi	sp,sp,-8
 8041f18:	dfc00115 	stw	ra,4(sp)
 8041f1c:	df000015 	stw	fp,0(sp)
 8041f20:	d839883a 	mov	fp,sp
    ALTERA_AVALON_TIMER_INIT ( TIMER_0, timer_0);
 8041f24:	01c0fa04 	movi	r7,1000
 8041f28:	01800044 	movi	r6,1
 8041f2c:	000b883a 	mov	r5,zero
 8041f30:	01020234 	movhi	r4,2056
 8041f34:	21043004 	addi	r4,r4,4288
 8041f38:	8042a7c0 	call	8042a7c <alt_avalon_timer_sc_init>
    ALTERA_AVALON_JTAG_UART_INIT ( JTAG_UART_0, jtag_uart_0);
 8041f3c:	000d883a 	mov	r6,zero
 8041f40:	000b883a 	mov	r5,zero
 8041f44:	01020134 	movhi	r4,2052
 8041f48:	211e4404 	addi	r4,r4,30992
 8041f4c:	80421000 	call	8042100 <altera_avalon_jtag_uart_init>
 8041f50:	01020134 	movhi	r4,2052
 8041f54:	211e3a04 	addi	r4,r4,30952
 8041f58:	8041ea80 	call	8041ea8 <alt_dev_reg>
    ALTERA_AVALON_SYSID_QSYS_INIT ( SYSID_QSYS_0, sysid_qsys_0);
 8041f5c:	0001883a 	nop
    ALTERA_UP_AVALON_ADC_INIT ( ADC_0, adc_0);
 8041f60:	01020174 	movhi	r4,2053
 8041f64:	21225204 	addi	r4,r4,-30392
 8041f68:	8041ea80 	call	8041ea8 <alt_dev_reg>
    ALTERA_UP_AVALON_AUDIO_AND_VIDEO_CONFIG_INIT ( AUDIO_AND_VIDEO_CONFIG_0, audio_and_video_config_0);
 8041f6c:	01020174 	movhi	r4,2053
 8041f70:	21225d04 	addi	r4,r4,-30348
 8041f74:	8041ea80 	call	8041ea8 <alt_dev_reg>
    ALTERA_UP_AVALON_AUDIO_INIT ( AUDIO_0, audio_0);
 8041f78:	01020174 	movhi	r4,2053
 8041f7c:	21226904 	addi	r4,r4,-30300
 8041f80:	8041ea80 	call	8041ea8 <alt_dev_reg>
}
 8041f84:	0001883a 	nop
 8041f88:	e037883a 	mov	sp,fp
 8041f8c:	dfc00117 	ldw	ra,4(sp)
 8041f90:	df000017 	ldw	fp,0(sp)
 8041f94:	dec00204 	addi	sp,sp,8
 8041f98:	f800283a 	ret

08041f9c <altera_avalon_jtag_uart_read_fd>:
 *
 */

int 
altera_avalon_jtag_uart_read_fd(alt_fd* fd, char* buffer, int space)
{
 8041f9c:	defffa04 	addi	sp,sp,-24
 8041fa0:	dfc00515 	stw	ra,20(sp)
 8041fa4:	df000415 	stw	fp,16(sp)
 8041fa8:	df000404 	addi	fp,sp,16
 8041fac:	e13ffd15 	stw	r4,-12(fp)
 8041fb0:	e17ffe15 	stw	r5,-8(fp)
 8041fb4:	e1bfff15 	stw	r6,-4(fp)
    altera_avalon_jtag_uart_dev* dev = (altera_avalon_jtag_uart_dev*) fd->dev; 
 8041fb8:	e0bffd17 	ldw	r2,-12(fp)
 8041fbc:	10800017 	ldw	r2,0(r2)
 8041fc0:	e0bffc15 	stw	r2,-16(fp)

    return altera_avalon_jtag_uart_read(&dev->state, buffer, space,
 8041fc4:	e0bffc17 	ldw	r2,-16(fp)
 8041fc8:	10c00a04 	addi	r3,r2,40
 8041fcc:	e0bffd17 	ldw	r2,-12(fp)
 8041fd0:	10800217 	ldw	r2,8(r2)
 8041fd4:	100f883a 	mov	r7,r2
 8041fd8:	e1bfff17 	ldw	r6,-4(fp)
 8041fdc:	e17ffe17 	ldw	r5,-8(fp)
 8041fe0:	1809883a 	mov	r4,r3
 8041fe4:	80425c40 	call	80425c4 <altera_avalon_jtag_uart_read>
      fd->fd_flags);
}
 8041fe8:	e037883a 	mov	sp,fp
 8041fec:	dfc00117 	ldw	ra,4(sp)
 8041ff0:	df000017 	ldw	fp,0(sp)
 8041ff4:	dec00204 	addi	sp,sp,8
 8041ff8:	f800283a 	ret

08041ffc <altera_avalon_jtag_uart_write_fd>:

int 
altera_avalon_jtag_uart_write_fd(alt_fd* fd, const char* buffer, int space)
{
 8041ffc:	defffa04 	addi	sp,sp,-24
 8042000:	dfc00515 	stw	ra,20(sp)
 8042004:	df000415 	stw	fp,16(sp)
 8042008:	df000404 	addi	fp,sp,16
 804200c:	e13ffd15 	stw	r4,-12(fp)
 8042010:	e17ffe15 	stw	r5,-8(fp)
 8042014:	e1bfff15 	stw	r6,-4(fp)
    altera_avalon_jtag_uart_dev* dev = (altera_avalon_jtag_uart_dev*) fd->dev; 
 8042018:	e0bffd17 	ldw	r2,-12(fp)
 804201c:	10800017 	ldw	r2,0(r2)
 8042020:	e0bffc15 	stw	r2,-16(fp)

    return altera_avalon_jtag_uart_write(&dev->state, buffer, space,
 8042024:	e0bffc17 	ldw	r2,-16(fp)
 8042028:	10c00a04 	addi	r3,r2,40
 804202c:	e0bffd17 	ldw	r2,-12(fp)
 8042030:	10800217 	ldw	r2,8(r2)
 8042034:	100f883a 	mov	r7,r2
 8042038:	e1bfff17 	ldw	r6,-4(fp)
 804203c:	e17ffe17 	ldw	r5,-8(fp)
 8042040:	1809883a 	mov	r4,r3
 8042044:	80427e00 	call	80427e0 <altera_avalon_jtag_uart_write>
      fd->fd_flags);
}
 8042048:	e037883a 	mov	sp,fp
 804204c:	dfc00117 	ldw	ra,4(sp)
 8042050:	df000017 	ldw	fp,0(sp)
 8042054:	dec00204 	addi	sp,sp,8
 8042058:	f800283a 	ret

0804205c <altera_avalon_jtag_uart_close_fd>:

#ifndef ALTERA_AVALON_JTAG_UART_SMALL

int 
altera_avalon_jtag_uart_close_fd(alt_fd* fd)
{
 804205c:	defffc04 	addi	sp,sp,-16
 8042060:	dfc00315 	stw	ra,12(sp)
 8042064:	df000215 	stw	fp,8(sp)
 8042068:	df000204 	addi	fp,sp,8
 804206c:	e13fff15 	stw	r4,-4(fp)
    altera_avalon_jtag_uart_dev* dev = (altera_avalon_jtag_uart_dev*) fd->dev; 
 8042070:	e0bfff17 	ldw	r2,-4(fp)
 8042074:	10800017 	ldw	r2,0(r2)
 8042078:	e0bffe15 	stw	r2,-8(fp)

    return altera_avalon_jtag_uart_close(&dev->state, fd->fd_flags);
 804207c:	e0bffe17 	ldw	r2,-8(fp)
 8042080:	10c00a04 	addi	r3,r2,40
 8042084:	e0bfff17 	ldw	r2,-4(fp)
 8042088:	10800217 	ldw	r2,8(r2)
 804208c:	100b883a 	mov	r5,r2
 8042090:	1809883a 	mov	r4,r3
 8042094:	804246c0 	call	804246c <altera_avalon_jtag_uart_close>
}
 8042098:	e037883a 	mov	sp,fp
 804209c:	dfc00117 	ldw	ra,4(sp)
 80420a0:	df000017 	ldw	fp,0(sp)
 80420a4:	dec00204 	addi	sp,sp,8
 80420a8:	f800283a 	ret

080420ac <altera_avalon_jtag_uart_ioctl_fd>:

int 
altera_avalon_jtag_uart_ioctl_fd(alt_fd* fd, int req, void* arg)
{
 80420ac:	defffa04 	addi	sp,sp,-24
 80420b0:	dfc00515 	stw	ra,20(sp)
 80420b4:	df000415 	stw	fp,16(sp)
 80420b8:	df000404 	addi	fp,sp,16
 80420bc:	e13ffd15 	stw	r4,-12(fp)
 80420c0:	e17ffe15 	stw	r5,-8(fp)
 80420c4:	e1bfff15 	stw	r6,-4(fp)
    altera_avalon_jtag_uart_dev* dev = (altera_avalon_jtag_uart_dev*) fd->dev;
 80420c8:	e0bffd17 	ldw	r2,-12(fp)
 80420cc:	10800017 	ldw	r2,0(r2)
 80420d0:	e0bffc15 	stw	r2,-16(fp)

    return altera_avalon_jtag_uart_ioctl(&dev->state, req, arg);
 80420d4:	e0bffc17 	ldw	r2,-16(fp)
 80420d8:	10800a04 	addi	r2,r2,40
 80420dc:	e1bfff17 	ldw	r6,-4(fp)
 80420e0:	e17ffe17 	ldw	r5,-8(fp)
 80420e4:	1009883a 	mov	r4,r2
 80420e8:	80424d40 	call	80424d4 <altera_avalon_jtag_uart_ioctl>
}
 80420ec:	e037883a 	mov	sp,fp
 80420f0:	dfc00117 	ldw	ra,4(sp)
 80420f4:	df000017 	ldw	fp,0(sp)
 80420f8:	dec00204 	addi	sp,sp,8
 80420fc:	f800283a 	ret

08042100 <altera_avalon_jtag_uart_init>:
 * Return 1 on sucessful IRQ register and 0 on failure.
 */

void altera_avalon_jtag_uart_init(altera_avalon_jtag_uart_state* sp, 
                                  int irq_controller_id, int irq)
{
 8042100:	defffa04 	addi	sp,sp,-24
 8042104:	dfc00515 	stw	ra,20(sp)
 8042108:	df000415 	stw	fp,16(sp)
 804210c:	df000404 	addi	fp,sp,16
 8042110:	e13ffd15 	stw	r4,-12(fp)
 8042114:	e17ffe15 	stw	r5,-8(fp)
 8042118:	e1bfff15 	stw	r6,-4(fp)
  ALT_FLAG_CREATE(&sp->events, 0);
  ALT_SEM_CREATE(&sp->read_lock, 1);
  ALT_SEM_CREATE(&sp->write_lock, 1);

  /* enable read interrupts at the device */
  sp->irq_enable = ALTERA_AVALON_JTAG_UART_CONTROL_RE_MSK;
 804211c:	e0bffd17 	ldw	r2,-12(fp)
 8042120:	00c00044 	movi	r3,1
 8042124:	10c00815 	stw	r3,32(r2)

  IOWR_ALTERA_AVALON_JTAG_UART_CONTROL(sp->base, sp->irq_enable); 
 8042128:	e0bffd17 	ldw	r2,-12(fp)
 804212c:	10800017 	ldw	r2,0(r2)
 8042130:	10800104 	addi	r2,r2,4
 8042134:	1007883a 	mov	r3,r2
 8042138:	e0bffd17 	ldw	r2,-12(fp)
 804213c:	10800817 	ldw	r2,32(r2)
 8042140:	18800035 	stwio	r2,0(r3)
  
  /* register the interrupt handler */
#ifdef ALT_ENHANCED_INTERRUPT_API_PRESENT
  alt_ic_isr_register(irq_controller_id, irq, altera_avalon_jtag_uart_irq, 
 8042144:	e0bffe17 	ldw	r2,-8(fp)
 8042148:	e0ffff17 	ldw	r3,-4(fp)
 804214c:	d8000015 	stw	zero,0(sp)
 8042150:	e1fffd17 	ldw	r7,-12(fp)
 8042154:	01820134 	movhi	r6,2052
 8042158:	31887004 	addi	r6,r6,8640
 804215c:	180b883a 	mov	r5,r3
 8042160:	1009883a 	mov	r4,r2
 8042164:	80417840 	call	8041784 <alt_ic_isr_register>
#else
  alt_irq_register(irq, sp, altera_avalon_jtag_uart_irq);
#endif  

  /* Register an alarm to go off every second to check for presence of host */
  sp->host_inactive = 0;
 8042168:	e0bffd17 	ldw	r2,-12(fp)
 804216c:	10000915 	stw	zero,36(r2)

  if (alt_alarm_start(&sp->alarm, alt_ticks_per_second(), 
 8042170:	e0bffd17 	ldw	r2,-12(fp)
 8042174:	10800204 	addi	r2,r2,8
 8042178:	d0e6ee17 	ldw	r3,-25672(gp)
 804217c:	e1fffd17 	ldw	r7,-12(fp)
 8042180:	01820134 	movhi	r6,2052
 8042184:	3188f304 	addi	r6,r6,9164
 8042188:	180b883a 	mov	r5,r3
 804218c:	1009883a 	mov	r4,r2
 8042190:	804399c0 	call	804399c <alt_alarm_start>
 8042194:	1000040e 	bge	r2,zero,80421a8 <altera_avalon_jtag_uart_init+0xa8>
    &altera_avalon_jtag_uart_timeout, sp) < 0)
  {
    /* If we can't set the alarm then record "don't know if host present" 
     * and behave as though the host is present.
     */
    sp->timeout = INT_MAX;
 8042198:	e0fffd17 	ldw	r3,-12(fp)
 804219c:	00a00034 	movhi	r2,32768
 80421a0:	10bfffc4 	addi	r2,r2,-1
 80421a4:	18800115 	stw	r2,4(r3)
  }

  /* ALT_LOG - see altera_hal/HAL/inc/sys/alt_log_printf.h */ 
  ALT_LOG_JTAG_UART_ALARM_REGISTER(sp, sp->base);
}
 80421a8:	0001883a 	nop
 80421ac:	e037883a 	mov	sp,fp
 80421b0:	dfc00117 	ldw	ra,4(sp)
 80421b4:	df000017 	ldw	fp,0(sp)
 80421b8:	dec00204 	addi	sp,sp,8
 80421bc:	f800283a 	ret

080421c0 <altera_avalon_jtag_uart_irq>:
#ifdef ALT_ENHANCED_INTERRUPT_API_PRESENT
static void altera_avalon_jtag_uart_irq(void* context)
#else
static void altera_avalon_jtag_uart_irq(void* context, alt_u32 id)
#endif
{
 80421c0:	defff804 	addi	sp,sp,-32
 80421c4:	df000715 	stw	fp,28(sp)
 80421c8:	df000704 	addi	fp,sp,28
 80421cc:	e13fff15 	stw	r4,-4(fp)
  altera_avalon_jtag_uart_state* sp = (altera_avalon_jtag_uart_state*) context;
 80421d0:	e0bfff17 	ldw	r2,-4(fp)
 80421d4:	e0bffb15 	stw	r2,-20(fp)
  unsigned int base = sp->base;
 80421d8:	e0bffb17 	ldw	r2,-20(fp)
 80421dc:	10800017 	ldw	r2,0(r2)
 80421e0:	e0bffc15 	stw	r2,-16(fp)
  /* ALT_LOG - see altera_hal/HAL/inc/sys/alt_log_printf.h */ 
  ALT_LOG_JTAG_UART_ISR_FUNCTION(base, sp);

  for ( ; ; )
  {
    unsigned int control = IORD_ALTERA_AVALON_JTAG_UART_CONTROL(base);
 80421e4:	e0bffc17 	ldw	r2,-16(fp)
 80421e8:	10800104 	addi	r2,r2,4
 80421ec:	10800037 	ldwio	r2,0(r2)
 80421f0:	e0bffd15 	stw	r2,-12(fp)

    /* Return once nothing more to do */
    if ((control & (ALTERA_AVALON_JTAG_UART_CONTROL_RI_MSK | ALTERA_AVALON_JTAG_UART_CONTROL_WI_MSK)) == 0)
 80421f4:	e0bffd17 	ldw	r2,-12(fp)
 80421f8:	1080c00c 	andi	r2,r2,768
 80421fc:	10006d26 	beq	r2,zero,80423b4 <altera_avalon_jtag_uart_irq+0x1f4>
      break;

    if (control & ALTERA_AVALON_JTAG_UART_CONTROL_RI_MSK)
 8042200:	e0bffd17 	ldw	r2,-12(fp)
 8042204:	1080400c 	andi	r2,r2,256
 8042208:	10003526 	beq	r2,zero,80422e0 <altera_avalon_jtag_uart_irq+0x120>
    {
      /* process a read irq.  Start by assuming that there is data in the
       * receive FIFO (otherwise why would we have been interrupted?)
       */
      unsigned int data = 1 << ALTERA_AVALON_JTAG_UART_DATA_RAVAIL_OFST;
 804220c:	00800074 	movhi	r2,1
 8042210:	e0bff915 	stw	r2,-28(fp)
      for ( ; ; )
      {
        /* Check whether there is space in the buffer.  If not then we must not
         * read any characters from the buffer as they will be lost.
         */
        unsigned int next = (sp->rx_in + 1) % ALTERA_AVALON_JTAG_UART_BUF_LEN;
 8042214:	e0bffb17 	ldw	r2,-20(fp)
 8042218:	10800a17 	ldw	r2,40(r2)
 804221c:	10800044 	addi	r2,r2,1
 8042220:	1081ffcc 	andi	r2,r2,2047
 8042224:	e0bffe15 	stw	r2,-8(fp)
        if (next == sp->rx_out)
 8042228:	e0bffb17 	ldw	r2,-20(fp)
 804222c:	10c00b17 	ldw	r3,44(r2)
 8042230:	e0bffe17 	ldw	r2,-8(fp)
 8042234:	18801526 	beq	r3,r2,804228c <altera_avalon_jtag_uart_irq+0xcc>
          break;

        /* Try to remove a character from the FIFO and find out whether there
         * are any more characters remaining.
         */
        data = IORD_ALTERA_AVALON_JTAG_UART_DATA(base);
 8042238:	e0bffc17 	ldw	r2,-16(fp)
 804223c:	10800037 	ldwio	r2,0(r2)
 8042240:	e0bff915 	stw	r2,-28(fp)
        
        if ((data & ALTERA_AVALON_JTAG_UART_DATA_RVALID_MSK) == 0)
 8042244:	e0bff917 	ldw	r2,-28(fp)
 8042248:	10a0000c 	andi	r2,r2,32768
 804224c:	10001126 	beq	r2,zero,8042294 <altera_avalon_jtag_uart_irq+0xd4>
          break;

        sp->rx_buf[sp->rx_in] = (data & ALTERA_AVALON_JTAG_UART_DATA_DATA_MSK) >> ALTERA_AVALON_JTAG_UART_DATA_DATA_OFST;
 8042250:	e0bffb17 	ldw	r2,-20(fp)
 8042254:	10800a17 	ldw	r2,40(r2)
 8042258:	e0fff917 	ldw	r3,-28(fp)
 804225c:	1809883a 	mov	r4,r3
 8042260:	e0fffb17 	ldw	r3,-20(fp)
 8042264:	1885883a 	add	r2,r3,r2
 8042268:	10800e04 	addi	r2,r2,56
 804226c:	11000005 	stb	r4,0(r2)
        sp->rx_in = (sp->rx_in + 1) % ALTERA_AVALON_JTAG_UART_BUF_LEN;
 8042270:	e0bffb17 	ldw	r2,-20(fp)
 8042274:	10800a17 	ldw	r2,40(r2)
 8042278:	10800044 	addi	r2,r2,1
 804227c:	10c1ffcc 	andi	r3,r2,2047
 8042280:	e0bffb17 	ldw	r2,-20(fp)
 8042284:	10c00a15 	stw	r3,40(r2)

        /* Post an event to notify jtag_uart_read that a character has been read */
        ALT_FLAG_POST (sp->events, ALT_JTAG_UART_READ_RDY, OS_FLAG_SET);
      }
 8042288:	003fe206 	br	8042214 <__alt_data_end+0xfffc2214>
        /* Check whether there is space in the buffer.  If not then we must not
         * read any characters from the buffer as they will be lost.
         */
        unsigned int next = (sp->rx_in + 1) % ALTERA_AVALON_JTAG_UART_BUF_LEN;
        if (next == sp->rx_out)
          break;
 804228c:	0001883a 	nop
 8042290:	00000106 	br	8042298 <altera_avalon_jtag_uart_irq+0xd8>
         * are any more characters remaining.
         */
        data = IORD_ALTERA_AVALON_JTAG_UART_DATA(base);
        
        if ((data & ALTERA_AVALON_JTAG_UART_DATA_RVALID_MSK) == 0)
          break;
 8042294:	0001883a 	nop

        /* Post an event to notify jtag_uart_read that a character has been read */
        ALT_FLAG_POST (sp->events, ALT_JTAG_UART_READ_RDY, OS_FLAG_SET);
      }

      if (data & ALTERA_AVALON_JTAG_UART_DATA_RAVAIL_MSK)
 8042298:	e0bff917 	ldw	r2,-28(fp)
 804229c:	10bfffec 	andhi	r2,r2,65535
 80422a0:	10000f26 	beq	r2,zero,80422e0 <altera_avalon_jtag_uart_irq+0x120>
      {
        /* If there is still data available here then the buffer is full 
         * so turn off receive interrupts until some space becomes available.
         */
        sp->irq_enable &= ~ALTERA_AVALON_JTAG_UART_CONTROL_RE_MSK;
 80422a4:	e0bffb17 	ldw	r2,-20(fp)
 80422a8:	10c00817 	ldw	r3,32(r2)
 80422ac:	00bfff84 	movi	r2,-2
 80422b0:	1886703a 	and	r3,r3,r2
 80422b4:	e0bffb17 	ldw	r2,-20(fp)
 80422b8:	10c00815 	stw	r3,32(r2)
        IOWR_ALTERA_AVALON_JTAG_UART_CONTROL(base, sp->irq_enable);
 80422bc:	e0bffc17 	ldw	r2,-16(fp)
 80422c0:	10800104 	addi	r2,r2,4
 80422c4:	1007883a 	mov	r3,r2
 80422c8:	e0bffb17 	ldw	r2,-20(fp)
 80422cc:	10800817 	ldw	r2,32(r2)
 80422d0:	18800035 	stwio	r2,0(r3)
        
        /* Dummy read to ensure IRQ is cleared prior to ISR completion */
        IORD_ALTERA_AVALON_JTAG_UART_CONTROL(base);
 80422d4:	e0bffc17 	ldw	r2,-16(fp)
 80422d8:	10800104 	addi	r2,r2,4
 80422dc:	10800037 	ldwio	r2,0(r2)
      }
    }

    if (control & ALTERA_AVALON_JTAG_UART_CONTROL_WI_MSK)
 80422e0:	e0bffd17 	ldw	r2,-12(fp)
 80422e4:	1080800c 	andi	r2,r2,512
 80422e8:	103fbe26 	beq	r2,zero,80421e4 <__alt_data_end+0xfffc21e4>
    {
      /* process a write irq */
      unsigned int space = (control & ALTERA_AVALON_JTAG_UART_CONTROL_WSPACE_MSK) >> ALTERA_AVALON_JTAG_UART_CONTROL_WSPACE_OFST;
 80422ec:	e0bffd17 	ldw	r2,-12(fp)
 80422f0:	1004d43a 	srli	r2,r2,16
 80422f4:	e0bffa15 	stw	r2,-24(fp)

      while (space > 0 && sp->tx_out != sp->tx_in)
 80422f8:	00001406 	br	804234c <altera_avalon_jtag_uart_irq+0x18c>
      {
        IOWR_ALTERA_AVALON_JTAG_UART_DATA(base, sp->tx_buf[sp->tx_out]);
 80422fc:	e0bffc17 	ldw	r2,-16(fp)
 8042300:	e0fffb17 	ldw	r3,-20(fp)
 8042304:	18c00d17 	ldw	r3,52(r3)
 8042308:	e13ffb17 	ldw	r4,-20(fp)
 804230c:	20c7883a 	add	r3,r4,r3
 8042310:	18c20e04 	addi	r3,r3,2104
 8042314:	18c00003 	ldbu	r3,0(r3)
 8042318:	18c03fcc 	andi	r3,r3,255
 804231c:	18c0201c 	xori	r3,r3,128
 8042320:	18ffe004 	addi	r3,r3,-128
 8042324:	10c00035 	stwio	r3,0(r2)

        sp->tx_out = (sp->tx_out + 1) % ALTERA_AVALON_JTAG_UART_BUF_LEN;
 8042328:	e0bffb17 	ldw	r2,-20(fp)
 804232c:	10800d17 	ldw	r2,52(r2)
 8042330:	10800044 	addi	r2,r2,1
 8042334:	10c1ffcc 	andi	r3,r2,2047
 8042338:	e0bffb17 	ldw	r2,-20(fp)
 804233c:	10c00d15 	stw	r3,52(r2)

        /* Post an event to notify jtag_uart_write that a character has been written */
        ALT_FLAG_POST (sp->events, ALT_JTAG_UART_WRITE_RDY, OS_FLAG_SET);

        space--;
 8042340:	e0bffa17 	ldw	r2,-24(fp)
 8042344:	10bfffc4 	addi	r2,r2,-1
 8042348:	e0bffa15 	stw	r2,-24(fp)
    if (control & ALTERA_AVALON_JTAG_UART_CONTROL_WI_MSK)
    {
      /* process a write irq */
      unsigned int space = (control & ALTERA_AVALON_JTAG_UART_CONTROL_WSPACE_MSK) >> ALTERA_AVALON_JTAG_UART_CONTROL_WSPACE_OFST;

      while (space > 0 && sp->tx_out != sp->tx_in)
 804234c:	e0bffa17 	ldw	r2,-24(fp)
 8042350:	10000526 	beq	r2,zero,8042368 <altera_avalon_jtag_uart_irq+0x1a8>
 8042354:	e0bffb17 	ldw	r2,-20(fp)
 8042358:	10c00d17 	ldw	r3,52(r2)
 804235c:	e0bffb17 	ldw	r2,-20(fp)
 8042360:	10800c17 	ldw	r2,48(r2)
 8042364:	18bfe51e 	bne	r3,r2,80422fc <__alt_data_end+0xfffc22fc>
        ALT_FLAG_POST (sp->events, ALT_JTAG_UART_WRITE_RDY, OS_FLAG_SET);

        space--;
      }

      if (space > 0)
 8042368:	e0bffa17 	ldw	r2,-24(fp)
 804236c:	103f9d26 	beq	r2,zero,80421e4 <__alt_data_end+0xfffc21e4>
      {
        /* If we don't have any more data available then turn off the TX interrupt */
        sp->irq_enable &= ~ALTERA_AVALON_JTAG_UART_CONTROL_WE_MSK;
 8042370:	e0bffb17 	ldw	r2,-20(fp)
 8042374:	10c00817 	ldw	r3,32(r2)
 8042378:	00bfff44 	movi	r2,-3
 804237c:	1886703a 	and	r3,r3,r2
 8042380:	e0bffb17 	ldw	r2,-20(fp)
 8042384:	10c00815 	stw	r3,32(r2)
        IOWR_ALTERA_AVALON_JTAG_UART_CONTROL(sp->base, sp->irq_enable);
 8042388:	e0bffb17 	ldw	r2,-20(fp)
 804238c:	10800017 	ldw	r2,0(r2)
 8042390:	10800104 	addi	r2,r2,4
 8042394:	1007883a 	mov	r3,r2
 8042398:	e0bffb17 	ldw	r2,-20(fp)
 804239c:	10800817 	ldw	r2,32(r2)
 80423a0:	18800035 	stwio	r2,0(r3)
        
        /* Dummy read to ensure IRQ is cleared prior to ISR completion */
        IORD_ALTERA_AVALON_JTAG_UART_CONTROL(base);
 80423a4:	e0bffc17 	ldw	r2,-16(fp)
 80423a8:	10800104 	addi	r2,r2,4
 80423ac:	10800037 	ldwio	r2,0(r2)
      }
    }
  }
 80423b0:	003f8c06 	br	80421e4 <__alt_data_end+0xfffc21e4>
  {
    unsigned int control = IORD_ALTERA_AVALON_JTAG_UART_CONTROL(base);

    /* Return once nothing more to do */
    if ((control & (ALTERA_AVALON_JTAG_UART_CONTROL_RI_MSK | ALTERA_AVALON_JTAG_UART_CONTROL_WI_MSK)) == 0)
      break;
 80423b4:	0001883a 	nop
        /* Dummy read to ensure IRQ is cleared prior to ISR completion */
        IORD_ALTERA_AVALON_JTAG_UART_CONTROL(base);
      }
    }
  }
}
 80423b8:	0001883a 	nop
 80423bc:	e037883a 	mov	sp,fp
 80423c0:	df000017 	ldw	fp,0(sp)
 80423c4:	dec00104 	addi	sp,sp,4
 80423c8:	f800283a 	ret

080423cc <altera_avalon_jtag_uart_timeout>:
 * Timeout routine is called every second
 */

static alt_u32 
altera_avalon_jtag_uart_timeout(void* context) 
{
 80423cc:	defff804 	addi	sp,sp,-32
 80423d0:	df000715 	stw	fp,28(sp)
 80423d4:	df000704 	addi	fp,sp,28
 80423d8:	e13ffb15 	stw	r4,-20(fp)
  altera_avalon_jtag_uart_state* sp = (altera_avalon_jtag_uart_state *) context;
 80423dc:	e0bffb17 	ldw	r2,-20(fp)
 80423e0:	e0bff915 	stw	r2,-28(fp)

  unsigned int control = IORD_ALTERA_AVALON_JTAG_UART_CONTROL(sp->base);
 80423e4:	e0bff917 	ldw	r2,-28(fp)
 80423e8:	10800017 	ldw	r2,0(r2)
 80423ec:	10800104 	addi	r2,r2,4
 80423f0:	10800037 	ldwio	r2,0(r2)
 80423f4:	e0bffa15 	stw	r2,-24(fp)

  if (control & ALTERA_AVALON_JTAG_UART_CONTROL_AC_MSK)
 80423f8:	e0bffa17 	ldw	r2,-24(fp)
 80423fc:	1081000c 	andi	r2,r2,1024
 8042400:	10000b26 	beq	r2,zero,8042430 <altera_avalon_jtag_uart_timeout+0x64>
  {
    IOWR_ALTERA_AVALON_JTAG_UART_CONTROL(sp->base, sp->irq_enable | ALTERA_AVALON_JTAG_UART_CONTROL_AC_MSK);
 8042404:	e0bff917 	ldw	r2,-28(fp)
 8042408:	10800017 	ldw	r2,0(r2)
 804240c:	10800104 	addi	r2,r2,4
 8042410:	1007883a 	mov	r3,r2
 8042414:	e0bff917 	ldw	r2,-28(fp)
 8042418:	10800817 	ldw	r2,32(r2)
 804241c:	10810014 	ori	r2,r2,1024
 8042420:	18800035 	stwio	r2,0(r3)
    sp->host_inactive = 0;
 8042424:	e0bff917 	ldw	r2,-28(fp)
 8042428:	10000915 	stw	zero,36(r2)
 804242c:	00000a06 	br	8042458 <altera_avalon_jtag_uart_timeout+0x8c>
  }
  else if (sp->host_inactive < INT_MAX - 2) {
 8042430:	e0bff917 	ldw	r2,-28(fp)
 8042434:	10c00917 	ldw	r3,36(r2)
 8042438:	00a00034 	movhi	r2,32768
 804243c:	10bfff04 	addi	r2,r2,-4
 8042440:	10c00536 	bltu	r2,r3,8042458 <altera_avalon_jtag_uart_timeout+0x8c>
    sp->host_inactive++;
 8042444:	e0bff917 	ldw	r2,-28(fp)
 8042448:	10800917 	ldw	r2,36(r2)
 804244c:	10c00044 	addi	r3,r2,1
 8042450:	e0bff917 	ldw	r2,-28(fp)
 8042454:	10c00915 	stw	r3,36(r2)
 8042458:	d0a6ee17 	ldw	r2,-25672(gp)
      ALT_FLAG_POST (sp->events, ALT_JTAG_UART_TIMEOUT, OS_FLAG_SET);
    }
  }

  return alt_ticks_per_second();
}
 804245c:	e037883a 	mov	sp,fp
 8042460:	df000017 	ldw	fp,0(sp)
 8042464:	dec00104 	addi	sp,sp,4
 8042468:	f800283a 	ret

0804246c <altera_avalon_jtag_uart_close>:
 * The close routine is not implemented for the small driver; instead it will
 * map to null. This is because the small driver simply waits while characters
 * are transmitted; there is no interrupt-serviced buffer to empty 
 */
int altera_avalon_jtag_uart_close(altera_avalon_jtag_uart_state* sp, int flags)
{
 804246c:	defffd04 	addi	sp,sp,-12
 8042470:	df000215 	stw	fp,8(sp)
 8042474:	df000204 	addi	fp,sp,8
 8042478:	e13ffe15 	stw	r4,-8(fp)
 804247c:	e17fff15 	stw	r5,-4(fp)
  /* 
   * Wait for all transmit data to be emptied by the JTAG UART ISR, or
   * for a host-inactivity timeout, in which case transmit data will be lost
   */
  while ( (sp->tx_out != sp->tx_in) && (sp->host_inactive < sp->timeout) ) {
 8042480:	00000506 	br	8042498 <altera_avalon_jtag_uart_close+0x2c>
    if (flags & O_NONBLOCK) {
 8042484:	e0bfff17 	ldw	r2,-4(fp)
 8042488:	1090000c 	andi	r2,r2,16384
 804248c:	10000226 	beq	r2,zero,8042498 <altera_avalon_jtag_uart_close+0x2c>
      return -EWOULDBLOCK; 
 8042490:	00bffd44 	movi	r2,-11
 8042494:	00000b06 	br	80424c4 <altera_avalon_jtag_uart_close+0x58>
{
  /* 
   * Wait for all transmit data to be emptied by the JTAG UART ISR, or
   * for a host-inactivity timeout, in which case transmit data will be lost
   */
  while ( (sp->tx_out != sp->tx_in) && (sp->host_inactive < sp->timeout) ) {
 8042498:	e0bffe17 	ldw	r2,-8(fp)
 804249c:	10c00d17 	ldw	r3,52(r2)
 80424a0:	e0bffe17 	ldw	r2,-8(fp)
 80424a4:	10800c17 	ldw	r2,48(r2)
 80424a8:	18800526 	beq	r3,r2,80424c0 <altera_avalon_jtag_uart_close+0x54>
 80424ac:	e0bffe17 	ldw	r2,-8(fp)
 80424b0:	10c00917 	ldw	r3,36(r2)
 80424b4:	e0bffe17 	ldw	r2,-8(fp)
 80424b8:	10800117 	ldw	r2,4(r2)
 80424bc:	18bff136 	bltu	r3,r2,8042484 <__alt_data_end+0xfffc2484>
    if (flags & O_NONBLOCK) {
      return -EWOULDBLOCK; 
    }
  }

  return 0;
 80424c0:	0005883a 	mov	r2,zero
}
 80424c4:	e037883a 	mov	sp,fp
 80424c8:	df000017 	ldw	fp,0(sp)
 80424cc:	dec00104 	addi	sp,sp,4
 80424d0:	f800283a 	ret

080424d4 <altera_avalon_jtag_uart_ioctl>:
/* ----------------------------------------------------------- */

int 
altera_avalon_jtag_uart_ioctl(altera_avalon_jtag_uart_state* sp, int req,
  void* arg)
{
 80424d4:	defffa04 	addi	sp,sp,-24
 80424d8:	df000515 	stw	fp,20(sp)
 80424dc:	df000504 	addi	fp,sp,20
 80424e0:	e13ffd15 	stw	r4,-12(fp)
 80424e4:	e17ffe15 	stw	r5,-8(fp)
 80424e8:	e1bfff15 	stw	r6,-4(fp)
  int rc = -ENOTTY;
 80424ec:	00bff9c4 	movi	r2,-25
 80424f0:	e0bffb15 	stw	r2,-20(fp)

  switch (req)
 80424f4:	e0bffe17 	ldw	r2,-8(fp)
 80424f8:	10da8060 	cmpeqi	r3,r2,27137
 80424fc:	1800031e 	bne	r3,zero,804250c <altera_avalon_jtag_uart_ioctl+0x38>
 8042500:	109a80a0 	cmpeqi	r2,r2,27138
 8042504:	1000181e 	bne	r2,zero,8042568 <altera_avalon_jtag_uart_ioctl+0x94>
      rc = 0;
    }
    break;

  default:
    break;
 8042508:	00002906 	br	80425b0 <altera_avalon_jtag_uart_ioctl+0xdc>

  switch (req)
  {
  case TIOCSTIMEOUT:
    /* Set the time to wait until assuming host is not connected */
    if (sp->timeout != INT_MAX)
 804250c:	e0bffd17 	ldw	r2,-12(fp)
 8042510:	10c00117 	ldw	r3,4(r2)
 8042514:	00a00034 	movhi	r2,32768
 8042518:	10bfffc4 	addi	r2,r2,-1
 804251c:	18802126 	beq	r3,r2,80425a4 <altera_avalon_jtag_uart_ioctl+0xd0>
    {
      int timeout = *((int *)arg);
 8042520:	e0bfff17 	ldw	r2,-4(fp)
 8042524:	10800017 	ldw	r2,0(r2)
 8042528:	e0bffc15 	stw	r2,-16(fp)
      sp->timeout = (timeout >= 2 && timeout < INT_MAX) ? timeout : INT_MAX - 1;
 804252c:	e0bffc17 	ldw	r2,-16(fp)
 8042530:	10800090 	cmplti	r2,r2,2
 8042534:	1000061e 	bne	r2,zero,8042550 <altera_avalon_jtag_uart_ioctl+0x7c>
 8042538:	e0fffc17 	ldw	r3,-16(fp)
 804253c:	00a00034 	movhi	r2,32768
 8042540:	10bfffc4 	addi	r2,r2,-1
 8042544:	18800226 	beq	r3,r2,8042550 <altera_avalon_jtag_uart_ioctl+0x7c>
 8042548:	e0bffc17 	ldw	r2,-16(fp)
 804254c:	00000206 	br	8042558 <altera_avalon_jtag_uart_ioctl+0x84>
 8042550:	00a00034 	movhi	r2,32768
 8042554:	10bfff84 	addi	r2,r2,-2
 8042558:	e0fffd17 	ldw	r3,-12(fp)
 804255c:	18800115 	stw	r2,4(r3)
      rc = 0;
 8042560:	e03ffb15 	stw	zero,-20(fp)
    }
    break;
 8042564:	00000f06 	br	80425a4 <altera_avalon_jtag_uart_ioctl+0xd0>

  case TIOCGCONNECTED:
    /* Find out whether host is connected */
    if (sp->timeout != INT_MAX)
 8042568:	e0bffd17 	ldw	r2,-12(fp)
 804256c:	10c00117 	ldw	r3,4(r2)
 8042570:	00a00034 	movhi	r2,32768
 8042574:	10bfffc4 	addi	r2,r2,-1
 8042578:	18800c26 	beq	r3,r2,80425ac <altera_avalon_jtag_uart_ioctl+0xd8>
    {
      *((int *)arg) = (sp->host_inactive < sp->timeout) ? 1 : 0;
 804257c:	e0bffd17 	ldw	r2,-12(fp)
 8042580:	10c00917 	ldw	r3,36(r2)
 8042584:	e0bffd17 	ldw	r2,-12(fp)
 8042588:	10800117 	ldw	r2,4(r2)
 804258c:	1885803a 	cmpltu	r2,r3,r2
 8042590:	10c03fcc 	andi	r3,r2,255
 8042594:	e0bfff17 	ldw	r2,-4(fp)
 8042598:	10c00015 	stw	r3,0(r2)
      rc = 0;
 804259c:	e03ffb15 	stw	zero,-20(fp)
    }
    break;
 80425a0:	00000206 	br	80425ac <altera_avalon_jtag_uart_ioctl+0xd8>
    {
      int timeout = *((int *)arg);
      sp->timeout = (timeout >= 2 && timeout < INT_MAX) ? timeout : INT_MAX - 1;
      rc = 0;
    }
    break;
 80425a4:	0001883a 	nop
 80425a8:	00000106 	br	80425b0 <altera_avalon_jtag_uart_ioctl+0xdc>
    if (sp->timeout != INT_MAX)
    {
      *((int *)arg) = (sp->host_inactive < sp->timeout) ? 1 : 0;
      rc = 0;
    }
    break;
 80425ac:	0001883a 	nop

  default:
    break;
  }

  return rc;
 80425b0:	e0bffb17 	ldw	r2,-20(fp)
}
 80425b4:	e037883a 	mov	sp,fp
 80425b8:	df000017 	ldw	fp,0(sp)
 80425bc:	dec00104 	addi	sp,sp,4
 80425c0:	f800283a 	ret

080425c4 <altera_avalon_jtag_uart_read>:
/* ----------------------------------------------------------- */

int 
altera_avalon_jtag_uart_read(altera_avalon_jtag_uart_state* sp, 
  char * buffer, int space, int flags)
{
 80425c4:	defff304 	addi	sp,sp,-52
 80425c8:	dfc00c15 	stw	ra,48(sp)
 80425cc:	df000b15 	stw	fp,44(sp)
 80425d0:	df000b04 	addi	fp,sp,44
 80425d4:	e13ffc15 	stw	r4,-16(fp)
 80425d8:	e17ffd15 	stw	r5,-12(fp)
 80425dc:	e1bffe15 	stw	r6,-8(fp)
 80425e0:	e1ffff15 	stw	r7,-4(fp)
  char * ptr = buffer;
 80425e4:	e0bffd17 	ldw	r2,-12(fp)
 80425e8:	e0bff515 	stw	r2,-44(fp)
   * When running in a multi threaded environment, obtain the "read_lock"
   * semaphore. This ensures that reading from the device is thread-safe.
   */
  ALT_SEM_PEND (sp->read_lock, 0);

  while (space > 0)
 80425ec:	00004706 	br	804270c <altera_avalon_jtag_uart_read+0x148>
    unsigned int in, out;

    /* Read as much data as possible */
    do
    {
      in  = sp->rx_in;
 80425f0:	e0bffc17 	ldw	r2,-16(fp)
 80425f4:	10800a17 	ldw	r2,40(r2)
 80425f8:	e0bff715 	stw	r2,-36(fp)
      out = sp->rx_out;
 80425fc:	e0bffc17 	ldw	r2,-16(fp)
 8042600:	10800b17 	ldw	r2,44(r2)
 8042604:	e0bff815 	stw	r2,-32(fp)

      if (in >= out)
 8042608:	e0fff717 	ldw	r3,-36(fp)
 804260c:	e0bff817 	ldw	r2,-32(fp)
 8042610:	18800536 	bltu	r3,r2,8042628 <altera_avalon_jtag_uart_read+0x64>
        n = in - out;
 8042614:	e0fff717 	ldw	r3,-36(fp)
 8042618:	e0bff817 	ldw	r2,-32(fp)
 804261c:	1885c83a 	sub	r2,r3,r2
 8042620:	e0bff615 	stw	r2,-40(fp)
 8042624:	00000406 	br	8042638 <altera_avalon_jtag_uart_read+0x74>
      else
        n = ALTERA_AVALON_JTAG_UART_BUF_LEN - out;
 8042628:	00c20004 	movi	r3,2048
 804262c:	e0bff817 	ldw	r2,-32(fp)
 8042630:	1885c83a 	sub	r2,r3,r2
 8042634:	e0bff615 	stw	r2,-40(fp)

      if (n == 0)
 8042638:	e0bff617 	ldw	r2,-40(fp)
 804263c:	10001e26 	beq	r2,zero,80426b8 <altera_avalon_jtag_uart_read+0xf4>
        break; /* No more data available */

      if (n > space)
 8042640:	e0fffe17 	ldw	r3,-8(fp)
 8042644:	e0bff617 	ldw	r2,-40(fp)
 8042648:	1880022e 	bgeu	r3,r2,8042654 <altera_avalon_jtag_uart_read+0x90>
        n = space;
 804264c:	e0bffe17 	ldw	r2,-8(fp)
 8042650:	e0bff615 	stw	r2,-40(fp)

      memcpy(ptr, sp->rx_buf + out, n);
 8042654:	e0bffc17 	ldw	r2,-16(fp)
 8042658:	10c00e04 	addi	r3,r2,56
 804265c:	e0bff817 	ldw	r2,-32(fp)
 8042660:	1885883a 	add	r2,r3,r2
 8042664:	e1bff617 	ldw	r6,-40(fp)
 8042668:	100b883a 	mov	r5,r2
 804266c:	e13ff517 	ldw	r4,-44(fp)
 8042670:	804480c0 	call	804480c <memcpy>
      ptr   += n;
 8042674:	e0fff517 	ldw	r3,-44(fp)
 8042678:	e0bff617 	ldw	r2,-40(fp)
 804267c:	1885883a 	add	r2,r3,r2
 8042680:	e0bff515 	stw	r2,-44(fp)
      space -= n;
 8042684:	e0fffe17 	ldw	r3,-8(fp)
 8042688:	e0bff617 	ldw	r2,-40(fp)
 804268c:	1885c83a 	sub	r2,r3,r2
 8042690:	e0bffe15 	stw	r2,-8(fp)

      sp->rx_out = (out + n) % ALTERA_AVALON_JTAG_UART_BUF_LEN;
 8042694:	e0fff817 	ldw	r3,-32(fp)
 8042698:	e0bff617 	ldw	r2,-40(fp)
 804269c:	1885883a 	add	r2,r3,r2
 80426a0:	10c1ffcc 	andi	r3,r2,2047
 80426a4:	e0bffc17 	ldw	r2,-16(fp)
 80426a8:	10c00b15 	stw	r3,44(r2)
    }
    while (space > 0);
 80426ac:	e0bffe17 	ldw	r2,-8(fp)
 80426b0:	00bfcf16 	blt	zero,r2,80425f0 <__alt_data_end+0xfffc25f0>
 80426b4:	00000106 	br	80426bc <altera_avalon_jtag_uart_read+0xf8>
        n = in - out;
      else
        n = ALTERA_AVALON_JTAG_UART_BUF_LEN - out;

      if (n == 0)
        break; /* No more data available */
 80426b8:	0001883a 	nop
      sp->rx_out = (out + n) % ALTERA_AVALON_JTAG_UART_BUF_LEN;
    }
    while (space > 0);

    /* If we read any data then return it */
    if (ptr != buffer)
 80426bc:	e0fff517 	ldw	r3,-44(fp)
 80426c0:	e0bffd17 	ldw	r2,-12(fp)
 80426c4:	1880141e 	bne	r3,r2,8042718 <altera_avalon_jtag_uart_read+0x154>
      break;

    /* If in non-blocking mode then return error */
    if (flags & O_NONBLOCK)
 80426c8:	e0bfff17 	ldw	r2,-4(fp)
 80426cc:	1090000c 	andi	r2,r2,16384
 80426d0:	1000131e 	bne	r2,zero,8042720 <altera_avalon_jtag_uart_read+0x15c>
      while (in == sp->rx_in && sp->host_inactive < sp->timeout)
        ;
    }
#else
    /* No OS: Always spin */
    while (in == sp->rx_in && sp->host_inactive < sp->timeout)
 80426d4:	0001883a 	nop
 80426d8:	e0bffc17 	ldw	r2,-16(fp)
 80426dc:	10c00a17 	ldw	r3,40(r2)
 80426e0:	e0bff717 	ldw	r2,-36(fp)
 80426e4:	1880051e 	bne	r3,r2,80426fc <altera_avalon_jtag_uart_read+0x138>
 80426e8:	e0bffc17 	ldw	r2,-16(fp)
 80426ec:	10c00917 	ldw	r3,36(r2)
 80426f0:	e0bffc17 	ldw	r2,-16(fp)
 80426f4:	10800117 	ldw	r2,4(r2)
 80426f8:	18bff736 	bltu	r3,r2,80426d8 <__alt_data_end+0xfffc26d8>
      ;
#endif /* __ucosii__ */

    if (in == sp->rx_in)
 80426fc:	e0bffc17 	ldw	r2,-16(fp)
 8042700:	10c00a17 	ldw	r3,40(r2)
 8042704:	e0bff717 	ldw	r2,-36(fp)
 8042708:	18800726 	beq	r3,r2,8042728 <altera_avalon_jtag_uart_read+0x164>
   * When running in a multi threaded environment, obtain the "read_lock"
   * semaphore. This ensures that reading from the device is thread-safe.
   */
  ALT_SEM_PEND (sp->read_lock, 0);

  while (space > 0)
 804270c:	e0bffe17 	ldw	r2,-8(fp)
 8042710:	00bfb716 	blt	zero,r2,80425f0 <__alt_data_end+0xfffc25f0>
 8042714:	00000506 	br	804272c <altera_avalon_jtag_uart_read+0x168>
    }
    while (space > 0);

    /* If we read any data then return it */
    if (ptr != buffer)
      break;
 8042718:	0001883a 	nop
 804271c:	00000306 	br	804272c <altera_avalon_jtag_uart_read+0x168>

    /* If in non-blocking mode then return error */
    if (flags & O_NONBLOCK)
      break;
 8042720:	0001883a 	nop
 8042724:	00000106 	br	804272c <altera_avalon_jtag_uart_read+0x168>
    while (in == sp->rx_in && sp->host_inactive < sp->timeout)
      ;
#endif /* __ucosii__ */

    if (in == sp->rx_in)
      break;
 8042728:	0001883a 	nop
   * semaphore so that other threads can access the buffer.
   */

  ALT_SEM_POST (sp->read_lock);

  if (ptr != buffer)
 804272c:	e0fff517 	ldw	r3,-44(fp)
 8042730:	e0bffd17 	ldw	r2,-12(fp)
 8042734:	18801826 	beq	r3,r2,8042798 <altera_avalon_jtag_uart_read+0x1d4>
static ALT_INLINE alt_irq_context ALT_ALWAYS_INLINE 
       alt_irq_disable_all (void)
{
  alt_irq_context context;

  NIOS2_READ_STATUS (context);
 8042738:	0005303a 	rdctl	r2,status
 804273c:	e0bffb15 	stw	r2,-20(fp)

  NIOS2_WRITE_STATUS (context & ~NIOS2_STATUS_PIE_MSK);
 8042740:	e0fffb17 	ldw	r3,-20(fp)
 8042744:	00bfff84 	movi	r2,-2
 8042748:	1884703a 	and	r2,r3,r2
 804274c:	1001703a 	wrctl	status,r2
  
  return context;
 8042750:	e0bffb17 	ldw	r2,-20(fp)
  {
    /* If we read any data then there is space in the buffer so enable interrupts */
    context = alt_irq_disable_all();
 8042754:	e0bffa15 	stw	r2,-24(fp)
    sp->irq_enable |= ALTERA_AVALON_JTAG_UART_CONTROL_RE_MSK;
 8042758:	e0bffc17 	ldw	r2,-16(fp)
 804275c:	10800817 	ldw	r2,32(r2)
 8042760:	10c00054 	ori	r3,r2,1
 8042764:	e0bffc17 	ldw	r2,-16(fp)
 8042768:	10c00815 	stw	r3,32(r2)
    IOWR_ALTERA_AVALON_JTAG_UART_CONTROL(sp->base, sp->irq_enable);
 804276c:	e0bffc17 	ldw	r2,-16(fp)
 8042770:	10800017 	ldw	r2,0(r2)
 8042774:	10800104 	addi	r2,r2,4
 8042778:	1007883a 	mov	r3,r2
 804277c:	e0bffc17 	ldw	r2,-16(fp)
 8042780:	10800817 	ldw	r2,32(r2)
 8042784:	18800035 	stwio	r2,0(r3)
 8042788:	e0bffa17 	ldw	r2,-24(fp)
 804278c:	e0bff915 	stw	r2,-28(fp)
  status &= ~NIOS2_STATUS_PIE_MSK;
  status |= (context & NIOS2_STATUS_PIE_MSK);
  
  NIOS2_WRITE_STATUS (status);
#else
  NIOS2_WRITE_STATUS (context);
 8042790:	e0bff917 	ldw	r2,-28(fp)
 8042794:	1001703a 	wrctl	status,r2
    alt_irq_enable_all(context);
  }

  if (ptr != buffer)
 8042798:	e0fff517 	ldw	r3,-44(fp)
 804279c:	e0bffd17 	ldw	r2,-12(fp)
 80427a0:	18800426 	beq	r3,r2,80427b4 <altera_avalon_jtag_uart_read+0x1f0>
    return ptr - buffer;
 80427a4:	e0fff517 	ldw	r3,-44(fp)
 80427a8:	e0bffd17 	ldw	r2,-12(fp)
 80427ac:	1885c83a 	sub	r2,r3,r2
 80427b0:	00000606 	br	80427cc <altera_avalon_jtag_uart_read+0x208>
  else if (flags & O_NONBLOCK)
 80427b4:	e0bfff17 	ldw	r2,-4(fp)
 80427b8:	1090000c 	andi	r2,r2,16384
 80427bc:	10000226 	beq	r2,zero,80427c8 <altera_avalon_jtag_uart_read+0x204>
    return -EWOULDBLOCK;
 80427c0:	00bffd44 	movi	r2,-11
 80427c4:	00000106 	br	80427cc <altera_avalon_jtag_uart_read+0x208>
  else
    return -EIO;
 80427c8:	00bffec4 	movi	r2,-5
}
 80427cc:	e037883a 	mov	sp,fp
 80427d0:	dfc00117 	ldw	ra,4(sp)
 80427d4:	df000017 	ldw	fp,0(sp)
 80427d8:	dec00204 	addi	sp,sp,8
 80427dc:	f800283a 	ret

080427e0 <altera_avalon_jtag_uart_write>:
/* ----------------------------------------------------------- */

int 
altera_avalon_jtag_uart_write(altera_avalon_jtag_uart_state* sp, 
  const char * ptr, int count, int flags)
{
 80427e0:	defff304 	addi	sp,sp,-52
 80427e4:	dfc00c15 	stw	ra,48(sp)
 80427e8:	df000b15 	stw	fp,44(sp)
 80427ec:	df000b04 	addi	fp,sp,44
 80427f0:	e13ffc15 	stw	r4,-16(fp)
 80427f4:	e17ffd15 	stw	r5,-12(fp)
 80427f8:	e1bffe15 	stw	r6,-8(fp)
 80427fc:	e1ffff15 	stw	r7,-4(fp)
  /* Remove warning at optimisation level 03 by seting out to 0 */
  unsigned int in, out=0;
 8042800:	e03ff515 	stw	zero,-44(fp)
  unsigned int n;
  alt_irq_context context;

  const char * start = ptr;
 8042804:	e0bffd17 	ldw	r2,-12(fp)
 8042808:	e0bff715 	stw	r2,-36(fp)
  ALT_SEM_PEND (sp->write_lock, 0);

  do
  {
    /* Copy as much as we can into the transmit buffer */
    while (count > 0)
 804280c:	00003706 	br	80428ec <altera_avalon_jtag_uart_write+0x10c>
    {
      /* We need a stable value of the out pointer to calculate the space available */
      in  = sp->tx_in;
 8042810:	e0bffc17 	ldw	r2,-16(fp)
 8042814:	10800c17 	ldw	r2,48(r2)
 8042818:	e0bff915 	stw	r2,-28(fp)
      out = sp->tx_out;
 804281c:	e0bffc17 	ldw	r2,-16(fp)
 8042820:	10800d17 	ldw	r2,52(r2)
 8042824:	e0bff515 	stw	r2,-44(fp)

      if (in < out)
 8042828:	e0fff917 	ldw	r3,-28(fp)
 804282c:	e0bff517 	ldw	r2,-44(fp)
 8042830:	1880062e 	bgeu	r3,r2,804284c <altera_avalon_jtag_uart_write+0x6c>
        n = out - 1 - in;
 8042834:	e0fff517 	ldw	r3,-44(fp)
 8042838:	e0bff917 	ldw	r2,-28(fp)
 804283c:	1885c83a 	sub	r2,r3,r2
 8042840:	10bfffc4 	addi	r2,r2,-1
 8042844:	e0bff615 	stw	r2,-40(fp)
 8042848:	00000b06 	br	8042878 <altera_avalon_jtag_uart_write+0x98>
      else if (out > 0)
 804284c:	e0bff517 	ldw	r2,-44(fp)
 8042850:	10000526 	beq	r2,zero,8042868 <altera_avalon_jtag_uart_write+0x88>
        n = ALTERA_AVALON_JTAG_UART_BUF_LEN - in;
 8042854:	00c20004 	movi	r3,2048
 8042858:	e0bff917 	ldw	r2,-28(fp)
 804285c:	1885c83a 	sub	r2,r3,r2
 8042860:	e0bff615 	stw	r2,-40(fp)
 8042864:	00000406 	br	8042878 <altera_avalon_jtag_uart_write+0x98>
      else
        n = ALTERA_AVALON_JTAG_UART_BUF_LEN - 1 - in;
 8042868:	00c1ffc4 	movi	r3,2047
 804286c:	e0bff917 	ldw	r2,-28(fp)
 8042870:	1885c83a 	sub	r2,r3,r2
 8042874:	e0bff615 	stw	r2,-40(fp)

      if (n == 0)
 8042878:	e0bff617 	ldw	r2,-40(fp)
 804287c:	10001e26 	beq	r2,zero,80428f8 <altera_avalon_jtag_uart_write+0x118>
        break;

      if (n > count)
 8042880:	e0fffe17 	ldw	r3,-8(fp)
 8042884:	e0bff617 	ldw	r2,-40(fp)
 8042888:	1880022e 	bgeu	r3,r2,8042894 <altera_avalon_jtag_uart_write+0xb4>
        n = count;
 804288c:	e0bffe17 	ldw	r2,-8(fp)
 8042890:	e0bff615 	stw	r2,-40(fp)

      memcpy(sp->tx_buf + in, ptr, n);
 8042894:	e0bffc17 	ldw	r2,-16(fp)
 8042898:	10c20e04 	addi	r3,r2,2104
 804289c:	e0bff917 	ldw	r2,-28(fp)
 80428a0:	1885883a 	add	r2,r3,r2
 80428a4:	e1bff617 	ldw	r6,-40(fp)
 80428a8:	e17ffd17 	ldw	r5,-12(fp)
 80428ac:	1009883a 	mov	r4,r2
 80428b0:	804480c0 	call	804480c <memcpy>
      ptr   += n;
 80428b4:	e0fffd17 	ldw	r3,-12(fp)
 80428b8:	e0bff617 	ldw	r2,-40(fp)
 80428bc:	1885883a 	add	r2,r3,r2
 80428c0:	e0bffd15 	stw	r2,-12(fp)
      count -= n;
 80428c4:	e0fffe17 	ldw	r3,-8(fp)
 80428c8:	e0bff617 	ldw	r2,-40(fp)
 80428cc:	1885c83a 	sub	r2,r3,r2
 80428d0:	e0bffe15 	stw	r2,-8(fp)

      sp->tx_in = (in + n) % ALTERA_AVALON_JTAG_UART_BUF_LEN;
 80428d4:	e0fff917 	ldw	r3,-28(fp)
 80428d8:	e0bff617 	ldw	r2,-40(fp)
 80428dc:	1885883a 	add	r2,r3,r2
 80428e0:	10c1ffcc 	andi	r3,r2,2047
 80428e4:	e0bffc17 	ldw	r2,-16(fp)
 80428e8:	10c00c15 	stw	r3,48(r2)
  ALT_SEM_PEND (sp->write_lock, 0);

  do
  {
    /* Copy as much as we can into the transmit buffer */
    while (count > 0)
 80428ec:	e0bffe17 	ldw	r2,-8(fp)
 80428f0:	00bfc716 	blt	zero,r2,8042810 <__alt_data_end+0xfffc2810>
 80428f4:	00000106 	br	80428fc <altera_avalon_jtag_uart_write+0x11c>
        n = ALTERA_AVALON_JTAG_UART_BUF_LEN - in;
      else
        n = ALTERA_AVALON_JTAG_UART_BUF_LEN - 1 - in;

      if (n == 0)
        break;
 80428f8:	0001883a 	nop
static ALT_INLINE alt_irq_context ALT_ALWAYS_INLINE 
       alt_irq_disable_all (void)
{
  alt_irq_context context;

  NIOS2_READ_STATUS (context);
 80428fc:	0005303a 	rdctl	r2,status
 8042900:	e0bffb15 	stw	r2,-20(fp)

  NIOS2_WRITE_STATUS (context & ~NIOS2_STATUS_PIE_MSK);
 8042904:	e0fffb17 	ldw	r3,-20(fp)
 8042908:	00bfff84 	movi	r2,-2
 804290c:	1884703a 	and	r2,r3,r2
 8042910:	1001703a 	wrctl	status,r2
  
  return context;
 8042914:	e0bffb17 	ldw	r2,-20(fp)
     * to enable interrupts if there is no space left in the FIFO
     *
     * For now kick the interrupt routine every time to make it transmit 
     * the data 
     */
    context = alt_irq_disable_all();
 8042918:	e0bffa15 	stw	r2,-24(fp)
    sp->irq_enable |= ALTERA_AVALON_JTAG_UART_CONTROL_WE_MSK;
 804291c:	e0bffc17 	ldw	r2,-16(fp)
 8042920:	10800817 	ldw	r2,32(r2)
 8042924:	10c00094 	ori	r3,r2,2
 8042928:	e0bffc17 	ldw	r2,-16(fp)
 804292c:	10c00815 	stw	r3,32(r2)
    IOWR_ALTERA_AVALON_JTAG_UART_CONTROL(sp->base, sp->irq_enable);
 8042930:	e0bffc17 	ldw	r2,-16(fp)
 8042934:	10800017 	ldw	r2,0(r2)
 8042938:	10800104 	addi	r2,r2,4
 804293c:	1007883a 	mov	r3,r2
 8042940:	e0bffc17 	ldw	r2,-16(fp)
 8042944:	10800817 	ldw	r2,32(r2)
 8042948:	18800035 	stwio	r2,0(r3)
 804294c:	e0bffa17 	ldw	r2,-24(fp)
 8042950:	e0bff815 	stw	r2,-32(fp)
  status &= ~NIOS2_STATUS_PIE_MSK;
  status |= (context & NIOS2_STATUS_PIE_MSK);
  
  NIOS2_WRITE_STATUS (status);
#else
  NIOS2_WRITE_STATUS (context);
 8042954:	e0bff817 	ldw	r2,-32(fp)
 8042958:	1001703a 	wrctl	status,r2
    /* 
     * If there is any data left then either return now or block until 
     * some has been sent 
     */
    /* consider: test whether there is anything there while doing this and delay for at most 2s. */
    if (count > 0)
 804295c:	e0bffe17 	ldw	r2,-8(fp)
 8042960:	0080100e 	bge	zero,r2,80429a4 <altera_avalon_jtag_uart_write+0x1c4>
    {
      if (flags & O_NONBLOCK)
 8042964:	e0bfff17 	ldw	r2,-4(fp)
 8042968:	1090000c 	andi	r2,r2,16384
 804296c:	1000101e 	bne	r2,zero,80429b0 <altera_avalon_jtag_uart_write+0x1d0>
      /*
       * No OS present: Always wait for data to be removed from buffer.  Once
       * the interrupt routine has removed some data then we will be able to
       * insert some more.
       */
      while (out == sp->tx_out && sp->host_inactive < sp->timeout)
 8042970:	0001883a 	nop
 8042974:	e0bffc17 	ldw	r2,-16(fp)
 8042978:	10c00d17 	ldw	r3,52(r2)
 804297c:	e0bff517 	ldw	r2,-44(fp)
 8042980:	1880051e 	bne	r3,r2,8042998 <altera_avalon_jtag_uart_write+0x1b8>
 8042984:	e0bffc17 	ldw	r2,-16(fp)
 8042988:	10c00917 	ldw	r3,36(r2)
 804298c:	e0bffc17 	ldw	r2,-16(fp)
 8042990:	10800117 	ldw	r2,4(r2)
 8042994:	18bff736 	bltu	r3,r2,8042974 <__alt_data_end+0xfffc2974>
        ;
#endif /* __ucosii__ */

      if  (sp->host_inactive)
 8042998:	e0bffc17 	ldw	r2,-16(fp)
 804299c:	10800917 	ldw	r2,36(r2)
 80429a0:	1000051e 	bne	r2,zero,80429b8 <altera_avalon_jtag_uart_write+0x1d8>
         break;
    }
  }
  while (count > 0);
 80429a4:	e0bffe17 	ldw	r2,-8(fp)
 80429a8:	00bfd016 	blt	zero,r2,80428ec <__alt_data_end+0xfffc28ec>
 80429ac:	00000306 	br	80429bc <altera_avalon_jtag_uart_write+0x1dc>
     */
    /* consider: test whether there is anything there while doing this and delay for at most 2s. */
    if (count > 0)
    {
      if (flags & O_NONBLOCK)
        break;
 80429b0:	0001883a 	nop
 80429b4:	00000106 	br	80429bc <altera_avalon_jtag_uart_write+0x1dc>
      while (out == sp->tx_out && sp->host_inactive < sp->timeout)
        ;
#endif /* __ucosii__ */

      if  (sp->host_inactive)
         break;
 80429b8:	0001883a 	nop
   * Now that access to the circular buffer is complete, release the write
   * semaphore so that other threads can access the buffer.
   */
  ALT_SEM_POST (sp->write_lock);

  if (ptr != start)
 80429bc:	e0fffd17 	ldw	r3,-12(fp)
 80429c0:	e0bff717 	ldw	r2,-36(fp)
 80429c4:	18800426 	beq	r3,r2,80429d8 <altera_avalon_jtag_uart_write+0x1f8>
    return ptr - start;
 80429c8:	e0fffd17 	ldw	r3,-12(fp)
 80429cc:	e0bff717 	ldw	r2,-36(fp)
 80429d0:	1885c83a 	sub	r2,r3,r2
 80429d4:	00000606 	br	80429f0 <altera_avalon_jtag_uart_write+0x210>
  else if (flags & O_NONBLOCK)
 80429d8:	e0bfff17 	ldw	r2,-4(fp)
 80429dc:	1090000c 	andi	r2,r2,16384
 80429e0:	10000226 	beq	r2,zero,80429ec <altera_avalon_jtag_uart_write+0x20c>
    return -EWOULDBLOCK;
 80429e4:	00bffd44 	movi	r2,-11
 80429e8:	00000106 	br	80429f0 <altera_avalon_jtag_uart_write+0x210>
    sp->tx_out = sp->tx_in = 0;
    return ptr - start + count;
  }
#endif
  else
    return -EIO; /* Host not connected */
 80429ec:	00bffec4 	movi	r2,-5
}
 80429f0:	e037883a 	mov	sp,fp
 80429f4:	dfc00117 	ldw	ra,4(sp)
 80429f8:	df000017 	ldw	fp,0(sp)
 80429fc:	dec00204 	addi	sp,sp,8
 8042a00:	f800283a 	ret

08042a04 <alt_avalon_timer_sc_irq>:
#ifdef ALT_ENHANCED_INTERRUPT_API_PRESENT
static void alt_avalon_timer_sc_irq (void* base)
#else
static void alt_avalon_timer_sc_irq (void* base, alt_u32 id)
#endif
{
 8042a04:	defffa04 	addi	sp,sp,-24
 8042a08:	dfc00515 	stw	ra,20(sp)
 8042a0c:	df000415 	stw	fp,16(sp)
 8042a10:	df000404 	addi	fp,sp,16
 8042a14:	e13fff15 	stw	r4,-4(fp)
  alt_irq_context cpu_sr;
  
  /* clear the interrupt */
  IOWR_ALTERA_AVALON_TIMER_STATUS (base, 0);
 8042a18:	0007883a 	mov	r3,zero
 8042a1c:	e0bfff17 	ldw	r2,-4(fp)
 8042a20:	10c00035 	stwio	r3,0(r2)
  /* 
   * Dummy read to ensure IRQ is negated before the ISR returns.
   * The control register is read because reading the status
   * register has side-effects per the register map documentation.
   */
  IORD_ALTERA_AVALON_TIMER_CONTROL (base);
 8042a24:	e0bfff17 	ldw	r2,-4(fp)
 8042a28:	10800104 	addi	r2,r2,4
 8042a2c:	10800037 	ldwio	r2,0(r2)
static ALT_INLINE alt_irq_context ALT_ALWAYS_INLINE 
       alt_irq_disable_all (void)
{
  alt_irq_context context;

  NIOS2_READ_STATUS (context);
 8042a30:	0005303a 	rdctl	r2,status
 8042a34:	e0bffd15 	stw	r2,-12(fp)

  NIOS2_WRITE_STATUS (context & ~NIOS2_STATUS_PIE_MSK);
 8042a38:	e0fffd17 	ldw	r3,-12(fp)
 8042a3c:	00bfff84 	movi	r2,-2
 8042a40:	1884703a 	and	r2,r3,r2
 8042a44:	1001703a 	wrctl	status,r2
  
  return context;
 8042a48:	e0bffd17 	ldw	r2,-12(fp)

  /* 
   * Notify the system of a clock tick. disable interrupts 
   * during this time to safely support ISR preemption
   */
  cpu_sr = alt_irq_disable_all();
 8042a4c:	e0bffc15 	stw	r2,-16(fp)
  alt_tick ();
 8042a50:	80443dc0 	call	80443dc <alt_tick>
 8042a54:	e0bffc17 	ldw	r2,-16(fp)
 8042a58:	e0bffe15 	stw	r2,-8(fp)
  status &= ~NIOS2_STATUS_PIE_MSK;
  status |= (context & NIOS2_STATUS_PIE_MSK);
  
  NIOS2_WRITE_STATUS (status);
#else
  NIOS2_WRITE_STATUS (context);
 8042a5c:	e0bffe17 	ldw	r2,-8(fp)
 8042a60:	1001703a 	wrctl	status,r2
  alt_irq_enable_all(cpu_sr);
}
 8042a64:	0001883a 	nop
 8042a68:	e037883a 	mov	sp,fp
 8042a6c:	dfc00117 	ldw	ra,4(sp)
 8042a70:	df000017 	ldw	fp,0(sp)
 8042a74:	dec00204 	addi	sp,sp,8
 8042a78:	f800283a 	ret

08042a7c <alt_avalon_timer_sc_init>:
 * auto-generated alt_sys_init() function.
 */

void alt_avalon_timer_sc_init (void* base, alt_u32 irq_controller_id, 
                                alt_u32 irq, alt_u32 freq)
{
 8042a7c:	defff804 	addi	sp,sp,-32
 8042a80:	dfc00715 	stw	ra,28(sp)
 8042a84:	df000615 	stw	fp,24(sp)
 8042a88:	df000604 	addi	fp,sp,24
 8042a8c:	e13ffc15 	stw	r4,-16(fp)
 8042a90:	e17ffd15 	stw	r5,-12(fp)
 8042a94:	e1bffe15 	stw	r6,-8(fp)
 8042a98:	e1ffff15 	stw	r7,-4(fp)
 8042a9c:	e0bfff17 	ldw	r2,-4(fp)
 8042aa0:	e0bffb15 	stw	r2,-20(fp)
 * in order to initialise the value of the clock frequency.
 */

static ALT_INLINE int ALT_ALWAYS_INLINE alt_sysclk_init (alt_u32 nticks)
{
  if (! _alt_tick_rate)
 8042aa4:	d0a6ee17 	ldw	r2,-25672(gp)
 8042aa8:	1000021e 	bne	r2,zero,8042ab4 <alt_avalon_timer_sc_init+0x38>
  {
    _alt_tick_rate = nticks;
 8042aac:	e0bffb17 	ldw	r2,-20(fp)
 8042ab0:	d0a6ee15 	stw	r2,-25672(gp)
  
  alt_sysclk_init (freq);
  
  /* set to free running mode */
  
  IOWR_ALTERA_AVALON_TIMER_CONTROL (base, 
 8042ab4:	e0bffc17 	ldw	r2,-16(fp)
 8042ab8:	10800104 	addi	r2,r2,4
 8042abc:	00c001c4 	movi	r3,7
 8042ac0:	10c00035 	stwio	r3,0(r2)
            ALTERA_AVALON_TIMER_CONTROL_CONT_MSK |
            ALTERA_AVALON_TIMER_CONTROL_START_MSK);

  /* register the interrupt handler, and enable the interrupt */
#ifdef ALT_ENHANCED_INTERRUPT_API_PRESENT
  alt_ic_isr_register(irq_controller_id, irq, alt_avalon_timer_sc_irq, 
 8042ac4:	d8000015 	stw	zero,0(sp)
 8042ac8:	e1fffc17 	ldw	r7,-16(fp)
 8042acc:	01820134 	movhi	r6,2052
 8042ad0:	318a8104 	addi	r6,r6,10756
 8042ad4:	e17ffe17 	ldw	r5,-8(fp)
 8042ad8:	e13ffd17 	ldw	r4,-12(fp)
 8042adc:	80417840 	call	8041784 <alt_ic_isr_register>
                      base, NULL);
#else
  alt_irq_register (irq, base, alt_avalon_timer_sc_irq);
#endif  
}
 8042ae0:	0001883a 	nop
 8042ae4:	e037883a 	mov	sp,fp
 8042ae8:	dfc00117 	ldw	ra,4(sp)
 8042aec:	df000017 	ldw	fp,0(sp)
 8042af0:	dec00204 	addi	sp,sp,8
 8042af4:	f800283a 	ret

08042af8 <alt_up_audio_open_dev>:
#include "altera_up_avalon_audio_regs.h"

///////////////////////////////////////////////////////////////////////////
// Direct functions
alt_up_audio_dev* alt_up_audio_open_dev(const char* name)
{
 8042af8:	defffc04 	addi	sp,sp,-16
 8042afc:	dfc00315 	stw	ra,12(sp)
 8042b00:	df000215 	stw	fp,8(sp)
 8042b04:	df000204 	addi	fp,sp,8
 8042b08:	e13fff15 	stw	r4,-4(fp)
  // find the device from the device list 
  // (see altera_hal/HAL/inc/priv/alt_file.h 
  // and altera_hal/HAL/src/alt_find_dev.c 
  // for details)
  alt_up_audio_dev *dev = (alt_up_audio_dev*)alt_find_dev(name, &alt_dev_list);
 8042b0c:	d1600d04 	addi	r5,gp,-32716
 8042b10:	e13fff17 	ldw	r4,-4(fp)
 8042b14:	8043de80 	call	8043de8 <alt_find_dev>
 8042b18:	e0bffe15 	stw	r2,-8(fp)
  return dev;
 8042b1c:	e0bffe17 	ldw	r2,-8(fp)
}
 8042b20:	e037883a 	mov	sp,fp
 8042b24:	dfc00117 	ldw	ra,4(sp)
 8042b28:	df000017 	ldw	fp,0(sp)
 8042b2c:	dec00204 	addi	sp,sp,8
 8042b30:	f800283a 	ret

08042b34 <alt_up_audio_enable_read_interrupt>:

void alt_up_audio_enable_read_interrupt(alt_up_audio_dev *audio)
{
 8042b34:	defffd04 	addi	sp,sp,-12
 8042b38:	df000215 	stw	fp,8(sp)
 8042b3c:	df000204 	addi	fp,sp,8
 8042b40:	e13fff15 	stw	r4,-4(fp)
	unsigned int ctrl_reg;
	ctrl_reg = IORD_ALT_UP_AUDIO_CONTROL(audio->base); 
 8042b44:	e0bfff17 	ldw	r2,-4(fp)
 8042b48:	10800a17 	ldw	r2,40(r2)
 8042b4c:	10800037 	ldwio	r2,0(r2)
 8042b50:	e0bffe15 	stw	r2,-8(fp)
	// set RE to 1 while maintaining other bits the same
	ctrl_reg |= ALT_UP_AUDIO_CONTROL_RE_MSK;
 8042b54:	e0bffe17 	ldw	r2,-8(fp)
 8042b58:	10800054 	ori	r2,r2,1
 8042b5c:	e0bffe15 	stw	r2,-8(fp)
	IOWR_ALT_UP_AUDIO_CONTROL(audio->base, ctrl_reg);
 8042b60:	e0bfff17 	ldw	r2,-4(fp)
 8042b64:	10800a17 	ldw	r2,40(r2)
 8042b68:	1007883a 	mov	r3,r2
 8042b6c:	e0bffe17 	ldw	r2,-8(fp)
 8042b70:	18800035 	stwio	r2,0(r3)
}
 8042b74:	0001883a 	nop
 8042b78:	e037883a 	mov	sp,fp
 8042b7c:	df000017 	ldw	fp,0(sp)
 8042b80:	dec00104 	addi	sp,sp,4
 8042b84:	f800283a 	ret

08042b88 <alt_up_audio_disable_read_interrupt>:

void alt_up_audio_disable_read_interrupt(alt_up_audio_dev *audio)
{
 8042b88:	defffd04 	addi	sp,sp,-12
 8042b8c:	df000215 	stw	fp,8(sp)
 8042b90:	df000204 	addi	fp,sp,8
 8042b94:	e13fff15 	stw	r4,-4(fp)
	unsigned int ctrl_reg;
	ctrl_reg = IORD_ALT_UP_AUDIO_CONTROL(audio->base); 
 8042b98:	e0bfff17 	ldw	r2,-4(fp)
 8042b9c:	10800a17 	ldw	r2,40(r2)
 8042ba0:	10800037 	ldwio	r2,0(r2)
 8042ba4:	e0bffe15 	stw	r2,-8(fp)
	// set RE to 0 while maintaining other bits the same
	ctrl_reg &= ~ALT_UP_AUDIO_CONTROL_RE_MSK;
 8042ba8:	e0fffe17 	ldw	r3,-8(fp)
 8042bac:	00bfff84 	movi	r2,-2
 8042bb0:	1884703a 	and	r2,r3,r2
 8042bb4:	e0bffe15 	stw	r2,-8(fp)
	IOWR_ALT_UP_AUDIO_CONTROL(audio->base, ctrl_reg);
 8042bb8:	e0bfff17 	ldw	r2,-4(fp)
 8042bbc:	10800a17 	ldw	r2,40(r2)
 8042bc0:	1007883a 	mov	r3,r2
 8042bc4:	e0bffe17 	ldw	r2,-8(fp)
 8042bc8:	18800035 	stwio	r2,0(r3)
}
 8042bcc:	0001883a 	nop
 8042bd0:	e037883a 	mov	sp,fp
 8042bd4:	df000017 	ldw	fp,0(sp)
 8042bd8:	dec00104 	addi	sp,sp,4
 8042bdc:	f800283a 	ret

08042be0 <alt_up_audio_enable_write_interrupt>:

void alt_up_audio_enable_write_interrupt(alt_up_audio_dev *audio)
{
 8042be0:	defffd04 	addi	sp,sp,-12
 8042be4:	df000215 	stw	fp,8(sp)
 8042be8:	df000204 	addi	fp,sp,8
 8042bec:	e13fff15 	stw	r4,-4(fp)
	unsigned int ctrl_reg;
	ctrl_reg = IORD_ALT_UP_AUDIO_CONTROL(audio->base); 
 8042bf0:	e0bfff17 	ldw	r2,-4(fp)
 8042bf4:	10800a17 	ldw	r2,40(r2)
 8042bf8:	10800037 	ldwio	r2,0(r2)
 8042bfc:	e0bffe15 	stw	r2,-8(fp)
	// set WE to 1 while maintaining other bits the same
	ctrl_reg |= ALT_UP_AUDIO_CONTROL_WE_MSK;
 8042c00:	e0bffe17 	ldw	r2,-8(fp)
 8042c04:	10800094 	ori	r2,r2,2
 8042c08:	e0bffe15 	stw	r2,-8(fp)
	IOWR_ALT_UP_AUDIO_CONTROL(audio->base, ctrl_reg);
 8042c0c:	e0bfff17 	ldw	r2,-4(fp)
 8042c10:	10800a17 	ldw	r2,40(r2)
 8042c14:	1007883a 	mov	r3,r2
 8042c18:	e0bffe17 	ldw	r2,-8(fp)
 8042c1c:	18800035 	stwio	r2,0(r3)
}
 8042c20:	0001883a 	nop
 8042c24:	e037883a 	mov	sp,fp
 8042c28:	df000017 	ldw	fp,0(sp)
 8042c2c:	dec00104 	addi	sp,sp,4
 8042c30:	f800283a 	ret

08042c34 <alt_up_audio_disable_write_interrupt>:

void alt_up_audio_disable_write_interrupt(alt_up_audio_dev *audio)
{
 8042c34:	defffd04 	addi	sp,sp,-12
 8042c38:	df000215 	stw	fp,8(sp)
 8042c3c:	df000204 	addi	fp,sp,8
 8042c40:	e13fff15 	stw	r4,-4(fp)
	unsigned int ctrl_reg;
	ctrl_reg = IORD_ALT_UP_AUDIO_CONTROL(audio->base); 
 8042c44:	e0bfff17 	ldw	r2,-4(fp)
 8042c48:	10800a17 	ldw	r2,40(r2)
 8042c4c:	10800037 	ldwio	r2,0(r2)
 8042c50:	e0bffe15 	stw	r2,-8(fp)
	// set WE to 0 while maintaining other bits the same
	ctrl_reg &= ~ALT_UP_AUDIO_CONTROL_WE_MSK;
 8042c54:	e0fffe17 	ldw	r3,-8(fp)
 8042c58:	00bfff44 	movi	r2,-3
 8042c5c:	1884703a 	and	r2,r3,r2
 8042c60:	e0bffe15 	stw	r2,-8(fp)
	IOWR_ALT_UP_AUDIO_CONTROL(audio->base, ctrl_reg);
 8042c64:	e0bfff17 	ldw	r2,-4(fp)
 8042c68:	10800a17 	ldw	r2,40(r2)
 8042c6c:	1007883a 	mov	r3,r2
 8042c70:	e0bffe17 	ldw	r2,-8(fp)
 8042c74:	18800035 	stwio	r2,0(r3)
}
 8042c78:	0001883a 	nop
 8042c7c:	e037883a 	mov	sp,fp
 8042c80:	df000017 	ldw	fp,0(sp)
 8042c84:	dec00104 	addi	sp,sp,4
 8042c88:	f800283a 	ret

08042c8c <alt_up_audio_read_interrupt_pending>:

int alt_up_audio_read_interrupt_pending(alt_up_audio_dev *audio)
{
 8042c8c:	defffd04 	addi	sp,sp,-12
 8042c90:	df000215 	stw	fp,8(sp)
 8042c94:	df000204 	addi	fp,sp,8
 8042c98:	e13fff15 	stw	r4,-4(fp)
	unsigned int ctrl_reg;
	ctrl_reg = IORD_ALT_UP_AUDIO_CONTROL(audio->base); 
 8042c9c:	e0bfff17 	ldw	r2,-4(fp)
 8042ca0:	10800a17 	ldw	r2,40(r2)
 8042ca4:	10800037 	ldwio	r2,0(r2)
 8042ca8:	e0bffe15 	stw	r2,-8(fp)
	// return 1 if RI is set to 1
	return ( (ctrl_reg & ALT_UP_AUDIO_CONTROL_RI_MSK) ? 1 : 0 );
 8042cac:	e0bffe17 	ldw	r2,-8(fp)
 8042cb0:	1080400c 	andi	r2,r2,256
 8042cb4:	1004c03a 	cmpne	r2,r2,zero
 8042cb8:	10803fcc 	andi	r2,r2,255
}
 8042cbc:	e037883a 	mov	sp,fp
 8042cc0:	df000017 	ldw	fp,0(sp)
 8042cc4:	dec00104 	addi	sp,sp,4
 8042cc8:	f800283a 	ret

08042ccc <alt_up_audio_write_interrupt_pending>:

int alt_up_audio_write_interrupt_pending(alt_up_audio_dev *audio)
{
 8042ccc:	defffd04 	addi	sp,sp,-12
 8042cd0:	df000215 	stw	fp,8(sp)
 8042cd4:	df000204 	addi	fp,sp,8
 8042cd8:	e13fff15 	stw	r4,-4(fp)
	unsigned int ctrl_reg;
	ctrl_reg = IORD_ALT_UP_AUDIO_CONTROL(audio->base); 
 8042cdc:	e0bfff17 	ldw	r2,-4(fp)
 8042ce0:	10800a17 	ldw	r2,40(r2)
 8042ce4:	10800037 	ldwio	r2,0(r2)
 8042ce8:	e0bffe15 	stw	r2,-8(fp)
	// return the WI value
	return ( (ctrl_reg & ALT_UP_AUDIO_CONTROL_WI_MSK) ? 1 : 0 );
 8042cec:	e0bffe17 	ldw	r2,-8(fp)
 8042cf0:	1080800c 	andi	r2,r2,512
 8042cf4:	1004c03a 	cmpne	r2,r2,zero
 8042cf8:	10803fcc 	andi	r2,r2,255
}
 8042cfc:	e037883a 	mov	sp,fp
 8042d00:	df000017 	ldw	fp,0(sp)
 8042d04:	dec00104 	addi	sp,sp,4
 8042d08:	f800283a 	ret

08042d0c <alt_up_audio_reset_audio_core>:

void alt_up_audio_reset_audio_core(alt_up_audio_dev *audio)
{
 8042d0c:	defffd04 	addi	sp,sp,-12
 8042d10:	df000215 	stw	fp,8(sp)
 8042d14:	df000204 	addi	fp,sp,8
 8042d18:	e13fff15 	stw	r4,-4(fp)
	unsigned int ctrl_reg;
	ctrl_reg = IORD_ALT_UP_AUDIO_CONTROL(audio->base); 
 8042d1c:	e0bfff17 	ldw	r2,-4(fp)
 8042d20:	10800a17 	ldw	r2,40(r2)
 8042d24:	10800037 	ldwio	r2,0(r2)
 8042d28:	e0bffe15 	stw	r2,-8(fp)
	// set CR and CW to 1 while maintaining other bits the same
	ctrl_reg |= ALT_UP_AUDIO_CONTROL_CR_MSK;
 8042d2c:	e0bffe17 	ldw	r2,-8(fp)
 8042d30:	10800114 	ori	r2,r2,4
 8042d34:	e0bffe15 	stw	r2,-8(fp)
	ctrl_reg |= ALT_UP_AUDIO_CONTROL_CW_MSK;
 8042d38:	e0bffe17 	ldw	r2,-8(fp)
 8042d3c:	10800214 	ori	r2,r2,8
 8042d40:	e0bffe15 	stw	r2,-8(fp)
	IOWR_ALT_UP_AUDIO_CONTROL(audio->base, ctrl_reg);
 8042d44:	e0bfff17 	ldw	r2,-4(fp)
 8042d48:	10800a17 	ldw	r2,40(r2)
 8042d4c:	1007883a 	mov	r3,r2
 8042d50:	e0bffe17 	ldw	r2,-8(fp)
 8042d54:	18800035 	stwio	r2,0(r3)
	// set CR and CW to 0 while maintaining other bits the same
	ctrl_reg &= ~ALT_UP_AUDIO_CONTROL_CR_MSK;
 8042d58:	e0fffe17 	ldw	r3,-8(fp)
 8042d5c:	00bffec4 	movi	r2,-5
 8042d60:	1884703a 	and	r2,r3,r2
 8042d64:	e0bffe15 	stw	r2,-8(fp)
	ctrl_reg &= ~ALT_UP_AUDIO_CONTROL_CW_MSK;
 8042d68:	e0fffe17 	ldw	r3,-8(fp)
 8042d6c:	00bffdc4 	movi	r2,-9
 8042d70:	1884703a 	and	r2,r3,r2
 8042d74:	e0bffe15 	stw	r2,-8(fp)
	IOWR_ALT_UP_AUDIO_CONTROL(audio->base, ctrl_reg);
 8042d78:	e0bfff17 	ldw	r2,-4(fp)
 8042d7c:	10800a17 	ldw	r2,40(r2)
 8042d80:	1007883a 	mov	r3,r2
 8042d84:	e0bffe17 	ldw	r2,-8(fp)
 8042d88:	18800035 	stwio	r2,0(r3)
}
 8042d8c:	0001883a 	nop
 8042d90:	e037883a 	mov	sp,fp
 8042d94:	df000017 	ldw	fp,0(sp)
 8042d98:	dec00104 	addi	sp,sp,4
 8042d9c:	f800283a 	ret

08042da0 <alt_up_audio_read_fifo_avail>:

/* Provides number of words of data available in the incoming FIFO: RALC or RARC */
unsigned int alt_up_audio_read_fifo_avail(alt_up_audio_dev *audio, int channel)
{
 8042da0:	defffc04 	addi	sp,sp,-16
 8042da4:	df000315 	stw	fp,12(sp)
 8042da8:	df000304 	addi	fp,sp,12
 8042dac:	e13ffe15 	stw	r4,-8(fp)
 8042db0:	e17fff15 	stw	r5,-4(fp)
	unsigned int fifospace;
	// read the whole fifospace register
	fifospace = IORD_ALT_UP_AUDIO_FIFOSPACE(audio->base);
 8042db4:	e0bffe17 	ldw	r2,-8(fp)
 8042db8:	10800a17 	ldw	r2,40(r2)
 8042dbc:	10800104 	addi	r2,r2,4
 8042dc0:	10800037 	ldwio	r2,0(r2)
 8042dc4:	e0bffd15 	stw	r2,-12(fp)
	// extract the part for proper Channel Read Space
	fifospace = (channel == ALT_UP_AUDIO_LEFT) ? 
		(fifospace & ALT_UP_AUDIO_FIFOSPACE_RALC_MSK) >> ALT_UP_AUDIO_FIFOSPACE_RALC_OFST :
 8042dc8:	e0bfff17 	ldw	r2,-4(fp)
 8042dcc:	1000041e 	bne	r2,zero,8042de0 <alt_up_audio_read_fifo_avail+0x40>
 8042dd0:	e0bffd17 	ldw	r2,-12(fp)
 8042dd4:	10bfc00c 	andi	r2,r2,65280
 8042dd8:	1004d23a 	srli	r2,r2,8
 8042ddc:	00000206 	br	8042de8 <alt_up_audio_read_fifo_avail+0x48>
 8042de0:	e0bffd17 	ldw	r2,-12(fp)
 8042de4:	10803fcc 	andi	r2,r2,255
{
	unsigned int fifospace;
	// read the whole fifospace register
	fifospace = IORD_ALT_UP_AUDIO_FIFOSPACE(audio->base);
	// extract the part for proper Channel Read Space
	fifospace = (channel == ALT_UP_AUDIO_LEFT) ? 
 8042de8:	e0bffd15 	stw	r2,-12(fp)
		(fifospace & ALT_UP_AUDIO_FIFOSPACE_RALC_MSK) >> ALT_UP_AUDIO_FIFOSPACE_RALC_OFST :
		(fifospace & ALT_UP_AUDIO_FIFOSPACE_RARC_MSK) >> ALT_UP_AUDIO_FIFOSPACE_RARC_OFST;
	return (fifospace);
 8042dec:	e0bffd17 	ldw	r2,-12(fp)
}
 8042df0:	e037883a 	mov	sp,fp
 8042df4:	df000017 	ldw	fp,0(sp)
 8042df8:	dec00104 	addi	sp,sp,4
 8042dfc:	f800283a 	ret

08042e00 <alt_up_audio_record_r>:
/* Checks if the read FIFO for the right channel has at least BUF_THRESHOLD data words 
 * available. If it doesn't, then just returns 0. If it does, then data is read from the
 * FIFO up to a maximum of len words, and stored into buf.
 */
unsigned int alt_up_audio_record_r(alt_up_audio_dev *audio, unsigned int *buf, int len)
{
 8042e00:	defffa04 	addi	sp,sp,-24
 8042e04:	dfc00515 	stw	ra,20(sp)
 8042e08:	df000415 	stw	fp,16(sp)
 8042e0c:	df000404 	addi	fp,sp,16
 8042e10:	e13ffd15 	stw	r4,-12(fp)
 8042e14:	e17ffe15 	stw	r5,-8(fp)
 8042e18:	e1bfff15 	stw	r6,-4(fp)
	unsigned int data_words = alt_up_audio_read_fifo_avail (audio, ALT_UP_AUDIO_RIGHT);
 8042e1c:	01400044 	movi	r5,1
 8042e20:	e13ffd17 	ldw	r4,-12(fp)
 8042e24:	8042da00 	call	8042da0 <alt_up_audio_read_fifo_avail>
 8042e28:	e0bffc15 	stw	r2,-16(fp)
	if (data_words <= BUF_THRESHOLD)
 8042e2c:	e0bffc17 	ldw	r2,-16(fp)
 8042e30:	10801868 	cmpgeui	r2,r2,97
 8042e34:	1000021e 	bne	r2,zero,8042e40 <alt_up_audio_record_r+0x40>
		return 0;
 8042e38:	0005883a 	mov	r2,zero
 8042e3c:	00000506 	br	8042e54 <alt_up_audio_record_r+0x54>
	else
		return (alt_up_audio_read_fifo(audio, buf, len, ALT_UP_AUDIO_RIGHT));
 8042e40:	01c00044 	movi	r7,1
 8042e44:	e1bfff17 	ldw	r6,-4(fp)
 8042e48:	e17ffe17 	ldw	r5,-8(fp)
 8042e4c:	e13ffd17 	ldw	r4,-12(fp)
 8042e50:	80430000 	call	8043000 <alt_up_audio_read_fifo>
}
 8042e54:	e037883a 	mov	sp,fp
 8042e58:	dfc00117 	ldw	ra,4(sp)
 8042e5c:	df000017 	ldw	fp,0(sp)
 8042e60:	dec00204 	addi	sp,sp,8
 8042e64:	f800283a 	ret

08042e68 <alt_up_audio_record_l>:
/* Checks if the read FIFO for the left channel has at least BUF_THRESHOLD data words 
 * available. If it doesn't, then just returns 0. If it does, then data is read from the
 * FIFO up to a maximum of len words, and stored into buf.
 */
unsigned int alt_up_audio_record_l(alt_up_audio_dev *audio, unsigned int *buf, int len)
{
 8042e68:	defffa04 	addi	sp,sp,-24
 8042e6c:	dfc00515 	stw	ra,20(sp)
 8042e70:	df000415 	stw	fp,16(sp)
 8042e74:	df000404 	addi	fp,sp,16
 8042e78:	e13ffd15 	stw	r4,-12(fp)
 8042e7c:	e17ffe15 	stw	r5,-8(fp)
 8042e80:	e1bfff15 	stw	r6,-4(fp)
	unsigned int data_words = alt_up_audio_read_fifo_avail (audio, ALT_UP_AUDIO_LEFT);
 8042e84:	000b883a 	mov	r5,zero
 8042e88:	e13ffd17 	ldw	r4,-12(fp)
 8042e8c:	8042da00 	call	8042da0 <alt_up_audio_read_fifo_avail>
 8042e90:	e0bffc15 	stw	r2,-16(fp)
	if (data_words <= BUF_THRESHOLD)
 8042e94:	e0bffc17 	ldw	r2,-16(fp)
 8042e98:	10801868 	cmpgeui	r2,r2,97
 8042e9c:	1000021e 	bne	r2,zero,8042ea8 <alt_up_audio_record_l+0x40>
		return 0;
 8042ea0:	0005883a 	mov	r2,zero
 8042ea4:	00000506 	br	8042ebc <alt_up_audio_record_l+0x54>
	else
		return (alt_up_audio_read_fifo(audio, buf, len, ALT_UP_AUDIO_LEFT));
 8042ea8:	000f883a 	mov	r7,zero
 8042eac:	e1bfff17 	ldw	r6,-4(fp)
 8042eb0:	e17ffe17 	ldw	r5,-8(fp)
 8042eb4:	e13ffd17 	ldw	r4,-12(fp)
 8042eb8:	80430000 	call	8043000 <alt_up_audio_read_fifo>
}
 8042ebc:	e037883a 	mov	sp,fp
 8042ec0:	dfc00117 	ldw	ra,4(sp)
 8042ec4:	df000017 	ldw	fp,0(sp)
 8042ec8:	dec00204 	addi	sp,sp,8
 8042ecc:	f800283a 	ret

08042ed0 <alt_up_audio_write_fifo_space>:

/* Provides the amount of empty space available in the outgoing FIFO: WSLC or WSRC */
unsigned int alt_up_audio_write_fifo_space(alt_up_audio_dev *audio, int channel)
{
 8042ed0:	defffc04 	addi	sp,sp,-16
 8042ed4:	df000315 	stw	fp,12(sp)
 8042ed8:	df000304 	addi	fp,sp,12
 8042edc:	e13ffe15 	stw	r4,-8(fp)
 8042ee0:	e17fff15 	stw	r5,-4(fp)
	unsigned int fifospace;
	// read the whole fifospace register
	fifospace = IORD_ALT_UP_AUDIO_FIFOSPACE(audio->base);
 8042ee4:	e0bffe17 	ldw	r2,-8(fp)
 8042ee8:	10800a17 	ldw	r2,40(r2)
 8042eec:	10800104 	addi	r2,r2,4
 8042ef0:	10800037 	ldwio	r2,0(r2)
 8042ef4:	e0bffd15 	stw	r2,-12(fp)
	// extract the part for proper Channel Read Space
	fifospace = (channel == ALT_UP_AUDIO_LEFT) ? 
		(fifospace & ALT_UP_AUDIO_FIFOSPACE_WSLC_MSK) >> ALT_UP_AUDIO_FIFOSPACE_WSLC_OFST :
 8042ef8:	e0bfff17 	ldw	r2,-4(fp)
 8042efc:	1000031e 	bne	r2,zero,8042f0c <alt_up_audio_write_fifo_space+0x3c>
 8042f00:	e0bffd17 	ldw	r2,-12(fp)
 8042f04:	1004d63a 	srli	r2,r2,24
 8042f08:	00000306 	br	8042f18 <alt_up_audio_write_fifo_space+0x48>
		(fifospace & ALT_UP_AUDIO_FIFOSPACE_WSRC_MSK) >> ALT_UP_AUDIO_FIFOSPACE_WSRC_OFST;
 8042f0c:	e0bffd17 	ldw	r2,-12(fp)
 8042f10:	10803fec 	andhi	r2,r2,255
	unsigned int fifospace;
	// read the whole fifospace register
	fifospace = IORD_ALT_UP_AUDIO_FIFOSPACE(audio->base);
	// extract the part for proper Channel Read Space
	fifospace = (channel == ALT_UP_AUDIO_LEFT) ? 
		(fifospace & ALT_UP_AUDIO_FIFOSPACE_WSLC_MSK) >> ALT_UP_AUDIO_FIFOSPACE_WSLC_OFST :
 8042f14:	1004d43a 	srli	r2,r2,16
{
	unsigned int fifospace;
	// read the whole fifospace register
	fifospace = IORD_ALT_UP_AUDIO_FIFOSPACE(audio->base);
	// extract the part for proper Channel Read Space
	fifospace = (channel == ALT_UP_AUDIO_LEFT) ? 
 8042f18:	e0bffd15 	stw	r2,-12(fp)
		(fifospace & ALT_UP_AUDIO_FIFOSPACE_WSLC_MSK) >> ALT_UP_AUDIO_FIFOSPACE_WSLC_OFST :
		(fifospace & ALT_UP_AUDIO_FIFOSPACE_WSRC_MSK) >> ALT_UP_AUDIO_FIFOSPACE_WSRC_OFST;
	return (fifospace);
 8042f1c:	e0bffd17 	ldw	r2,-12(fp)
}
 8042f20:	e037883a 	mov	sp,fp
 8042f24:	df000017 	ldw	fp,0(sp)
 8042f28:	dec00104 	addi	sp,sp,4
 8042f2c:	f800283a 	ret

08042f30 <alt_up_audio_play_r>:
/* Checks if the write FIFO for the right channel has at least BUF_THRESHOLD space available.
 * If it doesn't, then just returns 0. If it does, then data from buf is written into the 
 * FIFO, up to a maximum of len words.
 */
unsigned int alt_up_audio_play_r(alt_up_audio_dev *audio, unsigned int *buf, int len)
{
 8042f30:	defffa04 	addi	sp,sp,-24
 8042f34:	dfc00515 	stw	ra,20(sp)
 8042f38:	df000415 	stw	fp,16(sp)
 8042f3c:	df000404 	addi	fp,sp,16
 8042f40:	e13ffd15 	stw	r4,-12(fp)
 8042f44:	e17ffe15 	stw	r5,-8(fp)
 8042f48:	e1bfff15 	stw	r6,-4(fp)
	unsigned int space = alt_up_audio_write_fifo_space (audio, ALT_UP_AUDIO_RIGHT);
 8042f4c:	01400044 	movi	r5,1
 8042f50:	e13ffd17 	ldw	r4,-12(fp)
 8042f54:	8042ed00 	call	8042ed0 <alt_up_audio_write_fifo_space>
 8042f58:	e0bffc15 	stw	r2,-16(fp)
	if (space <= BUF_THRESHOLD)
 8042f5c:	e0bffc17 	ldw	r2,-16(fp)
 8042f60:	10801868 	cmpgeui	r2,r2,97
 8042f64:	1000021e 	bne	r2,zero,8042f70 <alt_up_audio_play_r+0x40>
		return 0;
 8042f68:	0005883a 	mov	r2,zero
 8042f6c:	00000506 	br	8042f84 <alt_up_audio_play_r+0x54>
	else
		return (alt_up_audio_write_fifo(audio, buf, len, ALT_UP_AUDIO_RIGHT));
 8042f70:	01c00044 	movi	r7,1
 8042f74:	e1bfff17 	ldw	r6,-4(fp)
 8042f78:	e17ffe17 	ldw	r5,-8(fp)
 8042f7c:	e13ffd17 	ldw	r4,-12(fp)
 8042f80:	80430e00 	call	80430e0 <alt_up_audio_write_fifo>
}
 8042f84:	e037883a 	mov	sp,fp
 8042f88:	dfc00117 	ldw	ra,4(sp)
 8042f8c:	df000017 	ldw	fp,0(sp)
 8042f90:	dec00204 	addi	sp,sp,8
 8042f94:	f800283a 	ret

08042f98 <alt_up_audio_play_l>:
/* Checks if the write FIFO for the left channel has at least BUF_THRESHOLD space available.
 * If it doesn't, then just returns 0. If it does, then data from buf is written into the 
 * FIFO, up to a maximum of len words.
 */
unsigned int alt_up_audio_play_l(alt_up_audio_dev *audio, unsigned int *buf, int len)
{
 8042f98:	defffa04 	addi	sp,sp,-24
 8042f9c:	dfc00515 	stw	ra,20(sp)
 8042fa0:	df000415 	stw	fp,16(sp)
 8042fa4:	df000404 	addi	fp,sp,16
 8042fa8:	e13ffd15 	stw	r4,-12(fp)
 8042fac:	e17ffe15 	stw	r5,-8(fp)
 8042fb0:	e1bfff15 	stw	r6,-4(fp)
	unsigned int space = alt_up_audio_write_fifo_space (audio, ALT_UP_AUDIO_LEFT);
 8042fb4:	000b883a 	mov	r5,zero
 8042fb8:	e13ffd17 	ldw	r4,-12(fp)
 8042fbc:	8042ed00 	call	8042ed0 <alt_up_audio_write_fifo_space>
 8042fc0:	e0bffc15 	stw	r2,-16(fp)
	if (space <= BUF_THRESHOLD)
 8042fc4:	e0bffc17 	ldw	r2,-16(fp)
 8042fc8:	10801868 	cmpgeui	r2,r2,97
 8042fcc:	1000021e 	bne	r2,zero,8042fd8 <alt_up_audio_play_l+0x40>
		return 0;
 8042fd0:	0005883a 	mov	r2,zero
 8042fd4:	00000506 	br	8042fec <alt_up_audio_play_l+0x54>
	else
		return (alt_up_audio_write_fifo(audio, buf, len, ALT_UP_AUDIO_LEFT));
 8042fd8:	000f883a 	mov	r7,zero
 8042fdc:	e1bfff17 	ldw	r6,-4(fp)
 8042fe0:	e17ffe17 	ldw	r5,-8(fp)
 8042fe4:	e13ffd17 	ldw	r4,-12(fp)
 8042fe8:	80430e00 	call	80430e0 <alt_up_audio_write_fifo>
}
 8042fec:	e037883a 	mov	sp,fp
 8042ff0:	dfc00117 	ldw	ra,4(sp)
 8042ff4:	df000017 	ldw	fp,0(sp)
 8042ff8:	dec00204 	addi	sp,sp,8
 8042ffc:	f800283a 	ret

08043000 <alt_up_audio_read_fifo>:

int alt_up_audio_read_fifo(alt_up_audio_dev *audio, unsigned int *buf, int len, int channel)
{
 8043000:	defff904 	addi	sp,sp,-28
 8043004:	df000615 	stw	fp,24(sp)
 8043008:	df000604 	addi	fp,sp,24
 804300c:	e13ffc15 	stw	r4,-16(fp)
 8043010:	e17ffd15 	stw	r5,-12(fp)
 8043014:	e1bffe15 	stw	r6,-8(fp)
 8043018:	e1ffff15 	stw	r7,-4(fp)
	unsigned int fifospace;
	int count = 0;
 804301c:	e03ffa15 	stw	zero,-24(fp)
	while ( count < len ) 
 8043020:	00002506 	br	80430b8 <alt_up_audio_read_fifo+0xb8>
	{
		// read the whole fifospace register
		fifospace = IORD_ALT_UP_AUDIO_FIFOSPACE(audio->base);
 8043024:	e0bffc17 	ldw	r2,-16(fp)
 8043028:	10800a17 	ldw	r2,40(r2)
 804302c:	10800104 	addi	r2,r2,4
 8043030:	10800037 	ldwio	r2,0(r2)
 8043034:	e0bffb15 	stw	r2,-20(fp)
		// extract the part for proper Channel Read Space
		fifospace = (channel == ALT_UP_AUDIO_LEFT) ? 
			(fifospace & ALT_UP_AUDIO_FIFOSPACE_RALC_MSK) >> ALT_UP_AUDIO_FIFOSPACE_RALC_OFST 
			:
 8043038:	e0bfff17 	ldw	r2,-4(fp)
 804303c:	1000041e 	bne	r2,zero,8043050 <alt_up_audio_read_fifo+0x50>
	{
		// read the whole fifospace register
		fifospace = IORD_ALT_UP_AUDIO_FIFOSPACE(audio->base);
		// extract the part for proper Channel Read Space
		fifospace = (channel == ALT_UP_AUDIO_LEFT) ? 
			(fifospace & ALT_UP_AUDIO_FIFOSPACE_RALC_MSK) >> ALT_UP_AUDIO_FIFOSPACE_RALC_OFST 
 8043040:	e0bffb17 	ldw	r2,-20(fp)
 8043044:	10bfc00c 	andi	r2,r2,65280
			:
 8043048:	1004d23a 	srli	r2,r2,8
 804304c:	00000206 	br	8043058 <alt_up_audio_read_fifo+0x58>
 8043050:	e0bffb17 	ldw	r2,-20(fp)
 8043054:	10803fcc 	andi	r2,r2,255
	while ( count < len ) 
	{
		// read the whole fifospace register
		fifospace = IORD_ALT_UP_AUDIO_FIFOSPACE(audio->base);
		// extract the part for proper Channel Read Space
		fifospace = (channel == ALT_UP_AUDIO_LEFT) ? 
 8043058:	e0bffb15 	stw	r2,-20(fp)
			(fifospace & ALT_UP_AUDIO_FIFOSPACE_RALC_MSK) >> ALT_UP_AUDIO_FIFOSPACE_RALC_OFST 
			:
			(fifospace & ALT_UP_AUDIO_FIFOSPACE_RARC_MSK) >> ALT_UP_AUDIO_FIFOSPACE_RARC_OFST;
		if (fifospace > 0) 
 804305c:	e0bffb17 	ldw	r2,-20(fp)
 8043060:	10001926 	beq	r2,zero,80430c8 <alt_up_audio_read_fifo+0xc8>
		{
			buf[count] = (channel == ALT_UP_AUDIO_LEFT) ? 
 8043064:	e0bffa17 	ldw	r2,-24(fp)
 8043068:	1085883a 	add	r2,r2,r2
 804306c:	1085883a 	add	r2,r2,r2
 8043070:	1007883a 	mov	r3,r2
 8043074:	e0bffd17 	ldw	r2,-12(fp)
 8043078:	10c5883a 	add	r2,r2,r3
 804307c:	e0ffff17 	ldw	r3,-4(fp)
 8043080:	1800051e 	bne	r3,zero,8043098 <alt_up_audio_read_fifo+0x98>
				IORD_ALT_UP_AUDIO_LEFTDATA(audio->base) :
 8043084:	e0fffc17 	ldw	r3,-16(fp)
 8043088:	18c00a17 	ldw	r3,40(r3)
 804308c:	18c00204 	addi	r3,r3,8
 8043090:	18c00037 	ldwio	r3,0(r3)
 8043094:	00000406 	br	80430a8 <alt_up_audio_read_fifo+0xa8>
				IORD_ALT_UP_AUDIO_RIGHTDATA(audio->base);
 8043098:	e0fffc17 	ldw	r3,-16(fp)
 804309c:	18c00a17 	ldw	r3,40(r3)
 80430a0:	18c00304 	addi	r3,r3,12
 80430a4:	18c00037 	ldwio	r3,0(r3)
			(fifospace & ALT_UP_AUDIO_FIFOSPACE_RALC_MSK) >> ALT_UP_AUDIO_FIFOSPACE_RALC_OFST 
			:
			(fifospace & ALT_UP_AUDIO_FIFOSPACE_RARC_MSK) >> ALT_UP_AUDIO_FIFOSPACE_RARC_OFST;
		if (fifospace > 0) 
		{
			buf[count] = (channel == ALT_UP_AUDIO_LEFT) ? 
 80430a8:	10c00015 	stw	r3,0(r2)
				IORD_ALT_UP_AUDIO_LEFTDATA(audio->base) :
				IORD_ALT_UP_AUDIO_RIGHTDATA(audio->base);
			count ++;
 80430ac:	e0bffa17 	ldw	r2,-24(fp)
 80430b0:	10800044 	addi	r2,r2,1
 80430b4:	e0bffa15 	stw	r2,-24(fp)

int alt_up_audio_read_fifo(alt_up_audio_dev *audio, unsigned int *buf, int len, int channel)
{
	unsigned int fifospace;
	int count = 0;
	while ( count < len ) 
 80430b8:	e0fffa17 	ldw	r3,-24(fp)
 80430bc:	e0bffe17 	ldw	r2,-8(fp)
 80430c0:	18bfd816 	blt	r3,r2,8043024 <__alt_data_end+0xfffc3024>
 80430c4:	00000106 	br	80430cc <alt_up_audio_read_fifo+0xcc>
			count ++;
		}
		else
		{
			// no more data to read
			break;
 80430c8:	0001883a 	nop
		}
	}
	return count;
 80430cc:	e0bffa17 	ldw	r2,-24(fp)
}
 80430d0:	e037883a 	mov	sp,fp
 80430d4:	df000017 	ldw	fp,0(sp)
 80430d8:	dec00104 	addi	sp,sp,4
 80430dc:	f800283a 	ret

080430e0 <alt_up_audio_write_fifo>:

int alt_up_audio_write_fifo(alt_up_audio_dev *audio, unsigned int *buf, int len, int channel)
{
 80430e0:	defff904 	addi	sp,sp,-28
 80430e4:	df000615 	stw	fp,24(sp)
 80430e8:	df000604 	addi	fp,sp,24
 80430ec:	e13ffc15 	stw	r4,-16(fp)
 80430f0:	e17ffd15 	stw	r5,-12(fp)
 80430f4:	e1bffe15 	stw	r6,-8(fp)
 80430f8:	e1ffff15 	stw	r7,-4(fp)
	unsigned int fifospace;
	int count = 0;
 80430fc:	e03ffa15 	stw	zero,-24(fp)
	while ( count < len ) 
 8043100:	00002f06 	br	80431c0 <alt_up_audio_write_fifo+0xe0>
	{
		// read the whole fifospace register
		fifospace = IORD_ALT_UP_AUDIO_FIFOSPACE(audio->base);
 8043104:	e0bffc17 	ldw	r2,-16(fp)
 8043108:	10800a17 	ldw	r2,40(r2)
 804310c:	10800104 	addi	r2,r2,4
 8043110:	10800037 	ldwio	r2,0(r2)
 8043114:	e0bffb15 	stw	r2,-20(fp)
		// extract the part for Left Channel Write Space 
		fifospace = (channel == ALT_UP_AUDIO_LEFT) ? 
			(fifospace & ALT_UP_AUDIO_FIFOSPACE_WSLC_MSK) >> ALT_UP_AUDIO_FIFOSPACE_WSLC_OFST :
 8043118:	e0bfff17 	ldw	r2,-4(fp)
 804311c:	1000031e 	bne	r2,zero,804312c <alt_up_audio_write_fifo+0x4c>
 8043120:	e0bffb17 	ldw	r2,-20(fp)
 8043124:	1004d63a 	srli	r2,r2,24
 8043128:	00000306 	br	8043138 <alt_up_audio_write_fifo+0x58>
			(fifospace & ALT_UP_AUDIO_FIFOSPACE_WSRC_MSK) >> ALT_UP_AUDIO_FIFOSPACE_WSRC_OFST;
 804312c:	e0bffb17 	ldw	r2,-20(fp)
 8043130:	10803fec 	andhi	r2,r2,255
	{
		// read the whole fifospace register
		fifospace = IORD_ALT_UP_AUDIO_FIFOSPACE(audio->base);
		// extract the part for Left Channel Write Space 
		fifospace = (channel == ALT_UP_AUDIO_LEFT) ? 
			(fifospace & ALT_UP_AUDIO_FIFOSPACE_WSLC_MSK) >> ALT_UP_AUDIO_FIFOSPACE_WSLC_OFST :
 8043134:	1004d43a 	srli	r2,r2,16
	while ( count < len ) 
	{
		// read the whole fifospace register
		fifospace = IORD_ALT_UP_AUDIO_FIFOSPACE(audio->base);
		// extract the part for Left Channel Write Space 
		fifospace = (channel == ALT_UP_AUDIO_LEFT) ? 
 8043138:	e0bffb15 	stw	r2,-20(fp)
			(fifospace & ALT_UP_AUDIO_FIFOSPACE_WSLC_MSK) >> ALT_UP_AUDIO_FIFOSPACE_WSLC_OFST :
			(fifospace & ALT_UP_AUDIO_FIFOSPACE_WSRC_MSK) >> ALT_UP_AUDIO_FIFOSPACE_WSRC_OFST;
		if (fifospace > 0) 
 804313c:	e0bffb17 	ldw	r2,-20(fp)
 8043140:	10002326 	beq	r2,zero,80431d0 <alt_up_audio_write_fifo+0xf0>
		{
			if (channel == ALT_UP_AUDIO_LEFT) 
 8043144:	e0bfff17 	ldw	r2,-4(fp)
 8043148:	10000f1e 	bne	r2,zero,8043188 <alt_up_audio_write_fifo+0xa8>
				IOWR_ALT_UP_AUDIO_LEFTDATA(audio->base, buf[count++]);
 804314c:	e0bffc17 	ldw	r2,-16(fp)
 8043150:	10800a17 	ldw	r2,40(r2)
 8043154:	10800204 	addi	r2,r2,8
 8043158:	1009883a 	mov	r4,r2
 804315c:	e0bffa17 	ldw	r2,-24(fp)
 8043160:	10c00044 	addi	r3,r2,1
 8043164:	e0fffa15 	stw	r3,-24(fp)
 8043168:	1085883a 	add	r2,r2,r2
 804316c:	1085883a 	add	r2,r2,r2
 8043170:	1007883a 	mov	r3,r2
 8043174:	e0bffd17 	ldw	r2,-12(fp)
 8043178:	10c5883a 	add	r2,r2,r3
 804317c:	10800017 	ldw	r2,0(r2)
 8043180:	20800035 	stwio	r2,0(r4)
 8043184:	00000e06 	br	80431c0 <alt_up_audio_write_fifo+0xe0>
			else
				IOWR_ALT_UP_AUDIO_RIGHTDATA(audio->base, buf[count++]);
 8043188:	e0bffc17 	ldw	r2,-16(fp)
 804318c:	10800a17 	ldw	r2,40(r2)
 8043190:	10800304 	addi	r2,r2,12
 8043194:	1009883a 	mov	r4,r2
 8043198:	e0bffa17 	ldw	r2,-24(fp)
 804319c:	10c00044 	addi	r3,r2,1
 80431a0:	e0fffa15 	stw	r3,-24(fp)
 80431a4:	1085883a 	add	r2,r2,r2
 80431a8:	1085883a 	add	r2,r2,r2
 80431ac:	1007883a 	mov	r3,r2
 80431b0:	e0bffd17 	ldw	r2,-12(fp)
 80431b4:	10c5883a 	add	r2,r2,r3
 80431b8:	10800017 	ldw	r2,0(r2)
 80431bc:	20800035 	stwio	r2,0(r4)

int alt_up_audio_write_fifo(alt_up_audio_dev *audio, unsigned int *buf, int len, int channel)
{
	unsigned int fifospace;
	int count = 0;
	while ( count < len ) 
 80431c0:	e0fffa17 	ldw	r3,-24(fp)
 80431c4:	e0bffe17 	ldw	r2,-8(fp)
 80431c8:	18bfce16 	blt	r3,r2,8043104 <__alt_data_end+0xfffc3104>
 80431cc:	00000106 	br	80431d4 <alt_up_audio_write_fifo+0xf4>
				IOWR_ALT_UP_AUDIO_RIGHTDATA(audio->base, buf[count++]);
		}
		else
		{
			// no more space to write
			break;
 80431d0:	0001883a 	nop
		}
	}
	return count;
 80431d4:	e0bffa17 	ldw	r2,-24(fp)
}
 80431d8:	e037883a 	mov	sp,fp
 80431dc:	df000017 	ldw	fp,0(sp)
 80431e0:	dec00104 	addi	sp,sp,4
 80431e4:	f800283a 	ret

080431e8 <alt_up_audio_read_fifo_head>:

unsigned int alt_up_audio_read_fifo_head(alt_up_audio_dev *audio, int channel)
{
 80431e8:	defffd04 	addi	sp,sp,-12
 80431ec:	df000215 	stw	fp,8(sp)
 80431f0:	df000204 	addi	fp,sp,8
 80431f4:	e13ffe15 	stw	r4,-8(fp)
 80431f8:	e17fff15 	stw	r5,-4(fp)
	return ( (channel == ALT_UP_AUDIO_LEFT) ?  IORD_ALT_UP_AUDIO_LEFTDATA(audio->base) :
 80431fc:	e0bfff17 	ldw	r2,-4(fp)
 8043200:	1000051e 	bne	r2,zero,8043218 <alt_up_audio_read_fifo_head+0x30>
 8043204:	e0bffe17 	ldw	r2,-8(fp)
 8043208:	10800a17 	ldw	r2,40(r2)
 804320c:	10800204 	addi	r2,r2,8
 8043210:	10800037 	ldwio	r2,0(r2)
 8043214:	00000406 	br	8043228 <alt_up_audio_read_fifo_head+0x40>
				IORD_ALT_UP_AUDIO_RIGHTDATA(audio->base) );
 8043218:	e0bffe17 	ldw	r2,-8(fp)
 804321c:	10800a17 	ldw	r2,40(r2)
 8043220:	10800304 	addi	r2,r2,12
 8043224:	10800037 	ldwio	r2,0(r2)
}
 8043228:	e037883a 	mov	sp,fp
 804322c:	df000017 	ldw	fp,0(sp)
 8043230:	dec00104 	addi	sp,sp,4
 8043234:	f800283a 	ret

08043238 <alt_up_audio_write_fifo_head>:

void alt_up_audio_write_fifo_head(alt_up_audio_dev *audio, unsigned int data, int channel)
{
 8043238:	defffc04 	addi	sp,sp,-16
 804323c:	df000315 	stw	fp,12(sp)
 8043240:	df000304 	addi	fp,sp,12
 8043244:	e13ffd15 	stw	r4,-12(fp)
 8043248:	e17ffe15 	stw	r5,-8(fp)
 804324c:	e1bfff15 	stw	r6,-4(fp)
	if (channel == ALT_UP_AUDIO_LEFT) 
 8043250:	e0bfff17 	ldw	r2,-4(fp)
 8043254:	1000071e 	bne	r2,zero,8043274 <alt_up_audio_write_fifo_head+0x3c>
		IOWR_ALT_UP_AUDIO_LEFTDATA(audio->base, data);
 8043258:	e0bffd17 	ldw	r2,-12(fp)
 804325c:	10800a17 	ldw	r2,40(r2)
 8043260:	10800204 	addi	r2,r2,8
 8043264:	1007883a 	mov	r3,r2
 8043268:	e0bffe17 	ldw	r2,-8(fp)
 804326c:	18800035 	stwio	r2,0(r3)
	else
		IOWR_ALT_UP_AUDIO_RIGHTDATA(audio->base, data);
}
 8043270:	00000606 	br	804328c <alt_up_audio_write_fifo_head+0x54>
void alt_up_audio_write_fifo_head(alt_up_audio_dev *audio, unsigned int data, int channel)
{
	if (channel == ALT_UP_AUDIO_LEFT) 
		IOWR_ALT_UP_AUDIO_LEFTDATA(audio->base, data);
	else
		IOWR_ALT_UP_AUDIO_RIGHTDATA(audio->base, data);
 8043274:	e0bffd17 	ldw	r2,-12(fp)
 8043278:	10800a17 	ldw	r2,40(r2)
 804327c:	10800304 	addi	r2,r2,12
 8043280:	1007883a 	mov	r3,r2
 8043284:	e0bffe17 	ldw	r2,-8(fp)
 8043288:	18800035 	stwio	r2,0(r3)
}
 804328c:	0001883a 	nop
 8043290:	e037883a 	mov	sp,fp
 8043294:	df000017 	ldw	fp,0(sp)
 8043298:	dec00104 	addi	sp,sp,4
 804329c:	f800283a 	ret

080432a0 <alt_up_av_config_open_dev>:

#include "altera_up_avalon_audio_and_video_config.h"
#include "altera_up_avalon_audio_and_video_config_regs.h"

alt_up_av_config_dev* alt_up_av_config_open_dev(const char* name)
{
 80432a0:	defffc04 	addi	sp,sp,-16
 80432a4:	dfc00315 	stw	ra,12(sp)
 80432a8:	df000215 	stw	fp,8(sp)
 80432ac:	df000204 	addi	fp,sp,8
 80432b0:	e13fff15 	stw	r4,-4(fp)
  // find the device from the device list 
  // (see altera_hal/HAL/inc/priv/alt_file.h 
  // and altera_hal/HAL/src/alt_find_dev.c 
  // for details)
  alt_up_av_config_dev *dev = (alt_up_av_config_dev*)alt_find_dev(name, &alt_dev_list);
 80432b4:	d1600d04 	addi	r5,gp,-32716
 80432b8:	e13fff17 	ldw	r4,-4(fp)
 80432bc:	8043de80 	call	8043de8 <alt_find_dev>
 80432c0:	e0bffe15 	stw	r2,-8(fp)
  dev->type = (IORD_ALT_UP_AV_CONFIG_STATUS(dev->base) & ALT_UP_AV_CONFIG_STATUS_CFG_MSK) >> ALT_UP_AV_CONFIG_STATUS_CFG_OFST;
 80432c4:	e0bffe17 	ldw	r2,-8(fp)
 80432c8:	10800a17 	ldw	r2,40(r2)
 80432cc:	10800104 	addi	r2,r2,4
 80432d0:	10800037 	ldwio	r2,0(r2)
 80432d4:	10803fec 	andhi	r2,r2,255
 80432d8:	1005d43a 	srai	r2,r2,16
 80432dc:	1007883a 	mov	r3,r2
 80432e0:	e0bffe17 	ldw	r2,-8(fp)
 80432e4:	10c00b15 	stw	r3,44(r2)

  return dev;
 80432e8:	e0bffe17 	ldw	r2,-8(fp)
}
 80432ec:	e037883a 	mov	sp,fp
 80432f0:	dfc00117 	ldw	ra,4(sp)
 80432f4:	df000017 	ldw	fp,0(sp)
 80432f8:	dec00204 	addi	sp,sp,8
 80432fc:	f800283a 	ret

08043300 <alt_up_av_config_write_data>:
 * @param data --  the data to be sent
 *
 * @return 0 for success
 **/
int alt_up_av_config_write_data(alt_up_av_config_dev *av_config, alt_u32 addr, alt_u32 data)
{
 8043300:	defffc04 	addi	sp,sp,-16
 8043304:	df000315 	stw	fp,12(sp)
 8043308:	df000304 	addi	fp,sp,12
 804330c:	e13ffd15 	stw	r4,-12(fp)
 8043310:	e17ffe15 	stw	r5,-8(fp)
 8043314:	e1bfff15 	stw	r6,-4(fp)
	// set the register address in the Address register
	IOWR_ALT_UP_AV_CONFIG_ADDRESS(av_config->base, addr & ALT_UP_AV_CONFIG_ADDRESS_VALID_MSK); 
 8043318:	e0bffd17 	ldw	r2,-12(fp)
 804331c:	10800a17 	ldw	r2,40(r2)
 8043320:	10800204 	addi	r2,r2,8
 8043324:	1007883a 	mov	r3,r2
 8043328:	e0bffe17 	ldw	r2,-8(fp)
 804332c:	10803fcc 	andi	r2,r2,255
 8043330:	18800035 	stwio	r2,0(r3)

	// write data to the device Data register
	IOWR_ALT_UP_AV_CONFIG_DATA(av_config->base, data & ALT_UP_AV_CONFIG_DATA_VALID_MSK); 
 8043334:	e0bffd17 	ldw	r2,-12(fp)
 8043338:	10800a17 	ldw	r2,40(r2)
 804333c:	10800304 	addi	r2,r2,12
 8043340:	1007883a 	mov	r3,r2
 8043344:	e0bfff17 	ldw	r2,-4(fp)
 8043348:	10bfffcc 	andi	r2,r2,65535
 804334c:	18800035 	stwio	r2,0(r3)

	return 0;
 8043350:	0005883a 	mov	r2,zero
}
 8043354:	e037883a 	mov	sp,fp
 8043358:	df000017 	ldw	fp,0(sp)
 804335c:	dec00104 	addi	sp,sp,4
 8043360:	f800283a 	ret

08043364 <alt_up_av_config_read_data>:
 * @param data -- a pointer to the location where the read data should be stored
 *
 * @return 0 for success or -1 for failure
 **/
int alt_up_av_config_read_data(alt_up_av_config_dev *av_config, alt_u32 addr, alt_u32 * data)
{
 8043364:	defffb04 	addi	sp,sp,-20
 8043368:	dfc00415 	stw	ra,16(sp)
 804336c:	df000315 	stw	fp,12(sp)
 8043370:	df000304 	addi	fp,sp,12
 8043374:	e13ffd15 	stw	r4,-12(fp)
 8043378:	e17ffe15 	stw	r5,-8(fp)
 804337c:	e1bfff15 	stw	r6,-4(fp)
	// set the register address in the Address register
	IOWR_ALT_UP_AV_CONFIG_ADDRESS(av_config->base, addr & ALT_UP_AV_CONFIG_ADDRESS_VALID_MSK); 
 8043380:	e0bffd17 	ldw	r2,-12(fp)
 8043384:	10800a17 	ldw	r2,40(r2)
 8043388:	10800204 	addi	r2,r2,8
 804338c:	1007883a 	mov	r3,r2
 8043390:	e0bffe17 	ldw	r2,-8(fp)
 8043394:	10803fcc 	andi	r2,r2,255
 8043398:	18800035 	stwio	r2,0(r3)

	// write data to the device Data register
	*(data) = IORD_ALT_UP_AV_CONFIG_DATA(av_config->base); 
 804339c:	e0bffd17 	ldw	r2,-12(fp)
 80433a0:	10800a17 	ldw	r2,40(r2)
 80433a4:	10800304 	addi	r2,r2,12
 80433a8:	10800037 	ldwio	r2,0(r2)
 80433ac:	1007883a 	mov	r3,r2
 80433b0:	e0bfff17 	ldw	r2,-4(fp)
 80433b4:	10c00015 	stw	r3,0(r2)

	// check acknowledge is 0
	if (alt_up_av_config_read_acknowledge(av_config))
 80433b8:	e13ffd17 	ldw	r4,-12(fp)
 80433bc:	80434880 	call	8043488 <alt_up_av_config_read_acknowledge>
 80433c0:	10000226 	beq	r2,zero,80433cc <alt_up_av_config_read_data+0x68>
		return -1;
 80433c4:	00bfffc4 	movi	r2,-1
 80433c8:	00000106 	br	80433d0 <alt_up_av_config_read_data+0x6c>

	return 0;
 80433cc:	0005883a 	mov	r2,zero
}
 80433d0:	e037883a 	mov	sp,fp
 80433d4:	dfc00117 	ldw	ra,4(sp)
 80433d8:	df000017 	ldw	fp,0(sp)
 80433dc:	dec00204 	addi	sp,sp,8
 80433e0:	f800283a 	ret

080433e4 <alt_up_av_config_reset>:

int alt_up_av_config_reset(alt_up_av_config_dev *av_config)
{
 80433e4:	defffe04 	addi	sp,sp,-8
 80433e8:	df000115 	stw	fp,4(sp)
 80433ec:	df000104 	addi	fp,sp,4
 80433f0:	e13fff15 	stw	r4,-4(fp)
	IOWR_ALT_UP_AV_CONFIG_CONTROL_RESET(av_config->base);
 80433f4:	e0bfff17 	ldw	r2,-4(fp)
 80433f8:	10800a17 	ldw	r2,40(r2)
 80433fc:	1007883a 	mov	r3,r2
 8043400:	00800044 	movi	r2,1
 8043404:	18800025 	stbio	r2,0(r3)
	return 0;
 8043408:	0005883a 	mov	r2,zero
}
 804340c:	e037883a 	mov	sp,fp
 8043410:	df000017 	ldw	fp,0(sp)
 8043414:	dec00104 	addi	sp,sp,4
 8043418:	f800283a 	ret

0804341c <alt_up_av_config_enable_interrupt>:

int alt_up_av_config_enable_interrupt(alt_up_av_config_dev *av_config)
{
 804341c:	defffe04 	addi	sp,sp,-8
 8043420:	df000115 	stw	fp,4(sp)
 8043424:	df000104 	addi	fp,sp,4
 8043428:	e13fff15 	stw	r4,-4(fp)
	IOWR_ALT_UP_AV_CONFIG_CONTROL_RIE_ENABLE(av_config->base);
 804342c:	e0bfff17 	ldw	r2,-4(fp)
 8043430:	10800a17 	ldw	r2,40(r2)
 8043434:	1007883a 	mov	r3,r2
 8043438:	00800084 	movi	r2,2
 804343c:	18800025 	stbio	r2,0(r3)
	return 0;
 8043440:	0005883a 	mov	r2,zero
}
 8043444:	e037883a 	mov	sp,fp
 8043448:	df000017 	ldw	fp,0(sp)
 804344c:	dec00104 	addi	sp,sp,4
 8043450:	f800283a 	ret

08043454 <alt_up_av_config_disable_interrupt>:

int alt_up_av_config_disable_interrupt(alt_up_av_config_dev *av_config)
{
 8043454:	defffe04 	addi	sp,sp,-8
 8043458:	df000115 	stw	fp,4(sp)
 804345c:	df000104 	addi	fp,sp,4
 8043460:	e13fff15 	stw	r4,-4(fp)
	IOWR_ALT_UP_AV_CONFIG_CONTROL_RIE_DISABLE(av_config->base);
 8043464:	e0bfff17 	ldw	r2,-4(fp)
 8043468:	10800a17 	ldw	r2,40(r2)
 804346c:	0007883a 	mov	r3,zero
 8043470:	10c00025 	stbio	r3,0(r2)
	return 0;
 8043474:	0005883a 	mov	r2,zero
}
 8043478:	e037883a 	mov	sp,fp
 804347c:	df000017 	ldw	fp,0(sp)
 8043480:	dec00104 	addi	sp,sp,4
 8043484:	f800283a 	ret

08043488 <alt_up_av_config_read_acknowledge>:

int alt_up_av_config_read_acknowledge(alt_up_av_config_dev *av_config)
{
 8043488:	defffe04 	addi	sp,sp,-8
 804348c:	df000115 	stw	fp,4(sp)
 8043490:	df000104 	addi	fp,sp,4
 8043494:	e13fff15 	stw	r4,-4(fp)
	if ((IORD_ALT_UP_AV_CONFIG_STATUS(av_config->base) & ALT_UP_AV_CONFIG_STATUS_RDY_MSK) >> ALT_UP_AV_CONFIG_STATUS_RDY_OFST)
 8043498:	e0bfff17 	ldw	r2,-4(fp)
 804349c:	10800a17 	ldw	r2,40(r2)
 80434a0:	10800104 	addi	r2,r2,4
 80434a4:	10800037 	ldwio	r2,0(r2)
 80434a8:	1080008c 	andi	r2,r2,2
 80434ac:	1005d07a 	srai	r2,r2,1
 80434b0:	10000626 	beq	r2,zero,80434cc <alt_up_av_config_read_acknowledge+0x44>
		return ((IORD_ALT_UP_AV_CONFIG_STATUS(av_config->base) & ALT_UP_AV_CONFIG_STATUS_ACK_MSK) >> ALT_UP_AV_CONFIG_STATUS_ACK_OFST);
 80434b4:	e0bfff17 	ldw	r2,-4(fp)
 80434b8:	10800a17 	ldw	r2,40(r2)
 80434bc:	10800104 	addi	r2,r2,4
 80434c0:	10800037 	ldwio	r2,0(r2)
 80434c4:	1080004c 	andi	r2,r2,1
 80434c8:	00000106 	br	80434d0 <alt_up_av_config_read_acknowledge+0x48>
	return -1;
 80434cc:	00bfffc4 	movi	r2,-1
}
 80434d0:	e037883a 	mov	sp,fp
 80434d4:	df000017 	ldw	fp,0(sp)
 80434d8:	dec00104 	addi	sp,sp,4
 80434dc:	f800283a 	ret

080434e0 <alt_up_av_config_read_ready>:

int alt_up_av_config_read_ready(alt_up_av_config_dev *av_config)
{
 80434e0:	defffe04 	addi	sp,sp,-8
 80434e4:	df000115 	stw	fp,4(sp)
 80434e8:	df000104 	addi	fp,sp,4
 80434ec:	e13fff15 	stw	r4,-4(fp)
	return ((IORD_ALT_UP_AV_CONFIG_STATUS(av_config->base) & ALT_UP_AV_CONFIG_STATUS_RDY_MSK) >> ALT_UP_AV_CONFIG_STATUS_RDY_OFST);
 80434f0:	e0bfff17 	ldw	r2,-4(fp)
 80434f4:	10800a17 	ldw	r2,40(r2)
 80434f8:	10800104 	addi	r2,r2,4
 80434fc:	10800037 	ldwio	r2,0(r2)
 8043500:	1080008c 	andi	r2,r2,2
 8043504:	1005d07a 	srai	r2,r2,1
}
 8043508:	e037883a 	mov	sp,fp
 804350c:	df000017 	ldw	fp,0(sp)
 8043510:	dec00104 	addi	sp,sp,4
 8043514:	f800283a 	ret

08043518 <alt_up_av_config_write_audio_cfg_register>:

int alt_up_av_config_write_audio_cfg_register(alt_up_av_config_dev *av_config, alt_u32 addr, alt_u32 data)
{
 8043518:	defffa04 	addi	sp,sp,-24
 804351c:	dfc00515 	stw	ra,20(sp)
 8043520:	df000415 	stw	fp,16(sp)
 8043524:	df000404 	addi	fp,sp,16
 8043528:	e13ffd15 	stw	r4,-12(fp)
 804352c:	e17ffe15 	stw	r5,-8(fp)
 8043530:	e1bfff15 	stw	r6,-4(fp)
	// check the device is indeed audio configuration
	if (av_config->type != ON_BOARD_AUDIO_ONLY_CONFIG && av_config->type != ON_BOARD_DE2_CONFIG && av_config->type != ON_BOARD_DE2_70_CONFIG && av_config->type != ON_BOARD_DE2_115_CONFIG)
 8043534:	e0bffd17 	ldw	r2,-12(fp)
 8043538:	10800b17 	ldw	r2,44(r2)
 804353c:	10800060 	cmpeqi	r2,r2,1
 8043540:	10000e1e 	bne	r2,zero,804357c <alt_up_av_config_write_audio_cfg_register+0x64>
 8043544:	e0bffd17 	ldw	r2,-12(fp)
 8043548:	10800b17 	ldw	r2,44(r2)
 804354c:	108000a0 	cmpeqi	r2,r2,2
 8043550:	10000a1e 	bne	r2,zero,804357c <alt_up_av_config_write_audio_cfg_register+0x64>
 8043554:	e0bffd17 	ldw	r2,-12(fp)
 8043558:	10800b17 	ldw	r2,44(r2)
 804355c:	108000e0 	cmpeqi	r2,r2,3
 8043560:	1000061e 	bne	r2,zero,804357c <alt_up_av_config_write_audio_cfg_register+0x64>
 8043564:	e0bffd17 	ldw	r2,-12(fp)
 8043568:	10800b17 	ldw	r2,44(r2)
 804356c:	10800120 	cmpeqi	r2,r2,4
 8043570:	1000021e 	bne	r2,zero,804357c <alt_up_av_config_write_audio_cfg_register+0x64>
		return -EINVAL;
 8043574:	00bffa84 	movi	r2,-22
 8043578:	00000b06 	br	80435a8 <alt_up_av_config_write_audio_cfg_register+0x90>

	// set the audio device to be configured in the Control register
	SELECTED_ON_BOARD_DEVICE device = AUDIO_DEVICE;
 804357c:	e03ffc15 	stw	zero,-16(fp)
	IOWR_ALT_UP_AV_CONFIG_CONTROL_DEVICE(av_config->base, device);
 8043580:	e0bffd17 	ldw	r2,-12(fp)
 8043584:	10800a17 	ldw	r2,40(r2)
 8043588:	10800084 	addi	r2,r2,2
 804358c:	1007883a 	mov	r3,r2
 8043590:	e0bffc17 	ldw	r2,-16(fp)
 8043594:	18800025 	stbio	r2,0(r3)

	return alt_up_av_config_write_data(av_config, addr, data);
 8043598:	e1bfff17 	ldw	r6,-4(fp)
 804359c:	e17ffe17 	ldw	r5,-8(fp)
 80435a0:	e13ffd17 	ldw	r4,-12(fp)
 80435a4:	80433000 	call	8043300 <alt_up_av_config_write_data>
}
 80435a8:	e037883a 	mov	sp,fp
 80435ac:	dfc00117 	ldw	ra,4(sp)
 80435b0:	df000017 	ldw	fp,0(sp)
 80435b4:	dec00204 	addi	sp,sp,8
 80435b8:	f800283a 	ret

080435bc <alt_up_av_config_read_video_cfg_register>:

int alt_up_av_config_read_video_cfg_register(alt_up_av_config_dev *av_config, alt_u32 addr, alt_u32 *data, SELECTED_ON_BOARD_DEVICE video_port)
{
 80435bc:	defffa04 	addi	sp,sp,-24
 80435c0:	dfc00515 	stw	ra,20(sp)
 80435c4:	df000415 	stw	fp,16(sp)
 80435c8:	df000404 	addi	fp,sp,16
 80435cc:	e13ffc15 	stw	r4,-16(fp)
 80435d0:	e17ffd15 	stw	r5,-12(fp)
 80435d4:	e1bffe15 	stw	r6,-8(fp)
 80435d8:	e1ffff15 	stw	r7,-4(fp)
	// check the device is indeed audio configuration
	if (av_config->type != ON_BOARD_DE2_CONFIG && av_config->type != ON_BOARD_DE2_70_CONFIG && av_config->type != ON_BOARD_DE2_115_CONFIG)
 80435dc:	e0bffc17 	ldw	r2,-16(fp)
 80435e0:	10800b17 	ldw	r2,44(r2)
 80435e4:	108000a0 	cmpeqi	r2,r2,2
 80435e8:	10000a1e 	bne	r2,zero,8043614 <alt_up_av_config_read_video_cfg_register+0x58>
 80435ec:	e0bffc17 	ldw	r2,-16(fp)
 80435f0:	10800b17 	ldw	r2,44(r2)
 80435f4:	108000e0 	cmpeqi	r2,r2,3
 80435f8:	1000061e 	bne	r2,zero,8043614 <alt_up_av_config_read_video_cfg_register+0x58>
 80435fc:	e0bffc17 	ldw	r2,-16(fp)
 8043600:	10800b17 	ldw	r2,44(r2)
 8043604:	10800120 	cmpeqi	r2,r2,4
 8043608:	1000021e 	bne	r2,zero,8043614 <alt_up_av_config_read_video_cfg_register+0x58>
		return -EINVAL;
 804360c:	00bffa84 	movi	r2,-22
 8043610:	00001f06 	br	8043690 <alt_up_av_config_read_video_cfg_register+0xd4>

	if (av_config->type == ON_BOARD_DE2_CONFIG || av_config->type == ON_BOARD_DE2_115_CONFIG)
 8043614:	e0bffc17 	ldw	r2,-16(fp)
 8043618:	10800b17 	ldw	r2,44(r2)
 804361c:	108000a0 	cmpeqi	r2,r2,2
 8043620:	1000041e 	bne	r2,zero,8043634 <alt_up_av_config_read_video_cfg_register+0x78>
 8043624:	e0bffc17 	ldw	r2,-16(fp)
 8043628:	10800b17 	ldw	r2,44(r2)
 804362c:	10800118 	cmpnei	r2,r2,4
 8043630:	1000051e 	bne	r2,zero,8043648 <alt_up_av_config_read_video_cfg_register+0x8c>
	{
		if (video_port != FIRST_VIDEO_DEVICE)
 8043634:	e0bfff17 	ldw	r2,-4(fp)
 8043638:	10800060 	cmpeqi	r2,r2,1
 804363c:	10000a1e 	bne	r2,zero,8043668 <alt_up_av_config_read_video_cfg_register+0xac>
			return -EINVAL;
 8043640:	00bffa84 	movi	r2,-22
 8043644:	00001206 	br	8043690 <alt_up_av_config_read_video_cfg_register+0xd4>
	} else {
		if ((video_port != FIRST_VIDEO_DEVICE) && (video_port != SECOND_VIDEO_DEVICE))
 8043648:	e0bfff17 	ldw	r2,-4(fp)
 804364c:	10800060 	cmpeqi	r2,r2,1
 8043650:	1000051e 	bne	r2,zero,8043668 <alt_up_av_config_read_video_cfg_register+0xac>
 8043654:	e0bfff17 	ldw	r2,-4(fp)
 8043658:	108000a0 	cmpeqi	r2,r2,2
 804365c:	1000021e 	bne	r2,zero,8043668 <alt_up_av_config_read_video_cfg_register+0xac>
			return -EINVAL;
 8043660:	00bffa84 	movi	r2,-22
 8043664:	00000a06 	br	8043690 <alt_up_av_config_read_video_cfg_register+0xd4>
	}

	// set the video device to be configured in the Control register
	IOWR_ALT_UP_AV_CONFIG_CONTROL_DEVICE(av_config->base, video_port);
 8043668:	e0bffc17 	ldw	r2,-16(fp)
 804366c:	10800a17 	ldw	r2,40(r2)
 8043670:	10800084 	addi	r2,r2,2
 8043674:	1007883a 	mov	r3,r2
 8043678:	e0bfff17 	ldw	r2,-4(fp)
 804367c:	18800025 	stbio	r2,0(r3)

	return alt_up_av_config_read_data(av_config, addr, data);
 8043680:	e1bffe17 	ldw	r6,-8(fp)
 8043684:	e17ffd17 	ldw	r5,-12(fp)
 8043688:	e13ffc17 	ldw	r4,-16(fp)
 804368c:	80433640 	call	8043364 <alt_up_av_config_read_data>
}
 8043690:	e037883a 	mov	sp,fp
 8043694:	dfc00117 	ldw	ra,4(sp)
 8043698:	df000017 	ldw	fp,0(sp)
 804369c:	dec00204 	addi	sp,sp,8
 80436a0:	f800283a 	ret

080436a4 <alt_up_av_config_write_video_cfg_register>:

int alt_up_av_config_write_video_cfg_register(alt_up_av_config_dev *av_config, alt_u32 addr, alt_u32 data, SELECTED_ON_BOARD_DEVICE video_port)
{
 80436a4:	defffa04 	addi	sp,sp,-24
 80436a8:	dfc00515 	stw	ra,20(sp)
 80436ac:	df000415 	stw	fp,16(sp)
 80436b0:	df000404 	addi	fp,sp,16
 80436b4:	e13ffc15 	stw	r4,-16(fp)
 80436b8:	e17ffd15 	stw	r5,-12(fp)
 80436bc:	e1bffe15 	stw	r6,-8(fp)
 80436c0:	e1ffff15 	stw	r7,-4(fp)
	// check the device is indeed audio configuration
	if (av_config->type != ON_BOARD_DE2_CONFIG && av_config->type != ON_BOARD_DE2_70_CONFIG && av_config->type != ON_BOARD_DE2_115_CONFIG)
 80436c4:	e0bffc17 	ldw	r2,-16(fp)
 80436c8:	10800b17 	ldw	r2,44(r2)
 80436cc:	108000a0 	cmpeqi	r2,r2,2
 80436d0:	10000a1e 	bne	r2,zero,80436fc <alt_up_av_config_write_video_cfg_register+0x58>
 80436d4:	e0bffc17 	ldw	r2,-16(fp)
 80436d8:	10800b17 	ldw	r2,44(r2)
 80436dc:	108000e0 	cmpeqi	r2,r2,3
 80436e0:	1000061e 	bne	r2,zero,80436fc <alt_up_av_config_write_video_cfg_register+0x58>
 80436e4:	e0bffc17 	ldw	r2,-16(fp)
 80436e8:	10800b17 	ldw	r2,44(r2)
 80436ec:	10800120 	cmpeqi	r2,r2,4
 80436f0:	1000021e 	bne	r2,zero,80436fc <alt_up_av_config_write_video_cfg_register+0x58>
		return -EINVAL;
 80436f4:	00bffa84 	movi	r2,-22
 80436f8:	00001f06 	br	8043778 <alt_up_av_config_write_video_cfg_register+0xd4>

	if (av_config->type == ON_BOARD_DE2_CONFIG || av_config->type == ON_BOARD_DE2_115_CONFIG)
 80436fc:	e0bffc17 	ldw	r2,-16(fp)
 8043700:	10800b17 	ldw	r2,44(r2)
 8043704:	108000a0 	cmpeqi	r2,r2,2
 8043708:	1000041e 	bne	r2,zero,804371c <alt_up_av_config_write_video_cfg_register+0x78>
 804370c:	e0bffc17 	ldw	r2,-16(fp)
 8043710:	10800b17 	ldw	r2,44(r2)
 8043714:	10800118 	cmpnei	r2,r2,4
 8043718:	1000051e 	bne	r2,zero,8043730 <alt_up_av_config_write_video_cfg_register+0x8c>
	{
		if (video_port != FIRST_VIDEO_DEVICE)
 804371c:	e0bfff17 	ldw	r2,-4(fp)
 8043720:	10800060 	cmpeqi	r2,r2,1
 8043724:	10000a1e 	bne	r2,zero,8043750 <alt_up_av_config_write_video_cfg_register+0xac>
			return -EINVAL;
 8043728:	00bffa84 	movi	r2,-22
 804372c:	00001206 	br	8043778 <alt_up_av_config_write_video_cfg_register+0xd4>
	} else {
		if ((video_port != FIRST_VIDEO_DEVICE) && (video_port != SECOND_VIDEO_DEVICE))
 8043730:	e0bfff17 	ldw	r2,-4(fp)
 8043734:	10800060 	cmpeqi	r2,r2,1
 8043738:	1000051e 	bne	r2,zero,8043750 <alt_up_av_config_write_video_cfg_register+0xac>
 804373c:	e0bfff17 	ldw	r2,-4(fp)
 8043740:	108000a0 	cmpeqi	r2,r2,2
 8043744:	1000021e 	bne	r2,zero,8043750 <alt_up_av_config_write_video_cfg_register+0xac>
			return -EINVAL;
 8043748:	00bffa84 	movi	r2,-22
 804374c:	00000a06 	br	8043778 <alt_up_av_config_write_video_cfg_register+0xd4>
	}

	// set the video device to be configured in the Control register
	IOWR_ALT_UP_AV_CONFIG_CONTROL_DEVICE(av_config->base, video_port);
 8043750:	e0bffc17 	ldw	r2,-16(fp)
 8043754:	10800a17 	ldw	r2,40(r2)
 8043758:	10800084 	addi	r2,r2,2
 804375c:	1007883a 	mov	r3,r2
 8043760:	e0bfff17 	ldw	r2,-4(fp)
 8043764:	18800025 	stbio	r2,0(r3)

	return alt_up_av_config_write_data(av_config, addr, data);
 8043768:	e1bffe17 	ldw	r6,-8(fp)
 804376c:	e17ffd17 	ldw	r5,-12(fp)
 8043770:	e13ffc17 	ldw	r4,-16(fp)
 8043774:	80433000 	call	8043300 <alt_up_av_config_write_data>
}
 8043778:	e037883a 	mov	sp,fp
 804377c:	dfc00117 	ldw	ra,4(sp)
 8043780:	df000017 	ldw	fp,0(sp)
 8043784:	dec00204 	addi	sp,sp,8
 8043788:	f800283a 	ret

0804378c <alt_up_av_config_read_DC2_cfg_register>:

int alt_up_av_config_read_DC2_cfg_register(alt_up_av_config_dev *av_config, alt_u32 addr, alt_u32 *data)
{
 804378c:	defffb04 	addi	sp,sp,-20
 8043790:	dfc00415 	stw	ra,16(sp)
 8043794:	df000315 	stw	fp,12(sp)
 8043798:	df000304 	addi	fp,sp,12
 804379c:	e13ffd15 	stw	r4,-12(fp)
 80437a0:	e17ffe15 	stw	r5,-8(fp)
 80437a4:	e1bfff15 	stw	r6,-4(fp)
	if (av_config->type != TRDB_DC2_CONFIG)
 80437a8:	e0bffd17 	ldw	r2,-12(fp)
 80437ac:	10800b17 	ldw	r2,44(r2)
 80437b0:	10800220 	cmpeqi	r2,r2,8
 80437b4:	1000021e 	bne	r2,zero,80437c0 <alt_up_av_config_read_DC2_cfg_register+0x34>
		return -EINVAL;
 80437b8:	00bffa84 	movi	r2,-22
 80437bc:	00000406 	br	80437d0 <alt_up_av_config_read_DC2_cfg_register+0x44>

	return alt_up_av_config_read_data(av_config, addr, data);
 80437c0:	e1bfff17 	ldw	r6,-4(fp)
 80437c4:	e17ffe17 	ldw	r5,-8(fp)
 80437c8:	e13ffd17 	ldw	r4,-12(fp)
 80437cc:	80433640 	call	8043364 <alt_up_av_config_read_data>
}
 80437d0:	e037883a 	mov	sp,fp
 80437d4:	dfc00117 	ldw	ra,4(sp)
 80437d8:	df000017 	ldw	fp,0(sp)
 80437dc:	dec00204 	addi	sp,sp,8
 80437e0:	f800283a 	ret

080437e4 <alt_up_av_config_write_DC2_cfg_register>:

int alt_up_av_config_write_DC2_cfg_register(alt_up_av_config_dev *av_config, alt_u32 addr, alt_u32 data)
{
 80437e4:	defffb04 	addi	sp,sp,-20
 80437e8:	dfc00415 	stw	ra,16(sp)
 80437ec:	df000315 	stw	fp,12(sp)
 80437f0:	df000304 	addi	fp,sp,12
 80437f4:	e13ffd15 	stw	r4,-12(fp)
 80437f8:	e17ffe15 	stw	r5,-8(fp)
 80437fc:	e1bfff15 	stw	r6,-4(fp)
	if (av_config->type != TRDB_DC2_CONFIG)
 8043800:	e0bffd17 	ldw	r2,-12(fp)
 8043804:	10800b17 	ldw	r2,44(r2)
 8043808:	10800220 	cmpeqi	r2,r2,8
 804380c:	1000021e 	bne	r2,zero,8043818 <alt_up_av_config_write_DC2_cfg_register+0x34>
		return -EINVAL;
 8043810:	00bffa84 	movi	r2,-22
 8043814:	00000406 	br	8043828 <alt_up_av_config_write_DC2_cfg_register+0x44>

	return alt_up_av_config_write_data(av_config, addr, data);
 8043818:	e1bfff17 	ldw	r6,-4(fp)
 804381c:	e17ffe17 	ldw	r5,-8(fp)
 8043820:	e13ffd17 	ldw	r4,-12(fp)
 8043824:	80433000 	call	8043300 <alt_up_av_config_write_data>
}
 8043828:	e037883a 	mov	sp,fp
 804382c:	dfc00117 	ldw	ra,4(sp)
 8043830:	df000017 	ldw	fp,0(sp)
 8043834:	dec00204 	addi	sp,sp,8
 8043838:	f800283a 	ret

0804383c <alt_up_av_config_read_D5M_cfg_register>:

int alt_up_av_config_read_D5M_cfg_register(alt_up_av_config_dev *av_config, alt_u32 addr, alt_u32 *data)
{
 804383c:	defffb04 	addi	sp,sp,-20
 8043840:	dfc00415 	stw	ra,16(sp)
 8043844:	df000315 	stw	fp,12(sp)
 8043848:	df000304 	addi	fp,sp,12
 804384c:	e13ffd15 	stw	r4,-12(fp)
 8043850:	e17ffe15 	stw	r5,-8(fp)
 8043854:	e1bfff15 	stw	r6,-4(fp)
	if (av_config->type != TRDB_D5M_CONFIG)
 8043858:	e0bffd17 	ldw	r2,-12(fp)
 804385c:	10800b17 	ldw	r2,44(r2)
 8043860:	10800260 	cmpeqi	r2,r2,9
 8043864:	1000021e 	bne	r2,zero,8043870 <alt_up_av_config_read_D5M_cfg_register+0x34>
		return -EINVAL;
 8043868:	00bffa84 	movi	r2,-22
 804386c:	00000406 	br	8043880 <alt_up_av_config_read_D5M_cfg_register+0x44>
	
	return alt_up_av_config_read_data(av_config, addr, data);
 8043870:	e1bfff17 	ldw	r6,-4(fp)
 8043874:	e17ffe17 	ldw	r5,-8(fp)
 8043878:	e13ffd17 	ldw	r4,-12(fp)
 804387c:	80433640 	call	8043364 <alt_up_av_config_read_data>
}
 8043880:	e037883a 	mov	sp,fp
 8043884:	dfc00117 	ldw	ra,4(sp)
 8043888:	df000017 	ldw	fp,0(sp)
 804388c:	dec00204 	addi	sp,sp,8
 8043890:	f800283a 	ret

08043894 <alt_up_av_config_write_D5M_cfg_register>:

int alt_up_av_config_write_D5M_cfg_register(alt_up_av_config_dev *av_config, alt_u32 addr, alt_u32 data)
{
 8043894:	defffb04 	addi	sp,sp,-20
 8043898:	dfc00415 	stw	ra,16(sp)
 804389c:	df000315 	stw	fp,12(sp)
 80438a0:	df000304 	addi	fp,sp,12
 80438a4:	e13ffd15 	stw	r4,-12(fp)
 80438a8:	e17ffe15 	stw	r5,-8(fp)
 80438ac:	e1bfff15 	stw	r6,-4(fp)
	if (av_config->type != TRDB_D5M_CONFIG)
 80438b0:	e0bffd17 	ldw	r2,-12(fp)
 80438b4:	10800b17 	ldw	r2,44(r2)
 80438b8:	10800260 	cmpeqi	r2,r2,9
 80438bc:	1000021e 	bne	r2,zero,80438c8 <alt_up_av_config_write_D5M_cfg_register+0x34>
		return -EINVAL;
 80438c0:	00bffa84 	movi	r2,-22
 80438c4:	00000406 	br	80438d8 <alt_up_av_config_write_D5M_cfg_register+0x44>
	
	return alt_up_av_config_write_data(av_config, addr, data);
 80438c8:	e1bfff17 	ldw	r6,-4(fp)
 80438cc:	e17ffe17 	ldw	r5,-8(fp)
 80438d0:	e13ffd17 	ldw	r4,-12(fp)
 80438d4:	80433000 	call	8043300 <alt_up_av_config_write_data>
}
 80438d8:	e037883a 	mov	sp,fp
 80438dc:	dfc00117 	ldw	ra,4(sp)
 80438e0:	df000017 	ldw	fp,0(sp)
 80438e4:	dec00204 	addi	sp,sp,8
 80438e8:	f800283a 	ret

080438ec <alt_up_av_config_read_LTM_cfg_register>:

int alt_up_av_config_read_LTM_cfg_register(alt_up_av_config_dev *av_config, alt_u32 addr, alt_u32 *data)
{
 80438ec:	defffb04 	addi	sp,sp,-20
 80438f0:	dfc00415 	stw	ra,16(sp)
 80438f4:	df000315 	stw	fp,12(sp)
 80438f8:	df000304 	addi	fp,sp,12
 80438fc:	e13ffd15 	stw	r4,-12(fp)
 8043900:	e17ffe15 	stw	r5,-8(fp)
 8043904:	e1bfff15 	stw	r6,-4(fp)
	if (av_config->type != TRDB_LTM_CONFIG)
 8043908:	e0bffd17 	ldw	r2,-12(fp)
 804390c:	10800b17 	ldw	r2,44(r2)
 8043910:	108002a0 	cmpeqi	r2,r2,10
 8043914:	1000021e 	bne	r2,zero,8043920 <alt_up_av_config_read_LTM_cfg_register+0x34>
		return -EINVAL;
 8043918:	00bffa84 	movi	r2,-22
 804391c:	00000406 	br	8043930 <alt_up_av_config_read_LTM_cfg_register+0x44>

	return alt_up_av_config_read_data(av_config, addr, data);
 8043920:	e1bfff17 	ldw	r6,-4(fp)
 8043924:	e17ffe17 	ldw	r5,-8(fp)
 8043928:	e13ffd17 	ldw	r4,-12(fp)
 804392c:	80433640 	call	8043364 <alt_up_av_config_read_data>
}
 8043930:	e037883a 	mov	sp,fp
 8043934:	dfc00117 	ldw	ra,4(sp)
 8043938:	df000017 	ldw	fp,0(sp)
 804393c:	dec00204 	addi	sp,sp,8
 8043940:	f800283a 	ret

08043944 <alt_up_av_config_write_LTM_cfg_register>:

int alt_up_av_config_write_LTM_cfg_register(alt_up_av_config_dev *av_config, alt_u32 addr, alt_u32 data)
{
 8043944:	defffb04 	addi	sp,sp,-20
 8043948:	dfc00415 	stw	ra,16(sp)
 804394c:	df000315 	stw	fp,12(sp)
 8043950:	df000304 	addi	fp,sp,12
 8043954:	e13ffd15 	stw	r4,-12(fp)
 8043958:	e17ffe15 	stw	r5,-8(fp)
 804395c:	e1bfff15 	stw	r6,-4(fp)
	if (av_config->type != TRDB_LTM_CONFIG)
 8043960:	e0bffd17 	ldw	r2,-12(fp)
 8043964:	10800b17 	ldw	r2,44(r2)
 8043968:	108002a0 	cmpeqi	r2,r2,10
 804396c:	1000021e 	bne	r2,zero,8043978 <alt_up_av_config_write_LTM_cfg_register+0x34>
		return -EINVAL;
 8043970:	00bffa84 	movi	r2,-22
 8043974:	00000406 	br	8043988 <alt_up_av_config_write_LTM_cfg_register+0x44>

	return alt_up_av_config_write_data(av_config, addr, data);
 8043978:	e1bfff17 	ldw	r6,-4(fp)
 804397c:	e17ffe17 	ldw	r5,-8(fp)
 8043980:	e13ffd17 	ldw	r4,-12(fp)
 8043984:	80433000 	call	8043300 <alt_up_av_config_write_data>
}
 8043988:	e037883a 	mov	sp,fp
 804398c:	dfc00117 	ldw	ra,4(sp)
 8043990:	df000017 	ldw	fp,0(sp)
 8043994:	dec00204 	addi	sp,sp,8
 8043998:	f800283a 	ret

0804399c <alt_alarm_start>:
 */ 

int alt_alarm_start (alt_alarm* alarm, alt_u32 nticks,
                     alt_u32 (*callback) (void* context),
                     void* context)
{
 804399c:	defff504 	addi	sp,sp,-44
 80439a0:	df000a15 	stw	fp,40(sp)
 80439a4:	df000a04 	addi	fp,sp,40
 80439a8:	e13ffc15 	stw	r4,-16(fp)
 80439ac:	e17ffd15 	stw	r5,-12(fp)
 80439b0:	e1bffe15 	stw	r6,-8(fp)
 80439b4:	e1ffff15 	stw	r7,-4(fp)
  alt_irq_context irq_context;
  alt_u32 current_nticks = 0;
 80439b8:	e03ff615 	stw	zero,-40(fp)
 * Obtain the system clock rate in ticks/s. 
 */

static ALT_INLINE alt_u32 ALT_ALWAYS_INLINE alt_ticks_per_second (void)
{
  return _alt_tick_rate;
 80439bc:	d0a6ee17 	ldw	r2,-25672(gp)
  
  if (alt_ticks_per_second ())
 80439c0:	10003c26 	beq	r2,zero,8043ab4 <alt_alarm_start+0x118>
  {
    if (alarm)
 80439c4:	e0bffc17 	ldw	r2,-16(fp)
 80439c8:	10003826 	beq	r2,zero,8043aac <alt_alarm_start+0x110>
    {
      alarm->callback = callback;
 80439cc:	e0bffc17 	ldw	r2,-16(fp)
 80439d0:	e0fffe17 	ldw	r3,-8(fp)
 80439d4:	10c00315 	stw	r3,12(r2)
      alarm->context  = context;
 80439d8:	e0bffc17 	ldw	r2,-16(fp)
 80439dc:	e0ffff17 	ldw	r3,-4(fp)
 80439e0:	10c00515 	stw	r3,20(r2)
static ALT_INLINE alt_irq_context ALT_ALWAYS_INLINE 
       alt_irq_disable_all (void)
{
  alt_irq_context context;

  NIOS2_READ_STATUS (context);
 80439e4:	0005303a 	rdctl	r2,status
 80439e8:	e0bff915 	stw	r2,-28(fp)

  NIOS2_WRITE_STATUS (context & ~NIOS2_STATUS_PIE_MSK);
 80439ec:	e0fff917 	ldw	r3,-28(fp)
 80439f0:	00bfff84 	movi	r2,-2
 80439f4:	1884703a 	and	r2,r3,r2
 80439f8:	1001703a 	wrctl	status,r2
  
  return context;
 80439fc:	e0bff917 	ldw	r2,-28(fp)
 
      irq_context = alt_irq_disable_all ();
 8043a00:	e0bff815 	stw	r2,-32(fp)
 * alt_nticks() returns the elapsed number of system clock ticks since reset.
 */

static ALT_INLINE alt_u32 ALT_ALWAYS_INLINE alt_nticks (void)
{
  return _alt_nticks;
 8043a04:	d0a6ef17 	ldw	r2,-25668(gp)
      
      current_nticks = alt_nticks();
 8043a08:	e0bff615 	stw	r2,-40(fp)
      
      alarm->time = nticks + current_nticks + 1; 
 8043a0c:	e0fffd17 	ldw	r3,-12(fp)
 8043a10:	e0bff617 	ldw	r2,-40(fp)
 8043a14:	1885883a 	add	r2,r3,r2
 8043a18:	10c00044 	addi	r3,r2,1
 8043a1c:	e0bffc17 	ldw	r2,-16(fp)
 8043a20:	10c00215 	stw	r3,8(r2)
      /* 
       * If the desired alarm time causes a roll-over, set the rollover
       * flag. This will prevent the subsequent tick event from causing
       * an alarm too early.
       */
      if(alarm->time < current_nticks)
 8043a24:	e0bffc17 	ldw	r2,-16(fp)
 8043a28:	10c00217 	ldw	r3,8(r2)
 8043a2c:	e0bff617 	ldw	r2,-40(fp)
 8043a30:	1880042e 	bgeu	r3,r2,8043a44 <alt_alarm_start+0xa8>
      {
        alarm->rollover = 1;
 8043a34:	e0bffc17 	ldw	r2,-16(fp)
 8043a38:	00c00044 	movi	r3,1
 8043a3c:	10c00405 	stb	r3,16(r2)
 8043a40:	00000206 	br	8043a4c <alt_alarm_start+0xb0>
      }
      else
      {
        alarm->rollover = 0;
 8043a44:	e0bffc17 	ldw	r2,-16(fp)
 8043a48:	10000405 	stb	zero,16(r2)
      }
    
      alt_llist_insert (&alt_alarm_list, &alarm->llist);
 8043a4c:	e0bffc17 	ldw	r2,-16(fp)
 8043a50:	d0e01104 	addi	r3,gp,-32700
 8043a54:	e0fffa15 	stw	r3,-24(fp)
 8043a58:	e0bffb15 	stw	r2,-20(fp)
 */

static ALT_INLINE void ALT_ALWAYS_INLINE alt_llist_insert(alt_llist* list, 
                alt_llist* entry)
{
  entry->previous = list;
 8043a5c:	e0bffb17 	ldw	r2,-20(fp)
 8043a60:	e0fffa17 	ldw	r3,-24(fp)
 8043a64:	10c00115 	stw	r3,4(r2)
  entry->next     = list->next;
 8043a68:	e0bffa17 	ldw	r2,-24(fp)
 8043a6c:	10c00017 	ldw	r3,0(r2)
 8043a70:	e0bffb17 	ldw	r2,-20(fp)
 8043a74:	10c00015 	stw	r3,0(r2)

  list->next->previous = entry;
 8043a78:	e0bffa17 	ldw	r2,-24(fp)
 8043a7c:	10800017 	ldw	r2,0(r2)
 8043a80:	e0fffb17 	ldw	r3,-20(fp)
 8043a84:	10c00115 	stw	r3,4(r2)
  list->next           = entry;
 8043a88:	e0bffa17 	ldw	r2,-24(fp)
 8043a8c:	e0fffb17 	ldw	r3,-20(fp)
 8043a90:	10c00015 	stw	r3,0(r2)
 8043a94:	e0bff817 	ldw	r2,-32(fp)
 8043a98:	e0bff715 	stw	r2,-36(fp)
  status &= ~NIOS2_STATUS_PIE_MSK;
  status |= (context & NIOS2_STATUS_PIE_MSK);
  
  NIOS2_WRITE_STATUS (status);
#else
  NIOS2_WRITE_STATUS (context);
 8043a9c:	e0bff717 	ldw	r2,-36(fp)
 8043aa0:	1001703a 	wrctl	status,r2
      alt_irq_enable_all (irq_context);

      return 0;
 8043aa4:	0005883a 	mov	r2,zero
 8043aa8:	00000306 	br	8043ab8 <alt_alarm_start+0x11c>
    }
    else
    {
      return -EINVAL;
 8043aac:	00bffa84 	movi	r2,-22
 8043ab0:	00000106 	br	8043ab8 <alt_alarm_start+0x11c>
    }
  }
  else
  {
    return -ENOTSUP;
 8043ab4:	00bfde84 	movi	r2,-134
  }
}
 8043ab8:	e037883a 	mov	sp,fp
 8043abc:	df000017 	ldw	fp,0(sp)
 8043ac0:	dec00104 	addi	sp,sp,4
 8043ac4:	f800283a 	ret

08043ac8 <alt_get_errno>:
#undef errno

extern int errno;

static ALT_INLINE int* alt_get_errno(void)
{
 8043ac8:	defffe04 	addi	sp,sp,-8
 8043acc:	dfc00115 	stw	ra,4(sp)
 8043ad0:	df000015 	stw	fp,0(sp)
 8043ad4:	d839883a 	mov	fp,sp
  return ((alt_errno) ? alt_errno() : &errno);
 8043ad8:	d0a01017 	ldw	r2,-32704(gp)
 8043adc:	10000326 	beq	r2,zero,8043aec <alt_get_errno+0x24>
 8043ae0:	d0a01017 	ldw	r2,-32704(gp)
 8043ae4:	103ee83a 	callr	r2
 8043ae8:	00000106 	br	8043af0 <alt_get_errno+0x28>
 8043aec:	d0a6f004 	addi	r2,gp,-25664
}
 8043af0:	e037883a 	mov	sp,fp
 8043af4:	dfc00117 	ldw	ra,4(sp)
 8043af8:	df000017 	ldw	fp,0(sp)
 8043afc:	dec00204 	addi	sp,sp,8
 8043b00:	f800283a 	ret

08043b04 <close>:
 *
 * ALT_CLOSE is mapped onto the close() system call in alt_syscall.h
 */
 
int ALT_CLOSE (int fildes)
{
 8043b04:	defffb04 	addi	sp,sp,-20
 8043b08:	dfc00415 	stw	ra,16(sp)
 8043b0c:	df000315 	stw	fp,12(sp)
 8043b10:	df000304 	addi	fp,sp,12
 8043b14:	e13fff15 	stw	r4,-4(fp)
   * A common error case is that when the file descriptor was created, the call
   * to open() failed resulting in a negative file descriptor. This is trapped
   * below so that we don't try and process an invalid file descriptor.
   */

  fd = (fildes < 0) ? NULL : &alt_fd_list[fildes];
 8043b18:	e0bfff17 	ldw	r2,-4(fp)
 8043b1c:	10000616 	blt	r2,zero,8043b38 <close+0x34>
 8043b20:	e0bfff17 	ldw	r2,-4(fp)
 8043b24:	10c00324 	muli	r3,r2,12
 8043b28:	00820174 	movhi	r2,2053
 8043b2c:	10a27f04 	addi	r2,r2,-30212
 8043b30:	1885883a 	add	r2,r3,r2
 8043b34:	00000106 	br	8043b3c <close+0x38>
 8043b38:	0005883a 	mov	r2,zero
 8043b3c:	e0bffd15 	stw	r2,-12(fp)

  if (fd)
 8043b40:	e0bffd17 	ldw	r2,-12(fp)
 8043b44:	10001926 	beq	r2,zero,8043bac <close+0xa8>
    /*
     * If the associated file system/device has a close function, call it so 
     * that any necessary cleanup code can run.
     */

    rval = (fd->dev->close) ? fd->dev->close(fd) : 0;
 8043b48:	e0bffd17 	ldw	r2,-12(fp)
 8043b4c:	10800017 	ldw	r2,0(r2)
 8043b50:	10800417 	ldw	r2,16(r2)
 8043b54:	10000626 	beq	r2,zero,8043b70 <close+0x6c>
 8043b58:	e0bffd17 	ldw	r2,-12(fp)
 8043b5c:	10800017 	ldw	r2,0(r2)
 8043b60:	10800417 	ldw	r2,16(r2)
 8043b64:	e13ffd17 	ldw	r4,-12(fp)
 8043b68:	103ee83a 	callr	r2
 8043b6c:	00000106 	br	8043b74 <close+0x70>
 8043b70:	0005883a 	mov	r2,zero
 8043b74:	e0bffe15 	stw	r2,-8(fp)

    /* Free the file descriptor structure and return. */

    alt_release_fd (fildes);
 8043b78:	e13fff17 	ldw	r4,-4(fp)
 8043b7c:	80442dc0 	call	80442dc <alt_release_fd>
    if (rval < 0)
 8043b80:	e0bffe17 	ldw	r2,-8(fp)
 8043b84:	1000070e 	bge	r2,zero,8043ba4 <close+0xa0>
    {
      ALT_ERRNO = -rval;
 8043b88:	8043ac80 	call	8043ac8 <alt_get_errno>
 8043b8c:	1007883a 	mov	r3,r2
 8043b90:	e0bffe17 	ldw	r2,-8(fp)
 8043b94:	0085c83a 	sub	r2,zero,r2
 8043b98:	18800015 	stw	r2,0(r3)
      return -1;
 8043b9c:	00bfffc4 	movi	r2,-1
 8043ba0:	00000706 	br	8043bc0 <close+0xbc>
    }
    return 0;
 8043ba4:	0005883a 	mov	r2,zero
 8043ba8:	00000506 	br	8043bc0 <close+0xbc>
  }
  else
  {
    ALT_ERRNO = EBADFD;
 8043bac:	8043ac80 	call	8043ac8 <alt_get_errno>
 8043bb0:	1007883a 	mov	r3,r2
 8043bb4:	00801444 	movi	r2,81
 8043bb8:	18800015 	stw	r2,0(r3)
    return -1;
 8043bbc:	00bfffc4 	movi	r2,-1
  }
}
 8043bc0:	e037883a 	mov	sp,fp
 8043bc4:	dfc00117 	ldw	ra,4(sp)
 8043bc8:	df000017 	ldw	fp,0(sp)
 8043bcc:	dec00204 	addi	sp,sp,8
 8043bd0:	f800283a 	ret

08043bd4 <alt_dcache_flush_all>:
/*
 * alt_dcache_flush_all() is called to flush the entire data cache.
 */

void alt_dcache_flush_all (void)
{
 8043bd4:	defffe04 	addi	sp,sp,-8
 8043bd8:	df000115 	stw	fp,4(sp)
 8043bdc:	df000104 	addi	fp,sp,4
#if NIOS2_DCACHE_SIZE > 0
  char* i;
  
  for (i = (char*) 0; i < (char*) NIOS2_DCACHE_SIZE; i+= NIOS2_DCACHE_LINE_SIZE)
 8043be0:	e03fff15 	stw	zero,-4(fp)
 8043be4:	00000506 	br	8043bfc <alt_dcache_flush_all+0x28>
  { 
    __asm__ volatile ("flushd (%0)" :: "r" (i));
 8043be8:	e0bfff17 	ldw	r2,-4(fp)
 8043bec:	1000003b 	flushd	0(r2)
void alt_dcache_flush_all (void)
{
#if NIOS2_DCACHE_SIZE > 0
  char* i;
  
  for (i = (char*) 0; i < (char*) NIOS2_DCACHE_SIZE; i+= NIOS2_DCACHE_LINE_SIZE)
 8043bf0:	e0bfff17 	ldw	r2,-4(fp)
 8043bf4:	10800804 	addi	r2,r2,32
 8043bf8:	e0bfff15 	stw	r2,-4(fp)
 8043bfc:	e0bfff17 	ldw	r2,-4(fp)
 8043c00:	10820030 	cmpltui	r2,r2,2048
 8043c04:	103ff81e 	bne	r2,zero,8043be8 <__alt_data_end+0xfffc3be8>
  { 
    __asm__ volatile ("flushd (%0)" :: "r" (i));
  }
#endif /* NIOS2_DCACHE_SIZE > 0 */
}
 8043c08:	0001883a 	nop
 8043c0c:	e037883a 	mov	sp,fp
 8043c10:	df000017 	ldw	fp,0(sp)
 8043c14:	dec00104 	addi	sp,sp,4
 8043c18:	f800283a 	ret

08043c1c <alt_dev_null_write>:
 * by the alt_dev_null device. It simple discards all data passed to it, and
 * indicates that the data has been successfully transmitted.
 */

static int alt_dev_null_write (alt_fd* fd, const char* ptr, int len)
{
 8043c1c:	defffc04 	addi	sp,sp,-16
 8043c20:	df000315 	stw	fp,12(sp)
 8043c24:	df000304 	addi	fp,sp,12
 8043c28:	e13ffd15 	stw	r4,-12(fp)
 8043c2c:	e17ffe15 	stw	r5,-8(fp)
 8043c30:	e1bfff15 	stw	r6,-4(fp)
  return len;
 8043c34:	e0bfff17 	ldw	r2,-4(fp)
}
 8043c38:	e037883a 	mov	sp,fp
 8043c3c:	df000017 	ldw	fp,0(sp)
 8043c40:	dec00104 	addi	sp,sp,4
 8043c44:	f800283a 	ret

08043c48 <alt_get_errno>:
#undef errno

extern int errno;

static ALT_INLINE int* alt_get_errno(void)
{
 8043c48:	defffe04 	addi	sp,sp,-8
 8043c4c:	dfc00115 	stw	ra,4(sp)
 8043c50:	df000015 	stw	fp,0(sp)
 8043c54:	d839883a 	mov	fp,sp
  return ((alt_errno) ? alt_errno() : &errno);
 8043c58:	d0a01017 	ldw	r2,-32704(gp)
 8043c5c:	10000326 	beq	r2,zero,8043c6c <alt_get_errno+0x24>
 8043c60:	d0a01017 	ldw	r2,-32704(gp)
 8043c64:	103ee83a 	callr	r2
 8043c68:	00000106 	br	8043c70 <alt_get_errno+0x28>
 8043c6c:	d0a6f004 	addi	r2,gp,-25664
}
 8043c70:	e037883a 	mov	sp,fp
 8043c74:	dfc00117 	ldw	ra,4(sp)
 8043c78:	df000017 	ldw	fp,0(sp)
 8043c7c:	dec00204 	addi	sp,sp,8
 8043c80:	f800283a 	ret

08043c84 <alt_dev_llist_insert>:
/*
 *
 */

int alt_dev_llist_insert (alt_dev_llist* dev, alt_llist* list)
{
 8043c84:	defffa04 	addi	sp,sp,-24
 8043c88:	dfc00515 	stw	ra,20(sp)
 8043c8c:	df000415 	stw	fp,16(sp)
 8043c90:	df000404 	addi	fp,sp,16
 8043c94:	e13ffe15 	stw	r4,-8(fp)
 8043c98:	e17fff15 	stw	r5,-4(fp)
  /*
   * check that the device exists, and that it has a valid name.
   */

  if (!dev || !dev->name)
 8043c9c:	e0bffe17 	ldw	r2,-8(fp)
 8043ca0:	10000326 	beq	r2,zero,8043cb0 <alt_dev_llist_insert+0x2c>
 8043ca4:	e0bffe17 	ldw	r2,-8(fp)
 8043ca8:	10800217 	ldw	r2,8(r2)
 8043cac:	1000061e 	bne	r2,zero,8043cc8 <alt_dev_llist_insert+0x44>
  {
    ALT_ERRNO = EINVAL;
 8043cb0:	8043c480 	call	8043c48 <alt_get_errno>
 8043cb4:	1007883a 	mov	r3,r2
 8043cb8:	00800584 	movi	r2,22
 8043cbc:	18800015 	stw	r2,0(r3)
    return -EINVAL;
 8043cc0:	00bffa84 	movi	r2,-22
 8043cc4:	00001306 	br	8043d14 <alt_dev_llist_insert+0x90>
  
  /*
   * register the device.
   */
  
  alt_llist_insert(list, &dev->llist);
 8043cc8:	e0bffe17 	ldw	r2,-8(fp)
 8043ccc:	e0ffff17 	ldw	r3,-4(fp)
 8043cd0:	e0fffc15 	stw	r3,-16(fp)
 8043cd4:	e0bffd15 	stw	r2,-12(fp)
 */

static ALT_INLINE void ALT_ALWAYS_INLINE alt_llist_insert(alt_llist* list, 
                alt_llist* entry)
{
  entry->previous = list;
 8043cd8:	e0bffd17 	ldw	r2,-12(fp)
 8043cdc:	e0fffc17 	ldw	r3,-16(fp)
 8043ce0:	10c00115 	stw	r3,4(r2)
  entry->next     = list->next;
 8043ce4:	e0bffc17 	ldw	r2,-16(fp)
 8043ce8:	10c00017 	ldw	r3,0(r2)
 8043cec:	e0bffd17 	ldw	r2,-12(fp)
 8043cf0:	10c00015 	stw	r3,0(r2)

  list->next->previous = entry;
 8043cf4:	e0bffc17 	ldw	r2,-16(fp)
 8043cf8:	10800017 	ldw	r2,0(r2)
 8043cfc:	e0fffd17 	ldw	r3,-12(fp)
 8043d00:	10c00115 	stw	r3,4(r2)
  list->next           = entry;
 8043d04:	e0bffc17 	ldw	r2,-16(fp)
 8043d08:	e0fffd17 	ldw	r3,-12(fp)
 8043d0c:	10c00015 	stw	r3,0(r2)

  return 0;  
 8043d10:	0005883a 	mov	r2,zero
}
 8043d14:	e037883a 	mov	sp,fp
 8043d18:	dfc00117 	ldw	ra,4(sp)
 8043d1c:	df000017 	ldw	fp,0(sp)
 8043d20:	dec00204 	addi	sp,sp,8
 8043d24:	f800283a 	ret

08043d28 <_do_ctors>:
/*
 * Run the C++ static constructors.
 */

void _do_ctors(void)
{
 8043d28:	defffd04 	addi	sp,sp,-12
 8043d2c:	dfc00215 	stw	ra,8(sp)
 8043d30:	df000115 	stw	fp,4(sp)
 8043d34:	df000104 	addi	fp,sp,4
  constructor* ctor;

  for (ctor = &__CTOR_END__[-1]; ctor >= __CTOR_LIST__; ctor--)
 8043d38:	00820134 	movhi	r2,2052
 8043d3c:	109cad04 	addi	r2,r2,29364
 8043d40:	e0bfff15 	stw	r2,-4(fp)
 8043d44:	00000606 	br	8043d60 <_do_ctors+0x38>
        (*ctor) (); 
 8043d48:	e0bfff17 	ldw	r2,-4(fp)
 8043d4c:	10800017 	ldw	r2,0(r2)
 8043d50:	103ee83a 	callr	r2

void _do_ctors(void)
{
  constructor* ctor;

  for (ctor = &__CTOR_END__[-1]; ctor >= __CTOR_LIST__; ctor--)
 8043d54:	e0bfff17 	ldw	r2,-4(fp)
 8043d58:	10bfff04 	addi	r2,r2,-4
 8043d5c:	e0bfff15 	stw	r2,-4(fp)
 8043d60:	e0ffff17 	ldw	r3,-4(fp)
 8043d64:	00820134 	movhi	r2,2052
 8043d68:	109cae04 	addi	r2,r2,29368
 8043d6c:	18bff62e 	bgeu	r3,r2,8043d48 <__alt_data_end+0xfffc3d48>
        (*ctor) (); 
}
 8043d70:	0001883a 	nop
 8043d74:	e037883a 	mov	sp,fp
 8043d78:	dfc00117 	ldw	ra,4(sp)
 8043d7c:	df000017 	ldw	fp,0(sp)
 8043d80:	dec00204 	addi	sp,sp,8
 8043d84:	f800283a 	ret

08043d88 <_do_dtors>:
/*
 * Run the C++ static destructors.
 */

void _do_dtors(void)
{
 8043d88:	defffd04 	addi	sp,sp,-12
 8043d8c:	dfc00215 	stw	ra,8(sp)
 8043d90:	df000115 	stw	fp,4(sp)
 8043d94:	df000104 	addi	fp,sp,4
  destructor* dtor;

  for (dtor = &__DTOR_END__[-1]; dtor >= __DTOR_LIST__; dtor--)
 8043d98:	00820134 	movhi	r2,2052
 8043d9c:	109cad04 	addi	r2,r2,29364
 8043da0:	e0bfff15 	stw	r2,-4(fp)
 8043da4:	00000606 	br	8043dc0 <_do_dtors+0x38>
        (*dtor) (); 
 8043da8:	e0bfff17 	ldw	r2,-4(fp)
 8043dac:	10800017 	ldw	r2,0(r2)
 8043db0:	103ee83a 	callr	r2

void _do_dtors(void)
{
  destructor* dtor;

  for (dtor = &__DTOR_END__[-1]; dtor >= __DTOR_LIST__; dtor--)
 8043db4:	e0bfff17 	ldw	r2,-4(fp)
 8043db8:	10bfff04 	addi	r2,r2,-4
 8043dbc:	e0bfff15 	stw	r2,-4(fp)
 8043dc0:	e0ffff17 	ldw	r3,-4(fp)
 8043dc4:	00820134 	movhi	r2,2052
 8043dc8:	109cae04 	addi	r2,r2,29368
 8043dcc:	18bff62e 	bgeu	r3,r2,8043da8 <__alt_data_end+0xfffc3da8>
        (*dtor) (); 
}
 8043dd0:	0001883a 	nop
 8043dd4:	e037883a 	mov	sp,fp
 8043dd8:	dfc00117 	ldw	ra,4(sp)
 8043ddc:	df000017 	ldw	fp,0(sp)
 8043de0:	dec00204 	addi	sp,sp,8
 8043de4:	f800283a 	ret

08043de8 <alt_find_dev>:
 * "name" must be an exact match for the devices registered name for a match to
 * be found.
 */
 
alt_dev* alt_find_dev(const char* name, alt_llist* llist)
{
 8043de8:	defffa04 	addi	sp,sp,-24
 8043dec:	dfc00515 	stw	ra,20(sp)
 8043df0:	df000415 	stw	fp,16(sp)
 8043df4:	df000404 	addi	fp,sp,16
 8043df8:	e13ffe15 	stw	r4,-8(fp)
 8043dfc:	e17fff15 	stw	r5,-4(fp)
  alt_dev* next = (alt_dev*) llist->next;
 8043e00:	e0bfff17 	ldw	r2,-4(fp)
 8043e04:	10800017 	ldw	r2,0(r2)
 8043e08:	e0bffc15 	stw	r2,-16(fp)
  alt_32 len;

  len  = strlen(name) + 1;
 8043e0c:	e13ffe17 	ldw	r4,-8(fp)
 8043e10:	8044abc0 	call	8044abc <strlen>
 8043e14:	10800044 	addi	r2,r2,1
 8043e18:	e0bffd15 	stw	r2,-12(fp)
  /*
   * Check each list entry in turn, until a match is found, or we reach the
   * end of the list (i.e. next winds up pointing back to the list head).
   */ 

  while (next != (alt_dev*) llist)
 8043e1c:	00000d06 	br	8043e54 <alt_find_dev+0x6c>
    /* 
     * memcmp() is used here rather than strcmp() in order to reduce the size
     * of the executable.
     */

    if (!memcmp (next->name, name, len))
 8043e20:	e0bffc17 	ldw	r2,-16(fp)
 8043e24:	10800217 	ldw	r2,8(r2)
 8043e28:	e0fffd17 	ldw	r3,-12(fp)
 8043e2c:	180d883a 	mov	r6,r3
 8043e30:	e17ffe17 	ldw	r5,-8(fp)
 8043e34:	1009883a 	mov	r4,r2
 8043e38:	80447900 	call	8044790 <memcmp>
 8043e3c:	1000021e 	bne	r2,zero,8043e48 <alt_find_dev+0x60>
    {
      /* match found */

      return next;
 8043e40:	e0bffc17 	ldw	r2,-16(fp)
 8043e44:	00000706 	br	8043e64 <alt_find_dev+0x7c>
    }
    next = (alt_dev*) next->llist.next;
 8043e48:	e0bffc17 	ldw	r2,-16(fp)
 8043e4c:	10800017 	ldw	r2,0(r2)
 8043e50:	e0bffc15 	stw	r2,-16(fp)
  /*
   * Check each list entry in turn, until a match is found, or we reach the
   * end of the list (i.e. next winds up pointing back to the list head).
   */ 

  while (next != (alt_dev*) llist)
 8043e54:	e0fffc17 	ldw	r3,-16(fp)
 8043e58:	e0bfff17 	ldw	r2,-4(fp)
 8043e5c:	18bff01e 	bne	r3,r2,8043e20 <__alt_data_end+0xfffc3e20>
    next = (alt_dev*) next->llist.next;
  }
  
  /* No match found */
  
  return NULL;
 8043e60:	0005883a 	mov	r2,zero
}
 8043e64:	e037883a 	mov	sp,fp
 8043e68:	dfc00117 	ldw	ra,4(sp)
 8043e6c:	df000017 	ldw	fp,0(sp)
 8043e70:	dec00204 	addi	sp,sp,8
 8043e74:	f800283a 	ret

08043e78 <alt_icache_flush_all>:
/*
 * alt_icache_flush_all() is called to flush the entire instruction cache.
 */

void alt_icache_flush_all (void)
{
 8043e78:	defffe04 	addi	sp,sp,-8
 8043e7c:	dfc00115 	stw	ra,4(sp)
 8043e80:	df000015 	stw	fp,0(sp)
 8043e84:	d839883a 	mov	fp,sp
#if NIOS2_ICACHE_SIZE > 0
  alt_icache_flush (0, NIOS2_ICACHE_SIZE);
 8043e88:	01440004 	movi	r5,4096
 8043e8c:	0009883a 	mov	r4,zero
 8043e90:	80446b40 	call	80446b4 <alt_icache_flush>
#endif
}
 8043e94:	0001883a 	nop
 8043e98:	e037883a 	mov	sp,fp
 8043e9c:	dfc00117 	ldw	ra,4(sp)
 8043ea0:	df000017 	ldw	fp,0(sp)
 8043ea4:	dec00204 	addi	sp,sp,8
 8043ea8:	f800283a 	ret

08043eac <alt_exception_cause_generated_bad_addr>:
 * Return: 1: BADADDR (bad_addr argument to handler) is valid
 *         0: BADADDR is not valid
 */
int 
alt_exception_cause_generated_bad_addr(alt_exception_cause cause)
{
 8043eac:	defffe04 	addi	sp,sp,-8
 8043eb0:	df000115 	stw	fp,4(sp)
 8043eb4:	df000104 	addi	fp,sp,4
 8043eb8:	e13fff15 	stw	r4,-4(fp)
  switch (cause) {
 8043ebc:	e0bfff17 	ldw	r2,-4(fp)
 8043ec0:	10bffe84 	addi	r2,r2,-6
 8043ec4:	10c00428 	cmpgeui	r3,r2,16
 8043ec8:	18001a1e 	bne	r3,zero,8043f34 <alt_exception_cause_generated_bad_addr+0x88>
 8043ecc:	100690ba 	slli	r3,r2,2
 8043ed0:	00820134 	movhi	r2,2052
 8043ed4:	108fb904 	addi	r2,r2,16100
 8043ed8:	1885883a 	add	r2,r3,r2
 8043edc:	10800017 	ldw	r2,0(r2)
 8043ee0:	1000683a 	jmp	r2
 8043ee4:	08043f24 	muli	zero,at,4348
 8043ee8:	08043f24 	muli	zero,at,4348
 8043eec:	08043f34 	orhi	zero,at,4348
 8043ef0:	08043f34 	orhi	zero,at,4348
 8043ef4:	08043f34 	orhi	zero,at,4348
 8043ef8:	08043f24 	muli	zero,at,4348
 8043efc:	08043f2c 	andhi	zero,at,4348
 8043f00:	08043f34 	orhi	zero,at,4348
 8043f04:	08043f24 	muli	zero,at,4348
 8043f08:	08043f24 	muli	zero,at,4348
 8043f0c:	08043f34 	orhi	zero,at,4348
 8043f10:	08043f24 	muli	zero,at,4348
 8043f14:	08043f2c 	andhi	zero,at,4348
 8043f18:	08043f34 	orhi	zero,at,4348
 8043f1c:	08043f34 	orhi	zero,at,4348
 8043f20:	08043f24 	muli	zero,at,4348
  case NIOS2_EXCEPTION_MISALIGNED_TARGET_PC:
  case NIOS2_EXCEPTION_TLB_READ_PERM_VIOLATION:
  case NIOS2_EXCEPTION_TLB_WRITE_PERM_VIOLATION:
  case NIOS2_EXCEPTION_MPU_DATA_REGION_VIOLATION:
  case NIOS2_EXCEPTION_ECC_DATA_ERR:
    return 1;
 8043f24:	00800044 	movi	r2,1
 8043f28:	00000306 	br	8043f38 <alt_exception_cause_generated_bad_addr+0x8c>

  case NIOS2_EXCEPTION_TLB_MISS:
  case NIOS2_EXCEPTION_ECC_TLB_ERR:
    return 0;
 8043f2c:	0005883a 	mov	r2,zero
 8043f30:	00000106 	br	8043f38 <alt_exception_cause_generated_bad_addr+0x8c>

  default:
    return 0;
 8043f34:	0005883a 	mov	r2,zero
  }
}
 8043f38:	e037883a 	mov	sp,fp
 8043f3c:	df000017 	ldw	fp,0(sp)
 8043f40:	dec00104 	addi	sp,sp,4
 8043f44:	f800283a 	ret

08043f48 <alt_open_fd>:
 * If the device can not be succesfully opened, then the input file descriptor
 * remains unchanged.
 */

static void alt_open_fd(alt_fd* fd, const char* name, int flags, int mode)
{
 8043f48:	defff904 	addi	sp,sp,-28
 8043f4c:	dfc00615 	stw	ra,24(sp)
 8043f50:	df000515 	stw	fp,20(sp)
 8043f54:	df000504 	addi	fp,sp,20
 8043f58:	e13ffc15 	stw	r4,-16(fp)
 8043f5c:	e17ffd15 	stw	r5,-12(fp)
 8043f60:	e1bffe15 	stw	r6,-8(fp)
 8043f64:	e1ffff15 	stw	r7,-4(fp)
  int old;

  old = open (name, flags, mode);
 8043f68:	e1bfff17 	ldw	r6,-4(fp)
 8043f6c:	e17ffe17 	ldw	r5,-8(fp)
 8043f70:	e13ffd17 	ldw	r4,-12(fp)
 8043f74:	80441880 	call	8044188 <open>
 8043f78:	e0bffb15 	stw	r2,-20(fp)

