Archive member included to satisfy reference by file (symbol)

c:/programmes/fpga/nios2eds/bin/gnu/h-x86_64-mingw32/bin/../lib/gcc/nios2-elf/5.3.0\libgcc.a(lib2-divmod.o)
                              obj/default/hello_world.o (__udivsi3)
c:/programmes/fpga/nios2eds/bin/gnu/h-x86_64-mingw32/bin/../lib/gcc/nios2-elf/5.3.0\libgcc.a(addsf3.o)
                              obj/default/hello_world.o (__addsf3)
c:/programmes/fpga/nios2eds/bin/gnu/h-x86_64-mingw32/bin/../lib/gcc/nios2-elf/5.3.0\libgcc.a(lesf2.o)
                              obj/default/hello_world.o (__ltsf2)
c:/programmes/fpga/nios2eds/bin/gnu/h-x86_64-mingw32/bin/../lib/gcc/nios2-elf/5.3.0\libgcc.a(floatunsisf.o)
                              obj/default/hello_world.o (__floatunsisf)
c:/programmes/fpga/nios2eds/bin/gnu/h-x86_64-mingw32/bin/../lib/gcc/nios2-elf/5.3.0\libgcc.a(_clzsi2.o)
                              c:/programmes/fpga/nios2eds/bin/gnu/h-x86_64-mingw32/bin/../lib/gcc/nios2-elf/5.3.0\libgcc.a(addsf3.o) (__clzsi2)
c:/programmes/fpga/nios2eds/bin/gnu/h-x86_64-mingw32/bin/../lib/gcc/nios2-elf/5.3.0\libgcc.a(_clz.o)
                              c:/programmes/fpga/nios2eds/bin/gnu/h-x86_64-mingw32/bin/../lib/gcc/nios2-elf/5.3.0\libgcc.a(_clzsi2.o) (__clz_tab)
c:/programmes/fpga/nios2eds/bin/gnu/h-x86_64-mingw32/bin/../lib/gcc/nios2-elf/5.3.0/../../../../../H-x86_64-mingw32/nios2-elf/lib\libc.a(lib_a-clock.o)
                              obj/default/hello_world.o (clock)
c:/programmes/fpga/nios2eds/bin/gnu/h-x86_64-mingw32/bin/../lib/gcc/nios2-elf/5.3.0/../../../../../H-x86_64-mingw32/nios2-elf/lib\libc.a(lib_a-impure.o)
                              c:/programmes/fpga/nios2eds/bin/gnu/h-x86_64-mingw32/bin/../lib/gcc/nios2-elf/5.3.0/../../../../../H-x86_64-mingw32/nios2-elf/lib\libc.a(lib_a-clock.o) (_impure_ptr)
c:/programmes/fpga/nios2eds/bin/gnu/h-x86_64-mingw32/bin/../lib/gcc/nios2-elf/5.3.0/../../../../../H-x86_64-mingw32/nios2-elf/lib\libc.a(lib_a-timesr.o)
                              c:/programmes/fpga/nios2eds/bin/gnu/h-x86_64-mingw32/bin/../lib/gcc/nios2-elf/5.3.0/../../../../../H-x86_64-mingw32/nios2-elf/lib\libc.a(lib_a-clock.o) (_times_r)
C:/Users/smail/Desktop/College/MA2/Real_Time_Embedded_Systems/final_projectCCC/sw/nios/project_bsp/\libhal_bsp.a(alt_iic.o)
                              obj/default/hello_world.o (alt_ic_isr_register)
C:/Users/smail/Desktop/College/MA2/Real_Time_Embedded_Systems/final_projectCCC/sw/nios/project_bsp/\libhal_bsp.a(alt_iic_isr_register.o)
                              C:/Users/smail/Desktop/College/MA2/Real_Time_Embedded_Systems/final_projectCCC/sw/nios/project_bsp/\libhal_bsp.a(alt_iic.o) (alt_iic_isr_register)
C:/Users/smail/Desktop/College/MA2/Real_Time_Embedded_Systems/final_projectCCC/sw/nios/project_bsp/\libhal_bsp.a(alt_irq_entry.o)
                              C:/Users/smail/Desktop/College/MA2/Real_Time_Embedded_Systems/final_projectCCC/sw/nios/project_bsp/\libhal_bsp.a(alt_iic_isr_register.o) (alt_irq_entry)
C:/Users/smail/Desktop/College/MA2/Real_Time_Embedded_Systems/final_projectCCC/sw/nios/project_bsp/\libhal_bsp.a(alt_irq_handler.o)
                              C:/Users/smail/Desktop/College/MA2/Real_Time_Embedded_Systems/final_projectCCC/sw/nios/project_bsp/\libhal_bsp.a(alt_iic_isr_register.o) (alt_irq)
C:/Users/smail/Desktop/College/MA2/Real_Time_Embedded_Systems/final_projectCCC/sw/nios/project_bsp/\libhal_bsp.a(alt_irq_vars.o)
                              C:/Users/smail/Desktop/College/MA2/Real_Time_Embedded_Systems/final_projectCCC/sw/nios/project_bsp/\libhal_bsp.a(alt_iic.o) (alt_irq_active)
C:/Users/smail/Desktop/College/MA2/Real_Time_Embedded_Systems/final_projectCCC/sw/nios/project_bsp/\libhal_bsp.a(alt_load.o)
                              C:/Users/smail/Desktop/College/MA2/Real_Time_Embedded_Systems/final_projectCCC/sw/nios/project_bsp//obj/HAL/src/crt0.o (alt_load)
C:/Users/smail/Desktop/College/MA2/Real_Time_Embedded_Systems/final_projectCCC/sw/nios/project_bsp/\libhal_bsp.a(alt_main.o)
                              C:/Users/smail/Desktop/College/MA2/Real_Time_Embedded_Systems/final_projectCCC/sw/nios/project_bsp//obj/HAL/src/crt0.o (alt_main)
C:/Users/smail/Desktop/College/MA2/Real_Time_Embedded_Systems/final_projectCCC/sw/nios/project_bsp/\libhal_bsp.a(alt_printf.o)
                              obj/default/hello_world.o (alt_printf)
C:/Users/smail/Desktop/College/MA2/Real_Time_Embedded_Systems/final_projectCCC/sw/nios/project_bsp/\libhal_bsp.a(alt_putchar.o)
                              C:/Users/smail/Desktop/College/MA2/Real_Time_Embedded_Systems/final_projectCCC/sw/nios/project_bsp/\libhal_bsp.a(alt_printf.o) (alt_putchar)
C:/Users/smail/Desktop/College/MA2/Real_Time_Embedded_Systems/final_projectCCC/sw/nios/project_bsp/\libhal_bsp.a(alt_times.o)
                              c:/programmes/fpga/nios2eds/bin/gnu/h-x86_64-mingw32/bin/../lib/gcc/nios2-elf/5.3.0/../../../../../H-x86_64-mingw32/nios2-elf/lib\libc.a(lib_a-timesr.o) (times)
C:/Users/smail/Desktop/College/MA2/Real_Time_Embedded_Systems/final_projectCCC/sw/nios/project_bsp/\libhal_bsp.a(alt_sys_init.o)
                              C:/Users/smail/Desktop/College/MA2/Real_Time_Embedded_Systems/final_projectCCC/sw/nios/project_bsp/\libhal_bsp.a(alt_main.o) (alt_irq_init)
C:/Users/smail/Desktop/College/MA2/Real_Time_Embedded_Systems/final_projectCCC/sw/nios/project_bsp/\libhal_bsp.a(altera_avalon_jtag_uart_fd.o)
                              C:/Users/smail/Desktop/College/MA2/Real_Time_Embedded_Systems/final_projectCCC/sw/nios/project_bsp/\libhal_bsp.a(alt_sys_init.o) (altera_avalon_jtag_uart_read_fd)
C:/Users/smail/Desktop/College/MA2/Real_Time_Embedded_Systems/final_projectCCC/sw/nios/project_bsp/\libhal_bsp.a(altera_avalon_jtag_uart_init.o)
                              C:/Users/smail/Desktop/College/MA2/Real_Time_Embedded_Systems/final_projectCCC/sw/nios/project_bsp/\libhal_bsp.a(alt_sys_init.o) (altera_avalon_jtag_uart_init)
C:/Users/smail/Desktop/College/MA2/Real_Time_Embedded_Systems/final_projectCCC/sw/nios/project_bsp/\libhal_bsp.a(altera_avalon_jtag_uart_ioctl.o)
                              C:/Users/smail/Desktop/College/MA2/Real_Time_Embedded_Systems/final_projectCCC/sw/nios/project_bsp/\libhal_bsp.a(altera_avalon_jtag_uart_fd.o) (altera_avalon_jtag_uart_ioctl)
C:/Users/smail/Desktop/College/MA2/Real_Time_Embedded_Systems/final_projectCCC/sw/nios/project_bsp/\libhal_bsp.a(altera_avalon_jtag_uart_read.o)
                              C:/Users/smail/Desktop/College/MA2/Real_Time_Embedded_Systems/final_projectCCC/sw/nios/project_bsp/\libhal_bsp.a(altera_avalon_jtag_uart_fd.o) (altera_avalon_jtag_uart_read)
C:/Users/smail/Desktop/College/MA2/Real_Time_Embedded_Systems/final_projectCCC/sw/nios/project_bsp/\libhal_bsp.a(altera_avalon_jtag_uart_write.o)
                              C:/Users/smail/Desktop/College/MA2/Real_Time_Embedded_Systems/final_projectCCC/sw/nios/project_bsp/\libhal_bsp.a(altera_avalon_jtag_uart_fd.o) (altera_avalon_jtag_uart_write)
C:/Users/smail/Desktop/College/MA2/Real_Time_Embedded_Systems/final_projectCCC/sw/nios/project_bsp/\libhal_bsp.a(altera_avalon_timer_sc.o)
                              C:/Users/smail/Desktop/College/MA2/Real_Time_Embedded_Systems/final_projectCCC/sw/nios/project_bsp/\libhal_bsp.a(alt_sys_init.o) (alt_avalon_timer_sc_init)
C:/Users/smail/Desktop/College/MA2/Real_Time_Embedded_Systems/final_projectCCC/sw/nios/project_bsp/\libhal_bsp.a(altera_up_avalon_audio.o)
                              obj/default/hello_world.o (alt_up_audio_open_dev)
C:/Users/smail/Desktop/College/MA2/Real_Time_Embedded_Systems/final_projectCCC/sw/nios/project_bsp/\libhal_bsp.a(altera_up_avalon_audio_and_video_config.o)
                              obj/default/hello_world.o (alt_up_av_config_open_dev)
C:/Users/smail/Desktop/College/MA2/Real_Time_Embedded_Systems/final_projectCCC/sw/nios/project_bsp/\libhal_bsp.a(alt_alarm_start.o)
                              C:/Users/smail/Desktop/College/MA2/Real_Time_Embedded_Systems/final_projectCCC/sw/nios/project_bsp/\libhal_bsp.a(altera_avalon_jtag_uart_init.o) (alt_alarm_start)
C:/Users/smail/Desktop/College/MA2/Real_Time_Embedded_Systems/final_projectCCC/sw/nios/project_bsp/\libhal_bsp.a(alt_close.o)
                              C:/Users/smail/Desktop/College/MA2/Real_Time_Embedded_Systems/final_projectCCC/sw/nios/project_bsp/\libhal_bsp.a(alt_main.o) (close)
C:/Users/smail/Desktop/College/MA2/Real_Time_Embedded_Systems/final_projectCCC/sw/nios/project_bsp/\libhal_bsp.a(alt_dcache_flush_all.o)
                              C:/Users/smail/Desktop/College/MA2/Real_Time_Embedded_Systems/final_projectCCC/sw/nios/project_bsp/\libhal_bsp.a(alt_load.o) (alt_dcache_flush_all)
C:/Users/smail/Desktop/College/MA2/Real_Time_Embedded_Systems/final_projectCCC/sw/nios/project_bsp/\libhal_bsp.a(alt_dev.o)
                              C:/Users/smail/Desktop/College/MA2/Real_Time_Embedded_Systems/final_projectCCC/sw/nios/project_bsp/\libhal_bsp.a(alt_sys_init.o) (alt_dev_list)
C:/Users/smail/Desktop/College/MA2/Real_Time_Embedded_Systems/final_projectCCC/sw/nios/project_bsp/\libhal_bsp.a(alt_dev_llist_insert.o)
                              C:/Users/smail/Desktop/College/MA2/Real_Time_Embedded_Systems/final_projectCCC/sw/nios/project_bsp/\libhal_bsp.a(alt_sys_init.o) (alt_dev_llist_insert)
C:/Users/smail/Desktop/College/MA2/Real_Time_Embedded_Systems/final_projectCCC/sw/nios/project_bsp/\libhal_bsp.a(alt_do_ctors.o)
                              C:/Users/smail/Desktop/College/MA2/Real_Time_Embedded_Systems/final_projectCCC/sw/nios/project_bsp/\libhal_bsp.a(alt_main.o) (_do_ctors)
C:/Users/smail/Desktop/College/MA2/Real_Time_Embedded_Systems/final_projectCCC/sw/nios/project_bsp/\libhal_bsp.a(alt_do_dtors.o)
                              C:/Users/smail/Desktop/College/MA2/Real_Time_Embedded_Systems/final_projectCCC/sw/nios/project_bsp/\libhal_bsp.a(alt_main.o) (_do_dtors)
C:/Users/smail/Desktop/College/MA2/Real_Time_Embedded_Systems/final_projectCCC/sw/nios/project_bsp/\libhal_bsp.a(alt_errno.o)
                              C:/Users/smail/Desktop/College/MA2/Real_Time_Embedded_Systems/final_projectCCC/sw/nios/project_bsp/\libhal_bsp.a(alt_times.o) (alt_errno)
C:/Users/smail/Desktop/College/MA2/Real_Time_Embedded_Systems/final_projectCCC/sw/nios/project_bsp/\libhal_bsp.a(alt_exception_entry.o)
                              C:/Users/smail/Desktop/College/MA2/Real_Time_Embedded_Systems/final_projectCCC/sw/nios/project_bsp/\libhal_bsp.a(alt_irq_entry.o) (alt_exception)
C:/Users/smail/Desktop/College/MA2/Real_Time_Embedded_Systems/final_projectCCC/sw/nios/project_bsp/\libhal_bsp.a(alt_find_dev.o)
                              C:/Users/smail/Desktop/College/MA2/Real_Time_Embedded_Systems/final_projectCCC/sw/nios/project_bsp/\libhal_bsp.a(altera_up_avalon_audio.o) (alt_find_dev)
C:/Users/smail/Desktop/College/MA2/Real_Time_Embedded_Systems/final_projectCCC/sw/nios/project_bsp/\libhal_bsp.a(alt_icache_flush_all.o)
                              C:/Users/smail/Desktop/College/MA2/Real_Time_Embedded_Systems/final_projectCCC/sw/nios/project_bsp/\libhal_bsp.a(alt_load.o) (alt_icache_flush_all)
C:/Users/smail/Desktop/College/MA2/Real_Time_Embedded_Systems/final_projectCCC/sw/nios/project_bsp/\libhal_bsp.a(alt_instruction_exception_entry.o)
                              C:/Users/smail/Desktop/College/MA2/Real_Time_Embedded_Systems/final_projectCCC/sw/nios/project_bsp/\libhal_bsp.a(alt_exception_entry.o) (alt_instruction_exception_entry)
C:/Users/smail/Desktop/College/MA2/Real_Time_Embedded_Systems/final_projectCCC/sw/nios/project_bsp/\libhal_bsp.a(alt_io_redirect.o)
                              C:/Users/smail/Desktop/College/MA2/Real_Time_Embedded_Systems/final_projectCCC/sw/nios/project_bsp/\libhal_bsp.a(alt_main.o) (alt_io_redirect)
C:/Users/smail/Desktop/College/MA2/Real_Time_Embedded_Systems/final_projectCCC/sw/nios/project_bsp/\libhal_bsp.a(alt_open.o)
                              C:/Users/smail/Desktop/College/MA2/Real_Time_Embedded_Systems/final_projectCCC/sw/nios/project_bsp/\libhal_bsp.a(alt_io_redirect.o) (open)
C:/Users/smail/Desktop/College/MA2/Real_Time_Embedded_Systems/final_projectCCC/sw/nios/project_bsp/\libhal_bsp.a(alt_release_fd.o)
                              C:/Users/smail/Desktop/College/MA2/Real_Time_Embedded_Systems/final_projectCCC/sw/nios/project_bsp/\libhal_bsp.a(alt_close.o) (alt_release_fd)
C:/Users/smail/Desktop/College/MA2/Real_Time_Embedded_Systems/final_projectCCC/sw/nios/project_bsp/\libhal_bsp.a(alt_tick.o)
                              C:/Users/smail/Desktop/College/MA2/Real_Time_Embedded_Systems/final_projectCCC/sw/nios/project_bsp/\libhal_bsp.a(alt_times.o) (_alt_tick_rate)
C:/Users/smail/Desktop/College/MA2/Real_Time_Embedded_Systems/final_projectCCC/sw/nios/project_bsp/\libhal_bsp.a(altera_nios2_gen2_irq.o)
                              C:/Users/smail/Desktop/College/MA2/Real_Time_Embedded_Systems/final_projectCCC/sw/nios/project_bsp/\libhal_bsp.a(alt_sys_init.o) (altera_nios2_gen2_irq_init)
C:/Users/smail/Desktop/College/MA2/Real_Time_Embedded_Systems/final_projectCCC/sw/nios/project_bsp/\libhal_bsp.a(alt_find_file.o)
                              C:/Users/smail/Desktop/College/MA2/Real_Time_Embedded_Systems/final_projectCCC/sw/nios/project_bsp/\libhal_bsp.a(alt_open.o) (alt_find_file)
C:/Users/smail/Desktop/College/MA2/Real_Time_Embedded_Systems/final_projectCCC/sw/nios/project_bsp/\libhal_bsp.a(alt_get_fd.o)
                              C:/Users/smail/Desktop/College/MA2/Real_Time_Embedded_Systems/final_projectCCC/sw/nios/project_bsp/\libhal_bsp.a(alt_open.o) (alt_get_fd)
C:/Users/smail/Desktop/College/MA2/Real_Time_Embedded_Systems/final_projectCCC/sw/nios/project_bsp/\libhal_bsp.a(alt_icache_flush.o)
                              C:/Users/smail/Desktop/College/MA2/Real_Time_Embedded_Systems/final_projectCCC/sw/nios/project_bsp/\libhal_bsp.a(alt_icache_flush_all.o) (alt_icache_flush)
c:/programmes/fpga/nios2eds/bin/gnu/h-x86_64-mingw32/bin/../lib/gcc/nios2-elf/5.3.0/../../../../../H-x86_64-mingw32/nios2-elf/lib\libc.a(lib_a-atexit.o)
                              C:/Users/smail/Desktop/College/MA2/Real_Time_Embedded_Systems/final_projectCCC/sw/nios/project_bsp/\libhal_bsp.a(alt_main.o) (atexit)
c:/programmes/fpga/nios2eds/bin/gnu/h-x86_64-mingw32/bin/../lib/gcc/nios2-elf/5.3.0/../../../../../H-x86_64-mingw32/nios2-elf/lib\libc.a(lib_a-exit.o)
                              C:/Users/smail/Desktop/College/MA2/Real_Time_Embedded_Systems/final_projectCCC/sw/nios/project_bsp/\libhal_bsp.a(alt_main.o) (exit)
c:/programmes/fpga/nios2eds/bin/gnu/h-x86_64-mingw32/bin/../lib/gcc/nios2-elf/5.3.0/../../../../../H-x86_64-mingw32/nios2-elf/lib\libc.a(lib_a-int_errno.o)
                              C:/Users/smail/Desktop/College/MA2/Real_Time_Embedded_Systems/final_projectCCC/sw/nios/project_bsp/\libhal_bsp.a(alt_times.o) (errno)
c:/programmes/fpga/nios2eds/bin/gnu/h-x86_64-mingw32/bin/../lib/gcc/nios2-elf/5.3.0/../../../../../H-x86_64-mingw32/nios2-elf/lib\libc.a(lib_a-memcmp.o)
                              C:/Users/smail/Desktop/College/MA2/Real_Time_Embedded_Systems/final_projectCCC/sw/nios/project_bsp/\libhal_bsp.a(alt_find_dev.o) (memcmp)
c:/programmes/fpga/nios2eds/bin/gnu/h-x86_64-mingw32/bin/../lib/gcc/nios2-elf/5.3.0/../../../../../H-x86_64-mingw32/nios2-elf/lib\libc.a(lib_a-memcpy.o)
                              C:/Users/smail/Desktop/College/MA2/Real_Time_Embedded_Systems/final_projectCCC/sw/nios/project_bsp/\libhal_bsp.a(altera_avalon_jtag_uart_read.o) (memcpy)
c:/programmes/fpga/nios2eds/bin/gnu/h-x86_64-mingw32/bin/../lib/gcc/nios2-elf/5.3.0/../../../../../H-x86_64-mingw32/nios2-elf/lib\libc.a(lib_a-putc.o)
                              C:/Users/smail/Desktop/College/MA2/Real_Time_Embedded_Systems/final_projectCCC/sw/nios/project_bsp/\libhal_bsp.a(alt_putchar.o) (putc)
c:/programmes/fpga/nios2eds/bin/gnu/h-x86_64-mingw32/bin/../lib/gcc/nios2-elf/5.3.0/../../../../../H-x86_64-mingw32/nios2-elf/lib\libc.a(lib_a-strlen.o)
                              C:/Users/smail/Desktop/College/MA2/Real_Time_Embedded_Systems/final_projectCCC/sw/nios/project_bsp/\libhal_bsp.a(alt_find_dev.o) (strlen)
c:/programmes/fpga/nios2eds/bin/gnu/h-x86_64-mingw32/bin/../lib/gcc/nios2-elf/5.3.0/../../../../../H-x86_64-mingw32/nios2-elf/lib\libc.a(lib_a-wbuf.o)
                              c:/programmes/fpga/nios2eds/bin/gnu/h-x86_64-mingw32/bin/../lib/gcc/nios2-elf/5.3.0/../../../../../H-x86_64-mingw32/nios2-elf/lib\libc.a(lib_a-putc.o) (__swbuf_r)
c:/programmes/fpga/nios2eds/bin/gnu/h-x86_64-mingw32/bin/../lib/gcc/nios2-elf/5.3.0/../../../../../H-x86_64-mingw32/nios2-elf/lib\libc.a(lib_a-wsetup.o)
                              c:/programmes/fpga/nios2eds/bin/gnu/h-x86_64-mingw32/bin/../lib/gcc/nios2-elf/5.3.0/../../../../../H-x86_64-mingw32/nios2-elf/lib\libc.a(lib_a-wbuf.o) (__swsetup_r)
c:/programmes/fpga/nios2eds/bin/gnu/h-x86_64-mingw32/bin/../lib/gcc/nios2-elf/5.3.0/../../../../../H-x86_64-mingw32/nios2-elf/lib\libc.a(lib_a-__atexit.o)
                              c:/programmes/fpga/nios2eds/bin/gnu/h-x86_64-mingw32/bin/../lib/gcc/nios2-elf/5.3.0/../../../../../H-x86_64-mingw32/nios2-elf/lib\libc.a(lib_a-atexit.o) (__register_exitproc)
c:/programmes/fpga/nios2eds/bin/gnu/h-x86_64-mingw32/bin/../lib/gcc/nios2-elf/5.3.0/../../../../../H-x86_64-mingw32/nios2-elf/lib\libc.a(lib_a-__call_atexit.o)
                              c:/programmes/fpga/nios2eds/bin/gnu/h-x86_64-mingw32/bin/../lib/gcc/nios2-elf/5.3.0/../../../../../H-x86_64-mingw32/nios2-elf/lib\libc.a(lib_a-exit.o) (__call_exitprocs)
c:/programmes/fpga/nios2eds/bin/gnu/h-x86_64-mingw32/bin/../lib/gcc/nios2-elf/5.3.0/../../../../../H-x86_64-mingw32/nios2-elf/lib\libc.a(lib_a-fflush.o)
                              c:/programmes/fpga/nios2eds/bin/gnu/h-x86_64-mingw32/bin/../lib/gcc/nios2-elf/5.3.0/../../../../../H-x86_64-mingw32/nios2-elf/lib\libc.a(lib_a-wbuf.o) (_fflush_r)
c:/programmes/fpga/nios2eds/bin/gnu/h-x86_64-mingw32/bin/../lib/gcc/nios2-elf/5.3.0/../../../../../H-x86_64-mingw32/nios2-elf/lib\libc.a(lib_a-findfp.o)
                              c:/programmes/fpga/nios2eds/bin/gnu/h-x86_64-mingw32/bin/../lib/gcc/nios2-elf/5.3.0/../../../../../H-x86_64-mingw32/nios2-elf/lib\libc.a(lib_a-putc.o) (__sinit)
c:/programmes/fpga/nios2eds/bin/gnu/h-x86_64-mingw32/bin/../lib/gcc/nios2-elf/5.3.0/../../../../../H-x86_64-mingw32/nios2-elf/lib\libc.a(lib_a-freer.o)
                              c:/programmes/fpga/nios2eds/bin/gnu/h-x86_64-mingw32/bin/../lib/gcc/nios2-elf/5.3.0/../../../../../H-x86_64-mingw32/nios2-elf/lib\libc.a(lib_a-wsetup.o) (_free_r)
c:/programmes/fpga/nios2eds/bin/gnu/h-x86_64-mingw32/bin/../lib/gcc/nios2-elf/5.3.0/../../../../../H-x86_64-mingw32/nios2-elf/lib\libc.a(lib_a-fwalk.o)
                              c:/programmes/fpga/nios2eds/bin/gnu/h-x86_64-mingw32/bin/../lib/gcc/nios2-elf/5.3.0/../../../../../H-x86_64-mingw32/nios2-elf/lib\libc.a(lib_a-findfp.o) (_fwalk)
c:/programmes/fpga/nios2eds/bin/gnu/h-x86_64-mingw32/bin/../lib/gcc/nios2-elf/5.3.0/../../../../../H-x86_64-mingw32/nios2-elf/lib\libc.a(lib_a-makebuf.o)
                              c:/programmes/fpga/nios2eds/bin/gnu/h-x86_64-mingw32/bin/../lib/gcc/nios2-elf/5.3.0/../../../../../H-x86_64-mingw32/nios2-elf/lib\libc.a(lib_a-wsetup.o) (__smakebuf_r)
c:/programmes/fpga/nios2eds/bin/gnu/h-x86_64-mingw32/bin/../lib/gcc/nios2-elf/5.3.0/../../../../../H-x86_64-mingw32/nios2-elf/lib\libc.a(lib_a-mallocr.o)
                              c:/programmes/fpga/nios2eds/bin/gnu/h-x86_64-mingw32/bin/../lib/gcc/nios2-elf/5.3.0/../../../../../H-x86_64-mingw32/nios2-elf/lib\libc.a(lib_a-findfp.o) (_malloc_r)
c:/programmes/fpga/nios2eds/bin/gnu/h-x86_64-mingw32/bin/../lib/gcc/nios2-elf/5.3.0/../../../../../H-x86_64-mingw32/nios2-elf/lib\libc.a(lib_a-memset.o)
                              c:/programmes/fpga/nios2eds/bin/gnu/h-x86_64-mingw32/bin/../lib/gcc/nios2-elf/5.3.0/../../../../../H-x86_64-mingw32/nios2-elf/lib\libc.a(lib_a-findfp.o) (memset)
c:/programmes/fpga/nios2eds/bin/gnu/h-x86_64-mingw32/bin/../lib/gcc/nios2-elf/5.3.0/../../../../../H-x86_64-mingw32/nios2-elf/lib\libc.a(lib_a-sbrkr.o)
                              c:/programmes/fpga/nios2eds/bin/gnu/h-x86_64-mingw32/bin/../lib/gcc/nios2-elf/5.3.0/../../../../../H-x86_64-mingw32/nios2-elf/lib\libc.a(lib_a-freer.o) (_sbrk_r)
c:/programmes/fpga/nios2eds/bin/gnu/h-x86_64-mingw32/bin/../lib/gcc/nios2-elf/5.3.0/../../../../../H-x86_64-mingw32/nios2-elf/lib\libc.a(lib_a-stdio.o)
                              c:/programmes/fpga/nios2eds/bin/gnu/h-x86_64-mingw32/bin/../lib/gcc/nios2-elf/5.3.0/../../../../../H-x86_64-mingw32/nios2-elf/lib\libc.a(lib_a-findfp.o) (__sread)
c:/programmes/fpga/nios2eds/bin/gnu/h-x86_64-mingw32/bin/../lib/gcc/nios2-elf/5.3.0/../../../../../H-x86_64-mingw32/nios2-elf/lib\libc.a(lib_a-writer.o)
                              c:/programmes/fpga/nios2eds/bin/gnu/h-x86_64-mingw32/bin/../lib/gcc/nios2-elf/5.3.0/../../../../../H-x86_64-mingw32/nios2-elf/lib\libc.a(lib_a-stdio.o) (_write_r)
c:/programmes/fpga/nios2eds/bin/gnu/h-x86_64-mingw32/bin/../lib/gcc/nios2-elf/5.3.0/../../../../../H-x86_64-mingw32/nios2-elf/lib\libc.a(closer.o)
                              c:/programmes/fpga/nios2eds/bin/gnu/h-x86_64-mingw32/bin/../lib/gcc/nios2-elf/5.3.0/../../../../../H-x86_64-mingw32/nios2-elf/lib\libc.a(lib_a-stdio.o) (_close_r)
c:/programmes/fpga/nios2eds/bin/gnu/h-x86_64-mingw32/bin/../lib/gcc/nios2-elf/5.3.0/../../../../../H-x86_64-mingw32/nios2-elf/lib\libc.a(lib_a-fclose.o)
                              c:/programmes/fpga/nios2eds/bin/gnu/h-x86_64-mingw32/bin/../lib/gcc/nios2-elf/5.3.0/../../../../../H-x86_64-mingw32/nios2-elf/lib\libc.a(lib_a-findfp.o) (_fclose_r)
c:/programmes/fpga/nios2eds/bin/gnu/h-x86_64-mingw32/bin/../lib/gcc/nios2-elf/5.3.0/../../../../../H-x86_64-mingw32/nios2-elf/lib\libc.a(lib_a-fstatr.o)
                              c:/programmes/fpga/nios2eds/bin/gnu/h-x86_64-mingw32/bin/../lib/gcc/nios2-elf/5.3.0/../../../../../H-x86_64-mingw32/nios2-elf/lib\libc.a(lib_a-makebuf.o) (_fstat_r)
c:/programmes/fpga/nios2eds/bin/gnu/h-x86_64-mingw32/bin/../lib/gcc/nios2-elf/5.3.0/../../../../../H-x86_64-mingw32/nios2-elf/lib\libc.a(lib_a-isattyr.o)
                              c:/programmes/fpga/nios2eds/bin/gnu/h-x86_64-mingw32/bin/../lib/gcc/nios2-elf/5.3.0/../../../../../H-x86_64-mingw32/nios2-elf/lib\libc.a(lib_a-makebuf.o) (_isatty_r)
c:/programmes/fpga/nios2eds/bin/gnu/h-x86_64-mingw32/bin/../lib/gcc/nios2-elf/5.3.0/../../../../../H-x86_64-mingw32/nios2-elf/lib\libc.a(lib_a-lseekr.o)
                              c:/programmes/fpga/nios2eds/bin/gnu/h-x86_64-mingw32/bin/../lib/gcc/nios2-elf/5.3.0/../../../../../H-x86_64-mingw32/nios2-elf/lib\libc.a(lib_a-stdio.o) (_lseek_r)
c:/programmes/fpga/nios2eds/bin/gnu/h-x86_64-mingw32/bin/../lib/gcc/nios2-elf/5.3.0/../../../../../H-x86_64-mingw32/nios2-elf/lib\libc.a(lib_a-readr.o)
                              c:/programmes/fpga/nios2eds/bin/gnu/h-x86_64-mingw32/bin/../lib/gcc/nios2-elf/5.3.0/../../../../../H-x86_64-mingw32/nios2-elf/lib\libc.a(lib_a-stdio.o) (_read_r)
C:/Users/smail/Desktop/College/MA2/Real_Time_Embedded_Systems/final_projectCCC/sw/nios/project_bsp/\libhal_bsp.a(alt_exit.o)
                              c:/programmes/fpga/nios2eds/bin/gnu/h-x86_64-mingw32/bin/../lib/gcc/nios2-elf/5.3.0/../../../../../H-x86_64-mingw32/nios2-elf/lib\libc.a(lib_a-exit.o) (_exit)
C:/Users/smail/Desktop/College/MA2/Real_Time_Embedded_Systems/final_projectCCC/sw/nios/project_bsp/\libhal_bsp.a(alt_fstat.o)
                              c:/programmes/fpga/nios2eds/bin/gnu/h-x86_64-mingw32/bin/../lib/gcc/nios2-elf/5.3.0/../../../../../H-x86_64-mingw32/nios2-elf/lib\libc.a(lib_a-fstatr.o) (fstat)
C:/Users/smail/Desktop/College/MA2/Real_Time_Embedded_Systems/final_projectCCC/sw/nios/project_bsp/\libhal_bsp.a(alt_isatty.o)
                              c:/programmes/fpga/nios2eds/bin/gnu/h-x86_64-mingw32/bin/../lib/gcc/nios2-elf/5.3.0/../../../../../H-x86_64-mingw32/nios2-elf/lib\libc.a(lib_a-isattyr.o) (isatty)
C:/Users/smail/Desktop/College/MA2/Real_Time_Embedded_Systems/final_projectCCC/sw/nios/project_bsp/\libhal_bsp.a(alt_lseek.o)
                              c:/programmes/fpga/nios2eds/bin/gnu/h-x86_64-mingw32/bin/../lib/gcc/nios2-elf/5.3.0/../../../../../H-x86_64-mingw32/nios2-elf/lib\libc.a(lib_a-lseekr.o) (lseek)
C:/Users/smail/Desktop/College/MA2/Real_Time_Embedded_Systems/final_projectCCC/sw/nios/project_bsp/\libhal_bsp.a(alt_malloc_lock.o)
                              c:/programmes/fpga/nios2eds/bin/gnu/h-x86_64-mingw32/bin/../lib/gcc/nios2-elf/5.3.0/../../../../../H-x86_64-mingw32/nios2-elf/lib\libc.a(lib_a-freer.o) (__malloc_lock)
C:/Users/smail/Desktop/College/MA2/Real_Time_Embedded_Systems/final_projectCCC/sw/nios/project_bsp/\libhal_bsp.a(alt_read.o)
                              c:/programmes/fpga/nios2eds/bin/gnu/h-x86_64-mingw32/bin/../lib/gcc/nios2-elf/5.3.0/../../../../../H-x86_64-mingw32/nios2-elf/lib\libc.a(lib_a-readr.o) (read)
C:/Users/smail/Desktop/College/MA2/Real_Time_Embedded_Systems/final_projectCCC/sw/nios/project_bsp/\libhal_bsp.a(alt_sbrk.o)
                              c:/programmes/fpga/nios2eds/bin/gnu/h-x86_64-mingw32/bin/../lib/gcc/nios2-elf/5.3.0/../../../../../H-x86_64-mingw32/nios2-elf/lib\libc.a(lib_a-sbrkr.o) (sbrk)
C:/Users/smail/Desktop/College/MA2/Real_Time_Embedded_Systems/final_projectCCC/sw/nios/project_bsp/\libhal_bsp.a(alt_write.o)
                              c:/programmes/fpga/nios2eds/bin/gnu/h-x86_64-mingw32/bin/../lib/gcc/nios2-elf/5.3.0/../../../../../H-x86_64-mingw32/nios2-elf/lib\libc.a(lib_a-writer.o) (write)

Allocating common symbols
Common symbol       size              file

alt_irq             0x100             C:/Users/smail/Desktop/College/MA2/Real_Time_Embedded_Systems/final_projectCCC/sw/nios/project_bsp/\libhal_bsp.a(alt_irq_handler.o)
errno               0x4               c:/programmes/fpga/nios2eds/bin/gnu/h-x86_64-mingw32/bin/../lib/gcc/nios2-elf/5.3.0/../../../../../H-x86_64-mingw32/nios2-elf/lib\libc.a(lib_a-int_errno.o)
audio_dev           0x4               obj/default/hello_world.o
audio_conf          0x4               obj/default/hello_world.o

Memory Configuration

Name             Origin             Length             Attributes
new_sdram_controller_0 0x0000000004000000 0x0000000004000000
reset            0x0000000008040000 0x0000000000000020
onchip_memory2_0 0x0000000008040020 0x000000000003ffe0
*default*        0x0000000000000000 0xffffffffffffffff

Linker script and memory map

LOAD C:/Users/smail/Desktop/College/MA2/Real_Time_Embedded_Systems/final_projectCCC/sw/nios/project_bsp//obj/HAL/src/crt0.o
LOAD obj/default/hello_world.o
LOAD c:/programmes/fpga/nios2eds/bin/gnu/h-x86_64-mingw32/bin/../lib/gcc/nios2-elf/5.3.0/../../../../../H-x86_64-mingw32/nios2-elf/lib\libstdc++.a
LOAD c:/programmes/fpga/nios2eds/bin/gnu/h-x86_64-mingw32/bin/../lib/gcc/nios2-elf/5.3.0/../../../../../H-x86_64-mingw32/nios2-elf/lib\libm.a
LOAD c:/programmes/fpga/nios2eds/bin/gnu/h-x86_64-mingw32/bin/../lib/gcc/nios2-elf/5.3.0\libgcc.a
START GROUP
LOAD c:/programmes/fpga/nios2eds/bin/gnu/h-x86_64-mingw32/bin/../lib/gcc/nios2-elf/5.3.0/../../../../../H-x86_64-mingw32/nios2-elf/lib\libc.a
LOAD c:/programmes/fpga/nios2eds/bin/gnu/h-x86_64-mingw32/bin/../lib/gcc/nios2-elf/5.3.0\libgcc.a
LOAD C:/Users/smail/Desktop/College/MA2/Real_Time_Embedded_Systems/final_projectCCC/sw/nios/project_bsp/\libhal_bsp.a
LOAD c:/programmes/fpga/nios2eds/bin/gnu/h-x86_64-mingw32/bin/../lib/gcc/nios2-elf/5.3.0/../../../../../H-x86_64-mingw32/nios2-elf/lib\libm.a
END GROUP
LOAD c:/programmes/fpga/nios2eds/bin/gnu/h-x86_64-mingw32/bin/../lib/gcc/nios2-elf/5.3.0\libgcc.a
                0x0000000004000000                __alt_mem_new_sdram_controller_0 = 0x4000000
                0x0000000008040000                __alt_mem_onchip_memory2_0 = 0x8040000

.entry          0x0000000008040000       0x20
 *(.entry)
 .entry         0x0000000008040000       0x20 C:/Users/smail/Desktop/College/MA2/Real_Time_Embedded_Systems/final_projectCCC/sw/nios/project_bsp//obj/HAL/src/crt0.o
                0x0000000008040000                __reset

.exceptions     0x0000000008040020      0x224
                0x0000000008040020                PROVIDE (__ram_exceptions_start, ABSOLUTE (.))
                0x0000000008040020                . = ALIGN (0x20)
 *(.irq)
 *(.exceptions.entry.label)
 .exceptions.entry.label
                0x0000000008040020        0x0 C:/Users/smail/Desktop/College/MA2/Real_Time_Embedded_Systems/final_projectCCC/sw/nios/project_bsp/\libhal_bsp.a(alt_irq_entry.o)
                0x0000000008040020                alt_irq_entry
 .exceptions.entry.label
                0x0000000008040020        0x0 C:/Users/smail/Desktop/College/MA2/Real_Time_Embedded_Systems/final_projectCCC/sw/nios/project_bsp/\libhal_bsp.a(alt_exception_entry.o)
                0x0000000008040020                alt_exception
 *(.exceptions.entry.user)
 *(.exceptions.entry.ecc_fatal)
 *(.exceptions.entry)
 .exceptions.entry
                0x0000000008040020       0x54 C:/Users/smail/Desktop/College/MA2/Real_Time_Embedded_Systems/final_projectCCC/sw/nios/project_bsp/\libhal_bsp.a(alt_exception_entry.o)
 *(.exceptions.irqtest.user)
 *(.exceptions.irqtest)
 .exceptions.irqtest
                0x0000000008040074       0x10 C:/Users/smail/Desktop/College/MA2/Real_Time_Embedded_Systems/final_projectCCC/sw/nios/project_bsp/\libhal_bsp.a(alt_irq_entry.o)
 *(.exceptions.irqhandler.user)
 *(.exceptions.irqhandler)
 .exceptions.irqhandler
                0x0000000008040084        0x4 C:/Users/smail/Desktop/College/MA2/Real_Time_Embedded_Systems/final_projectCCC/sw/nios/project_bsp/\libhal_bsp.a(alt_irq_entry.o)
 *(.exceptions.irqreturn.user)
 *(.exceptions.irqreturn)
 .exceptions.irqreturn
                0x0000000008040088        0x4 C:/Users/smail/Desktop/College/MA2/Real_Time_Embedded_Systems/final_projectCCC/sw/nios/project_bsp/\libhal_bsp.a(alt_irq_entry.o)
 *(.exceptions.notirq.label)
 .exceptions.notirq.label
                0x000000000804008c        0x0 C:/Users/smail/Desktop/College/MA2/Real_Time_Embedded_Systems/final_projectCCC/sw/nios/project_bsp/\libhal_bsp.a(alt_irq_entry.o)
 *(.exceptions.notirq.user)
 *(.exceptions.notirq)
 .exceptions.notirq
                0x000000000804008c        0x8 C:/Users/smail/Desktop/College/MA2/Real_Time_Embedded_Systems/final_projectCCC/sw/nios/project_bsp/\libhal_bsp.a(alt_exception_entry.o)
 *(.exceptions.soft.user)
 *(.exceptions.soft)
 *(.exceptions.unknown.user)
 *(.exceptions.unknown)
 .exceptions.unknown
                0x0000000008040094       0x14 C:/Users/smail/Desktop/College/MA2/Real_Time_Embedded_Systems/final_projectCCC/sw/nios/project_bsp/\libhal_bsp.a(alt_exception_entry.o)
 *(.exceptions.exit.label)
 .exceptions.exit.label
                0x00000000080400a8        0x0 C:/Users/smail/Desktop/College/MA2/Real_Time_Embedded_Systems/final_projectCCC/sw/nios/project_bsp/\libhal_bsp.a(alt_irq_entry.o)
 .exceptions.exit.label
                0x00000000080400a8        0x0 C:/Users/smail/Desktop/College/MA2/Real_Time_Embedded_Systems/final_projectCCC/sw/nios/project_bsp/\libhal_bsp.a(alt_exception_entry.o)
 *(.exceptions.exit.user)
 *(.exceptions.exit)
 .exceptions.exit
                0x00000000080400a8       0x54 C:/Users/smail/Desktop/College/MA2/Real_Time_Embedded_Systems/final_projectCCC/sw/nios/project_bsp/\libhal_bsp.a(alt_exception_entry.o)
 *(.exceptions)
 .exceptions    0x00000000080400fc       0xd4 C:/Users/smail/Desktop/College/MA2/Real_Time_Embedded_Systems/final_projectCCC/sw/nios/project_bsp/\libhal_bsp.a(alt_irq_handler.o)
                0x00000000080400fc                alt_irq_handler
 .exceptions    0x00000000080401d0       0x74 C:/Users/smail/Desktop/College/MA2/Real_Time_Embedded_Systems/final_projectCCC/sw/nios/project_bsp/\libhal_bsp.a(alt_instruction_exception_entry.o)
                0x00000000080401d0                alt_instruction_exception_entry
                0x0000000008040244                PROVIDE (__ram_exceptions_end, ABSOLUTE (.))
                0x0000000008040020                PROVIDE (__flash_exceptions_start, LOADADDR (.exceptions))

.text           0x0000000008040244     0x7074
                [!provide]                        PROVIDE (stext, ABSOLUTE (.))
 *(.interp)
 *(.hash)
 *(.dynsym)
 *(.dynstr)
 *(.gnu.version)
 *(.gnu.version_d)
 *(.gnu.version_r)
 *(.rel.init)
 *(.rela.init)
 *(.rel.text .rel.text.* .rel.gnu.linkonce.t.*)
 *(.rela.text .rela.text.* .rela.gnu.linkonce.t.*)
 *(.rel.fini)
 *(.rela.fini)
 *(.rel.rodata .rel.rodata.* .rel.gnu.linkonce.r.*)
 *(.rela.rodata .rela.rodata.* .rela.gnu.linkonce.r.*)
 *(.rel.data .rel.data.* .rel.gnu.linkonce.d.*)
 *(.rela.data .rela.data.* .rela.gnu.linkonce.d.*)
 *(.rel.tdata .rel.tdata.* .rel.gnu.linkonce.td.*)
 *(.rela.tdata .rela.tdata.* .rela.gnu.linkonce.td.*)
 *(.rel.tbss .rel.tbss.* .rel.gnu.linkonce.tb.*)
 *(.rela.tbss .rela.tbss.* .rela.gnu.linkonce.tb.*)
 *(.rel.ctors)
 *(.rela.ctors)
 *(.rel.dtors)
 *(.rela.dtors)
 *(.rel.got)
 *(.rela.got)
 *(.rel.sdata .rel.sdata.* .rel.gnu.linkonce.s.*)
 *(.rela.sdata .rela.sdata.* .rela.gnu.linkonce.s.*)
 *(.rel.sbss .rel.sbss.* .rel.gnu.linkonce.sb.*)
 *(.rela.sbss .rela.sbss.* .rela.gnu.linkonce.sb.*)
 *(.rel.sdata2 .rel.sdata2.* .rel.gnu.linkonce.s2.*)
 *(.rela.sdata2 .rela.sdata2.* .rela.gnu.linkonce.s2.*)
 *(.rel.sbss2 .rel.sbss2.* .rel.gnu.linkonce.sb2.*)
 *(.rela.sbss2 .rela.sbss2.* .rela.gnu.linkonce.sb2.*)
 *(.rel.bss .rel.bss.* .rel.gnu.linkonce.b.*)
 *(.rela.bss .rela.bss.* .rela.gnu.linkonce.b.*)
 *(.rel.plt)
 *(.rela.plt)
 *(.rel.dyn)
 *(.init)
 *(.plt)
 *(.text .stub .text.* .gnu.linkonce.t.*)
 .text          0x0000000008040244       0x4c C:/Users/smail/Desktop/College/MA2/Real_Time_Embedded_Systems/final_projectCCC/sw/nios/project_bsp//obj/HAL/src/crt0.o
                0x0000000008040244                _start
 .text          0x0000000008040290      0xc08 obj/default/hello_world.o
                0x0000000008040290                delay
                0x0000000008040310                record
                0x0000000008040458                combined_play
                0x00000000080405e0                play
                0x00000000080406dc                effects_isr
                0x0000000008040788                recording_isr
                0x00000000080408bc                main
 .text          0x0000000008040e98      0x1b4 c:/programmes/fpga/nios2eds/bin/gnu/h-x86_64-mingw32/bin/../lib/gcc/nios2-elf/5.3.0\libgcc.a(lib2-divmod.o)
                0x0000000008040e98                __divsi3
                0x0000000008040f1c                __modsi3
                0x0000000008040f90                __udivsi3
                0x0000000008040ff4                __umodsi3
 .text          0x000000000804104c      0x4c8 c:/programmes/fpga/nios2eds/bin/gnu/h-x86_64-mingw32/bin/../lib/gcc/nios2-elf/5.3.0\libgcc.a(addsf3.o)
                0x000000000804104c                __addsf3
 .text          0x0000000008041514       0xc8 c:/programmes/fpga/nios2eds/bin/gnu/h-x86_64-mingw32/bin/../lib/gcc/nios2-elf/5.3.0\libgcc.a(lesf2.o)
                0x0000000008041514                __ltsf2
                0x0000000008041514                __lesf2
 .text          0x00000000080415dc       0xf0 c:/programmes/fpga/nios2eds/bin/gnu/h-x86_64-mingw32/bin/../lib/gcc/nios2-elf/5.3.0\libgcc.a(floatunsisf.o)
                0x00000000080415dc                __floatunsisf
 .text          0x00000000080416cc       0x64 c:/programmes/fpga/nios2eds/bin/gnu/h-x86_64-mingw32/bin/../lib/gcc/nios2-elf/5.3.0\libgcc.a(_clzsi2.o)
                0x00000000080416cc                __clzsi2
 .text          0x0000000008041730        0x0 c:/programmes/fpga/nios2eds/bin/gnu/h-x86_64-mingw32/bin/../lib/gcc/nios2-elf/5.3.0\libgcc.a(_clz.o)
 .text          0x0000000008041730        0x0 c:/programmes/fpga/nios2eds/bin/gnu/h-x86_64-mingw32/bin/../lib/gcc/nios2-elf/5.3.0/../../../../../H-x86_64-mingw32/nios2-elf/lib\libc.a(lib_a-clock.o)
 .text.clock    0x0000000008041730       0x4c c:/programmes/fpga/nios2eds/bin/gnu/h-x86_64-mingw32/bin/../lib/gcc/nios2-elf/5.3.0/../../../../../H-x86_64-mingw32/nios2-elf/lib\libc.a(lib_a-clock.o)
                0x0000000008041730                clock
 .text          0x000000000804177c        0x0 c:/programmes/fpga/nios2eds/bin/gnu/h-x86_64-mingw32/bin/../lib/gcc/nios2-elf/5.3.0/../../../../../H-x86_64-mingw32/nios2-elf/lib\libc.a(lib_a-impure.o)
 .text          0x000000000804177c        0x0 c:/programmes/fpga/nios2eds/bin/gnu/h-x86_64-mingw32/bin/../lib/gcc/nios2-elf/5.3.0/../../../../../H-x86_64-mingw32/nios2-elf/lib\libc.a(lib_a-timesr.o)
 .text._times_r
                0x000000000804177c        0x8 c:/programmes/fpga/nios2eds/bin/gnu/h-x86_64-mingw32/bin/../lib/gcc/nios2-elf/5.3.0/../../../../../H-x86_64-mingw32/nios2-elf/lib\libc.a(lib_a-timesr.o)
                0x000000000804177c                _times_r
 .text          0x0000000008041784      0x1b0 C:/Users/smail/Desktop/College/MA2/Real_Time_Embedded_Systems/final_projectCCC/sw/nios/project_bsp/\libhal_bsp.a(alt_iic.o)
                0x0000000008041784                alt_ic_isr_register
                0x00000000080417d4                alt_ic_irq_enable
                0x000000000804185c                alt_ic_irq_disable
                0x00000000080418e8                alt_ic_irq_enabled
 .text          0x0000000008041934       0xf0 C:/Users/smail/Desktop/College/MA2/Real_Time_Embedded_Systems/final_projectCCC/sw/nios/project_bsp/\libhal_bsp.a(alt_iic_isr_register.o)
                0x0000000008041934                alt_iic_isr_register
 .text          0x0000000008041a24        0x0 C:/Users/smail/Desktop/College/MA2/Real_Time_Embedded_Systems/final_projectCCC/sw/nios/project_bsp/\libhal_bsp.a(alt_irq_entry.o)
 .text          0x0000000008041a24        0x0 C:/Users/smail/Desktop/College/MA2/Real_Time_Embedded_Systems/final_projectCCC/sw/nios/project_bsp/\libhal_bsp.a(alt_irq_handler.o)
 .text          0x0000000008041a24        0x0 C:/Users/smail/Desktop/College/MA2/Real_Time_Embedded_Systems/final_projectCCC/sw/nios/project_bsp/\libhal_bsp.a(alt_irq_vars.o)
 .text          0x0000000008041a24       0xec C:/Users/smail/Desktop/College/MA2/Real_Time_Embedded_Systems/final_projectCCC/sw/nios/project_bsp/\libhal_bsp.a(alt_load.o)
                0x0000000008041a8c                alt_load
 .text          0x0000000008041b10       0x7c C:/Users/smail/Desktop/College/MA2/Real_Time_Embedded_Systems/final_projectCCC/sw/nios/project_bsp/\libhal_bsp.a(alt_main.o)
                0x0000000008041b10                alt_main
 .text          0x0000000008041b8c      0x22c C:/Users/smail/Desktop/College/MA2/Real_Time_Embedded_Systems/final_projectCCC/sw/nios/project_bsp/\libhal_bsp.a(alt_printf.o)
                0x0000000008041b8c                alt_printf
 .text          0x0000000008041db8       0x3c C:/Users/smail/Desktop/College/MA2/Real_Time_Embedded_Systems/final_projectCCC/sw/nios/project_bsp/\libhal_bsp.a(alt_putchar.o)
                0x0000000008041db8                alt_putchar
 .text          0x0000000008041df4       0xb4 C:/Users/smail/Desktop/College/MA2/Real_Time_Embedded_Systems/final_projectCCC/sw/nios/project_bsp/\libhal_bsp.a(alt_times.o)
                0x0000000008041e30                times
 .text          0x0000000008041ea8       0xf4 C:/Users/smail/Desktop/College/MA2/Real_Time_Embedded_Systems/final_projectCCC/sw/nios/project_bsp/\libhal_bsp.a(alt_sys_init.o)
                0x0000000008041edc                alt_irq_init
                0x0000000008041f14                alt_sys_init
 .text          0x0000000008041f9c      0x164 C:/Users/smail/Desktop/College/MA2/Real_Time_Embedded_Systems/final_projectCCC/sw/nios/project_bsp/\libhal_bsp.a(altera_avalon_jtag_uart_fd.o)
                0x0000000008041f9c                altera_avalon_jtag_uart_read_fd
                0x0000000008041ffc                altera_avalon_jtag_uart_write_fd
                0x000000000804205c                altera_avalon_jtag_uart_close_fd
                0x00000000080420ac                altera_avalon_jtag_uart_ioctl_fd
 .text          0x0000000008042100      0x3d4 C:/Users/smail/Desktop/College/MA2/Real_Time_Embedded_Systems/final_projectCCC/sw/nios/project_bsp/\libhal_bsp.a(altera_avalon_jtag_uart_init.o)
                0x0000000008042100                altera_avalon_jtag_uart_init
                0x000000000804246c                altera_avalon_jtag_uart_close
 .text          0x00000000080424d4       0xf0 C:/Users/smail/Desktop/College/MA2/Real_Time_Embedded_Systems/final_projectCCC/sw/nios/project_bsp/\libhal_bsp.a(altera_avalon_jtag_uart_ioctl.o)
                0x00000000080424d4                altera_avalon_jtag_uart_ioctl
 .text          0x00000000080425c4      0x21c C:/Users/smail/Desktop/College/MA2/Real_Time_Embedded_Systems/final_projectCCC/sw/nios/project_bsp/\libhal_bsp.a(altera_avalon_jtag_uart_read.o)
                0x00000000080425c4                altera_avalon_jtag_uart_read
 .text          0x00000000080427e0      0x224 C:/Users/smail/Desktop/College/MA2/Real_Time_Embedded_Systems/final_projectCCC/sw/nios/project_bsp/\libhal_bsp.a(altera_avalon_jtag_uart_write.o)
                0x00000000080427e0                altera_avalon_jtag_uart_write
 .text          0x0000000008042a04       0xf4 C:/Users/smail/Desktop/College/MA2/Real_Time_Embedded_Systems/final_projectCCC/sw/nios/project_bsp/\libhal_bsp.a(altera_avalon_timer_sc.o)
                0x0000000008042a7c                alt_avalon_timer_sc_init
 .text          0x0000000008042af8      0x7a8 C:/Users/smail/Desktop/College/MA2/Real_Time_Embedded_Systems/final_projectCCC/sw/nios/project_bsp/\libhal_bsp.a(altera_up_avalon_audio.o)
                0x0000000008042af8                alt_up_audio_open_dev
                0x0000000008042b34                alt_up_audio_enable_read_interrupt
                0x0000000008042b88                alt_up_audio_disable_read_interrupt
                0x0000000008042be0                alt_up_audio_enable_write_interrupt
                0x0000000008042c34                alt_up_audio_disable_write_interrupt
                0x0000000008042c8c                alt_up_audio_read_interrupt_pending
                0x0000000008042ccc                alt_up_audio_write_interrupt_pending
                0x0000000008042d0c                alt_up_audio_reset_audio_core
                0x0000000008042da0                alt_up_audio_read_fifo_avail
                0x0000000008042e00                alt_up_audio_record_r
                0x0000000008042e68                alt_up_audio_record_l
                0x0000000008042ed0                alt_up_audio_write_fifo_space
                0x0000000008042f30                alt_up_audio_play_r
                0x0000000008042f98                alt_up_audio_play_l
                0x0000000008043000                alt_up_audio_read_fifo
                0x00000000080430e0                alt_up_audio_write_fifo
                0x00000000080431e8                alt_up_audio_read_fifo_head
                0x0000000008043238                alt_up_audio_write_fifo_head
 .text          0x00000000080432a0      0x6fc C:/Users/smail/Desktop/College/MA2/Real_Time_Embedded_Systems/final_projectCCC/sw/nios/project_bsp/\libhal_bsp.a(altera_up_avalon_audio_and_video_config.o)
                0x00000000080432a0                alt_up_av_config_open_dev
                0x0000000008043300                alt_up_av_config_write_data
                0x0000000008043364                alt_up_av_config_read_data
                0x00000000080433e4                alt_up_av_config_reset
                0x000000000804341c                alt_up_av_config_enable_interrupt
                0x0000000008043454                alt_up_av_config_disable_interrupt
                0x0000000008043488                alt_up_av_config_read_acknowledge
                0x00000000080434e0                alt_up_av_config_read_ready
                0x0000000008043518                alt_up_av_config_write_audio_cfg_register
                0x00000000080435bc                alt_up_av_config_read_video_cfg_register
                0x00000000080436a4                alt_up_av_config_write_video_cfg_register
                0x000000000804378c                alt_up_av_config_read_DC2_cfg_register
                0x00000000080437e4                alt_up_av_config_write_DC2_cfg_register
                0x000000000804383c                alt_up_av_config_read_D5M_cfg_register
                0x0000000008043894                alt_up_av_config_write_D5M_cfg_register
                0x00000000080438ec                alt_up_av_config_read_LTM_cfg_register
                0x0000000008043944                alt_up_av_config_write_LTM_cfg_register
 .text          0x000000000804399c      0x12c C:/Users/smail/Desktop/College/MA2/Real_Time_Embedded_Systems/final_projectCCC/sw/nios/project_bsp/\libhal_bsp.a(alt_alarm_start.o)
                0x000000000804399c                alt_alarm_start
 .text          0x0000000008043ac8      0x10c C:/Users/smail/Desktop/College/MA2/Real_Time_Embedded_Systems/final_projectCCC/sw/nios/project_bsp/\libhal_bsp.a(alt_close.o)
                0x0000000008043b04                close
 .text          0x0000000008043bd4       0x48 C:/Users/smail/Desktop/College/MA2/Real_Time_Embedded_Systems/final_projectCCC/sw/nios/project_bsp/\libhal_bsp.a(alt_dcache_flush_all.o)
                0x0000000008043bd4                alt_dcache_flush_all
 .text          0x0000000008043c1c       0x2c C:/Users/smail/Desktop/College/MA2/Real_Time_Embedded_Systems/final_projectCCC/sw/nios/project_bsp/\libhal_bsp.a(alt_dev.o)
 .text          0x0000000008043c48       0xe0 C:/Users/smail/Desktop/College/MA2/Real_Time_Embedded_Systems/final_projectCCC/sw/nios/project_bsp/\libhal_bsp.a(alt_dev_llist_insert.o)
                0x0000000008043c84                alt_dev_llist_insert
 .text          0x0000000008043d28       0x60 C:/Users/smail/Desktop/College/MA2/Real_Time_Embedded_Systems/final_projectCCC/sw/nios/project_bsp/\libhal_bsp.a(alt_do_ctors.o)
                0x0000000008043d28                _do_ctors
 .text          0x0000000008043d88       0x60 C:/Users/smail/Desktop/College/MA2/Real_Time_Embedded_Systems/final_projectCCC/sw/nios/project_bsp/\libhal_bsp.a(alt_do_dtors.o)
                0x0000000008043d88                _do_dtors
 .text          0x0000000008043de8        0x0 C:/Users/smail/Desktop/College/MA2/Real_Time_Embedded_Systems/final_projectCCC/sw/nios/project_bsp/\libhal_bsp.a(alt_errno.o)
 .text          0x0000000008043de8        0x0 C:/Users/smail/Desktop/College/MA2/Real_Time_Embedded_Systems/final_projectCCC/sw/nios/project_bsp/\libhal_bsp.a(alt_exception_entry.o)
 .text          0x0000000008043de8       0x90 C:/Users/smail/Desktop/College/MA2/Real_Time_Embedded_Systems/final_projectCCC/sw/nios/project_bsp/\libhal_bsp.a(alt_find_dev.o)
                0x0000000008043de8                alt_find_dev
 .text          0x0000000008043e78       0x34 C:/Users/smail/Desktop/College/MA2/Real_Time_Embedded_Systems/final_projectCCC/sw/nios/project_bsp/\libhal_bsp.a(alt_icache_flush_all.o)
                0x0000000008043e78                alt_icache_flush_all
 .text          0x0000000008043eac       0x9c C:/Users/smail/Desktop/College/MA2/Real_Time_Embedded_Systems/final_projectCCC/sw/nios/project_bsp/\libhal_bsp.a(alt_instruction_exception_entry.o)
                0x0000000008043eac                alt_exception_cause_generated_bad_addr
 .text          0x0000000008043f48      0x140 C:/Users/smail/Desktop/College/MA2/Real_Time_Embedded_Systems/final_projectCCC/sw/nios/project_bsp/\libhal_bsp.a(alt_io_redirect.o)
                0x000000000804400c                alt_io_redirect
 .text          0x0000000008044088      0x254 C:/Users/smail/Desktop/College/MA2/Real_Time_Embedded_Systems/final_projectCCC/sw/nios/project_bsp/\libhal_bsp.a(alt_open.o)
                0x0000000008044188                open
 .text          0x00000000080442dc       0x64 C:/Users/smail/Desktop/College/MA2/Real_Time_Embedded_Systems/final_projectCCC/sw/nios/project_bsp/\libhal_bsp.a(alt_release_fd.o)
                0x00000000080442dc                alt_release_fd
 .text          0x0000000008044340      0x1a4 C:/Users/smail/Desktop/College/MA2/Real_Time_Embedded_Systems/final_projectCCC/sw/nios/project_bsp/\libhal_bsp.a(alt_tick.o)
                0x0000000008044340                alt_alarm_stop
                0x00000000080443dc                alt_tick
 .text          0x00000000080444e4       0x24 C:/Users/smail/Desktop/College/MA2/Real_Time_Embedded_Systems/final_projectCCC/sw/nios/project_bsp/\libhal_bsp.a(altera_nios2_gen2_irq.o)
                0x00000000080444e4                altera_nios2_gen2_irq_init
 .text          0x0000000008044508      0x108 C:/Users/smail/Desktop/College/MA2/Real_Time_Embedded_Systems/final_projectCCC/sw/nios/project_bsp/\libhal_bsp.a(alt_find_file.o)
                0x0000000008044508                alt_find_file
 .text          0x0000000008044610       0xa4 C:/Users/smail/Desktop/College/MA2/Real_Time_Embedded_Systems/final_projectCCC/sw/nios/project_bsp/\libhal_bsp.a(alt_get_fd.o)
                0x0000000008044610                alt_get_fd
 .text          0x00000000080446b4       0x90 C:/Users/smail/Desktop/College/MA2/Real_Time_Embedded_Systems/final_projectCCC/sw/nios/project_bsp/\libhal_bsp.a(alt_icache_flush.o)
                0x00000000080446b4                alt_icache_flush
 .text          0x0000000008044744        0x0 c:/programmes/fpga/nios2eds/bin/gnu/h-x86_64-mingw32/bin/../lib/gcc/nios2-elf/5.3.0/../../../../../H-x86_64-mingw32/nios2-elf/lib\libc.a(lib_a-atexit.o)
 .text.atexit   0x0000000008044744       0x14 c:/programmes/fpga/nios2eds/bin/gnu/h-x86_64-mingw32/bin/../lib/gcc/nios2-elf/5.3.0/../../../../../H-x86_64-mingw32/nios2-elf/lib\libc.a(lib_a-atexit.o)
                0x0000000008044744                atexit
 .text          0x0000000008044758        0x0 c:/programmes/fpga/nios2eds/bin/gnu/h-x86_64-mingw32/bin/../lib/gcc/nios2-elf/5.3.0/../../../../../H-x86_64-mingw32/nios2-elf/lib\libc.a(lib_a-exit.o)
 .text.exit     0x0000000008044758       0x38 c:/programmes/fpga/nios2eds/bin/gnu/h-x86_64-mingw32/bin/../lib/gcc/nios2-elf/5.3.0/../../../../../H-x86_64-mingw32/nios2-elf/lib\libc.a(lib_a-exit.o)
                0x0000000008044758                exit
 .text          0x0000000008044790        0x0 c:/programmes/fpga/nios2eds/bin/gnu/h-x86_64-mingw32/bin/../lib/gcc/nios2-elf/5.3.0/../../../../../H-x86_64-mingw32/nios2-elf/lib\libc.a(lib_a-int_errno.o)
 .text          0x0000000008044790        0x0 c:/programmes/fpga/nios2eds/bin/gnu/h-x86_64-mingw32/bin/../lib/gcc/nios2-elf/5.3.0/../../../../../H-x86_64-mingw32/nios2-elf/lib\libc.a(lib_a-memcmp.o)
 .text.memcmp   0x0000000008044790       0x7c c:/programmes/fpga/nios2eds/bin/gnu/h-x86_64-mingw32/bin/../lib/gcc/nios2-elf/5.3.0/../../../../../H-x86_64-mingw32/nios2-elf/lib\libc.a(lib_a-memcmp.o)
                0x0000000008044790                memcmp
 .text          0x000000000804480c        0x0 c:/programmes/fpga/nios2eds/bin/gnu/h-x86_64-mingw32/bin/../lib/gcc/nios2-elf/5.3.0/../../../../../H-x86_64-mingw32/nios2-elf/lib\libc.a(lib_a-memcpy.o)
 .text.memcpy   0x000000000804480c      0x148 c:/programmes/fpga/nios2eds/bin/gnu/h-x86_64-mingw32/bin/../lib/gcc/nios2-elf/5.3.0/../../../../../H-x86_64-mingw32/nios2-elf/lib\libc.a(lib_a-memcpy.o)
                0x000000000804480c                memcpy
 .text          0x0000000008044954        0x0 c:/programmes/fpga/nios2eds/bin/gnu/h-x86_64-mingw32/bin/../lib/gcc/nios2-elf/5.3.0/../../../../../H-x86_64-mingw32/nios2-elf/lib\libc.a(lib_a-putc.o)
 .text._putc_r  0x0000000008044954       0xa0 c:/programmes/fpga/nios2eds/bin/gnu/h-x86_64-mingw32/bin/../lib/gcc/nios2-elf/5.3.0/../../../../../H-x86_64-mingw32/nios2-elf/lib\libc.a(lib_a-putc.o)
                0x0000000008044954                _putc_r
 .text.putc     0x00000000080449f4       0xc8 c:/programmes/fpga/nios2eds/bin/gnu/h-x86_64-mingw32/bin/../lib/gcc/nios2-elf/5.3.0/../../../../../H-x86_64-mingw32/nios2-elf/lib\libc.a(lib_a-putc.o)
                0x00000000080449f4                putc
 .text          0x0000000008044abc        0x0 c:/programmes/fpga/nios2eds/bin/gnu/h-x86_64-mingw32/bin/../lib/gcc/nios2-elf/5.3.0/../../../../../H-x86_64-mingw32/nios2-elf/lib\libc.a(lib_a-strlen.o)
 .text.strlen   0x0000000008044abc       0x98 c:/programmes/fpga/nios2eds/bin/gnu/h-x86_64-mingw32/bin/../lib/gcc/nios2-elf/5.3.0/../../../../../H-x86_64-mingw32/nios2-elf/lib\libc.a(lib_a-strlen.o)
                0x0000000008044abc                strlen
 .text          0x0000000008044b54        0x0 c:/programmes/fpga/nios2eds/bin/gnu/h-x86_64-mingw32/bin/../lib/gcc/nios2-elf/5.3.0/../../../../../H-x86_64-mingw32/nios2-elf/lib\libc.a(lib_a-wbuf.o)
 .text.__swbuf_r
                0x0000000008044b54      0x140 c:/programmes/fpga/nios2eds/bin/gnu/h-x86_64-mingw32/bin/../lib/gcc/nios2-elf/5.3.0/../../../../../H-x86_64-mingw32/nios2-elf/lib\libc.a(lib_a-wbuf.o)
                0x0000000008044b54                __swbuf_r
 .text.__swbuf  0x0000000008044c94       0x18 c:/programmes/fpga/nios2eds/bin/gnu/h-x86_64-mingw32/bin/../lib/gcc/nios2-elf/5.3.0/../../../../../H-x86_64-mingw32/nios2-elf/lib\libc.a(lib_a-wbuf.o)
                0x0000000008044c94                __swbuf
 .text          0x0000000008044cac        0x0 c:/programmes/fpga/nios2eds/bin/gnu/h-x86_64-mingw32/bin/../lib/gcc/nios2-elf/5.3.0/../../../../../H-x86_64-mingw32/nios2-elf/lib\libc.a(lib_a-wsetup.o)
 .text.__swsetup_r
                0x0000000008044cac      0x154 c:/programmes/fpga/nios2eds/bin/gnu/h-x86_64-mingw32/bin/../lib/gcc/nios2-elf/5.3.0/../../../../../H-x86_64-mingw32/nios2-elf/lib\libc.a(lib_a-wsetup.o)
                0x0000000008044cac                __swsetup_r
 .text          0x0000000008044e00        0x0 c:/programmes/fpga/nios2eds/bin/gnu/h-x86_64-mingw32/bin/../lib/gcc/nios2-elf/5.3.0/../../../../../H-x86_64-mingw32/nios2-elf/lib\libc.a(lib_a-__atexit.o)
 .text.__register_exitproc
                0x0000000008044e00      0x118 c:/programmes/fpga/nios2eds/bin/gnu/h-x86_64-mingw32/bin/../lib/gcc/nios2-elf/5.3.0/../../../../../H-x86_64-mingw32/nios2-elf/lib\libc.a(lib_a-__atexit.o)
                0x0000000008044e00                __register_exitproc
 .text          0x0000000008044f18        0x0 c:/programmes/fpga/nios2eds/bin/gnu/h-x86_64-mingw32/bin/../lib/gcc/nios2-elf/5.3.0/../../../../../H-x86_64-mingw32/nios2-elf/lib\libc.a(lib_a-__call_atexit.o)
 .text.__call_exitprocs
                0x0000000008044f18      0x180 c:/programmes/fpga/nios2eds/bin/gnu/h-x86_64-mingw32/bin/../lib/gcc/nios2-elf/5.3.0/../../../../../H-x86_64-mingw32/nios2-elf/lib\libc.a(lib_a-__call_atexit.o)
                0x0000000008044f18                __call_exitprocs
 .text          0x0000000008045098        0x0 c:/programmes/fpga/nios2eds/bin/gnu/h-x86_64-mingw32/bin/../lib/gcc/nios2-elf/5.3.0/../../../../../H-x86_64-mingw32/nios2-elf/lib\libc.a(lib_a-fflush.o)
 .text.__sflush_r
                0x0000000008045098      0x21c c:/programmes/fpga/nios2eds/bin/gnu/h-x86_64-mingw32/bin/../lib/gcc/nios2-elf/5.3.0/../../../../../H-x86_64-mingw32/nios2-elf/lib\libc.a(lib_a-fflush.o)
                0x0000000008045098                __sflush_r
 .text._fflush_r
                0x00000000080452b4       0x5c c:/programmes/fpga/nios2eds/bin/gnu/h-x86_64-mingw32/bin/../lib/gcc/nios2-elf/5.3.0/../../../../../H-x86_64-mingw32/nios2-elf/lib\libc.a(lib_a-fflush.o)
                0x00000000080452b4                _fflush_r
 .text.fflush   0x0000000008045310       0x30 c:/programmes/fpga/nios2eds/bin/gnu/h-x86_64-mingw32/bin/../lib/gcc/nios2-elf/5.3.0/../../../../../H-x86_64-mingw32/nios2-elf/lib\libc.a(lib_a-fflush.o)
                0x0000000008045310                fflush
 .text          0x0000000008045340        0x0 c:/programmes/fpga/nios2eds/bin/gnu/h-x86_64-mingw32/bin/../lib/gcc/nios2-elf/5.3.0/../../../../../H-x86_64-mingw32/nios2-elf/lib\libc.a(lib_a-findfp.o)
 .text.__fp_unlock
                0x0000000008045340        0x8 c:/programmes/fpga/nios2eds/bin/gnu/h-x86_64-mingw32/bin/../lib/gcc/nios2-elf/5.3.0/../../../../../H-x86_64-mingw32/nios2-elf/lib\libc.a(lib_a-findfp.o)
 .text._cleanup_r
                0x0000000008045348        0xc c:/programmes/fpga/nios2eds/bin/gnu/h-x86_64-mingw32/bin/../lib/gcc/nios2-elf/5.3.0/../../../../../H-x86_64-mingw32/nios2-elf/lib\libc.a(lib_a-findfp.o)
                0x0000000008045348                _cleanup_r
 .text.__sinit.part.1
                0x0000000008045354      0x19c c:/programmes/fpga/nios2eds/bin/gnu/h-x86_64-mingw32/bin/../lib/gcc/nios2-elf/5.3.0/../../../../../H-x86_64-mingw32/nios2-elf/lib\libc.a(lib_a-findfp.o)
 .text.__fp_lock
                0x00000000080454f0        0x8 c:/programmes/fpga/nios2eds/bin/gnu/h-x86_64-mingw32/bin/../lib/gcc/nios2-elf/5.3.0/../../../../../H-x86_64-mingw32/nios2-elf/lib\libc.a(lib_a-findfp.o)
 .text.__sfmoreglue
                0x00000000080454f8       0x68 c:/programmes/fpga/nios2eds/bin/gnu/h-x86_64-mingw32/bin/../lib/gcc/nios2-elf/5.3.0/../../../../../H-x86_64-mingw32/nios2-elf/lib\libc.a(lib_a-findfp.o)
                0x00000000080454f8                __sfmoreglue
 .text.__sfp    0x0000000008045560      0x118 c:/programmes/fpga/nios2eds/bin/gnu/h-x86_64-mingw32/bin/../lib/gcc/nios2-elf/5.3.0/../../../../../H-x86_64-mingw32/nios2-elf/lib\libc.a(lib_a-findfp.o)
                0x0000000008045560                __sfp
 .text._cleanup
                0x0000000008045678       0x18 c:/programmes/fpga/nios2eds/bin/gnu/h-x86_64-mingw32/bin/../lib/gcc/nios2-elf/5.3.0/../../../../../H-x86_64-mingw32/nios2-elf/lib\libc.a(lib_a-findfp.o)
                0x0000000008045678                _cleanup
 .text.__sinit  0x0000000008045690       0x10 c:/programmes/fpga/nios2eds/bin/gnu/h-x86_64-mingw32/bin/../lib/gcc/nios2-elf/5.3.0/../../../../../H-x86_64-mingw32/nios2-elf/lib\libc.a(lib_a-findfp.o)
                0x0000000008045690                __sinit
 .text.__sfp_lock_acquire
                0x00000000080456a0        0x4 c:/programmes/fpga/nios2eds/bin/gnu/h-x86_64-mingw32/bin/../lib/gcc/nios2-elf/5.3.0/../../../../../H-x86_64-mingw32/nios2-elf/lib\libc.a(lib_a-findfp.o)
                0x00000000080456a0                __sfp_lock_acquire
 .text.__sfp_lock_release
                0x00000000080456a4        0x4 c:/programmes/fpga/nios2eds/bin/gnu/h-x86_64-mingw32/bin/../lib/gcc/nios2-elf/5.3.0/../../../../../H-x86_64-mingw32/nios2-elf/lib\libc.a(lib_a-findfp.o)
                0x00000000080456a4                __sfp_lock_release
 .text.__sinit_lock_acquire
                0x00000000080456a8        0x4 c:/programmes/fpga/nios2eds/bin/gnu/h-x86_64-mingw32/bin/../lib/gcc/nios2-elf/5.3.0/../../../../../H-x86_64-mingw32/nios2-elf/lib\libc.a(lib_a-findfp.o)
                0x00000000080456a8                __sinit_lock_acquire
 .text.__sinit_lock_release
                0x00000000080456ac        0x4 c:/programmes/fpga/nios2eds/bin/gnu/h-x86_64-mingw32/bin/../lib/gcc/nios2-elf/5.3.0/../../../../../H-x86_64-mingw32/nios2-elf/lib\libc.a(lib_a-findfp.o)
                0x00000000080456ac                __sinit_lock_release
 .text.__fp_lock_all
                0x00000000080456b0       0x18 c:/programmes/fpga/nios2eds/bin/gnu/h-x86_64-mingw32/bin/../lib/gcc/nios2-elf/5.3.0/../../../../../H-x86_64-mingw32/nios2-elf/lib\libc.a(lib_a-findfp.o)
                0x00000000080456b0                __fp_lock_all
 .text.__fp_unlock_all
                0x00000000080456c8       0x18 c:/programmes/fpga/nios2eds/bin/gnu/h-x86_64-mingw32/bin/../lib/gcc/nios2-elf/5.3.0/../../../../../H-x86_64-mingw32/nios2-elf/lib\libc.a(lib_a-findfp.o)
                0x00000000080456c8                __fp_unlock_all
 .text          0x00000000080456e0        0x0 c:/programmes/fpga/nios2eds/bin/gnu/h-x86_64-mingw32/bin/../lib/gcc/nios2-elf/5.3.0/../../../../../H-x86_64-mingw32/nios2-elf/lib\libc.a(lib_a-freer.o)
 .text._malloc_trim_r
                0x00000000080456e0      0x124 c:/programmes/fpga/nios2eds/bin/gnu/h-x86_64-mingw32/bin/../lib/gcc/nios2-elf/5.3.0/../../../../../H-x86_64-mingw32/nios2-elf/lib\libc.a(lib_a-freer.o)
                0x00000000080456e0                _malloc_trim_r
 .text._free_r  0x0000000008045804      0x310 c:/programmes/fpga/nios2eds/bin/gnu/h-x86_64-mingw32/bin/../lib/gcc/nios2-elf/5.3.0/../../../../../H-x86_64-mingw32/nios2-elf/lib\libc.a(lib_a-freer.o)
                0x0000000008045804                _free_r
 .text          0x0000000008045b14        0x0 c:/programmes/fpga/nios2eds/bin/gnu/h-x86_64-mingw32/bin/../lib/gcc/nios2-elf/5.3.0/../../../../../H-x86_64-mingw32/nios2-elf/lib\libc.a(lib_a-fwalk.o)
 .text._fwalk   0x0000000008045b14       0xc4 c:/programmes/fpga/nios2eds/bin/gnu/h-x86_64-mingw32/bin/../lib/gcc/nios2-elf/5.3.0/../../../../../H-x86_64-mingw32/nios2-elf/lib\libc.a(lib_a-fwalk.o)
                0x0000000008045b14                _fwalk
 .text._fwalk_reent
                0x0000000008045bd8       0xc4 c:/programmes/fpga/nios2eds/bin/gnu/h-x86_64-mingw32/bin/../lib/gcc/nios2-elf/5.3.0/../../../../../H-x86_64-mingw32/nios2-elf/lib\libc.a(lib_a-fwalk.o)
                0x0000000008045bd8                _fwalk_reent
 .text          0x0000000008045c9c        0x0 c:/programmes/fpga/nios2eds/bin/gnu/h-x86_64-mingw32/bin/../lib/gcc/nios2-elf/5.3.0/../../../../../H-x86_64-mingw32/nios2-elf/lib\libc.a(lib_a-makebuf.o)
 .text.__smakebuf_r
                0x0000000008045c9c      0x1bc c:/programmes/fpga/nios2eds/bin/gnu/h-x86_64-mingw32/bin/../lib/gcc/nios2-elf/5.3.0/../../../../../H-x86_64-mingw32/nios2-elf/lib\libc.a(lib_a-makebuf.o)
                0x0000000008045c9c                __smakebuf_r
 .text          0x0000000008045e58        0x0 c:/programmes/fpga/nios2eds/bin/gnu/h-x86_64-mingw32/bin/../lib/gcc/nios2-elf/5.3.0/../../../../../H-x86_64-mingw32/nios2-elf/lib\libc.a(lib_a-mallocr.o)
 .text._malloc_r
                0x0000000008045e58      0x80c c:/programmes/fpga/nios2eds/bin/gnu/h-x86_64-mingw32/bin/../lib/gcc/nios2-elf/5.3.0/../../../../../H-x86_64-mingw32/nios2-elf/lib\libc.a(lib_a-mallocr.o)
                0x0000000008045e58                _malloc_r
 .text          0x0000000008046664        0x0 c:/programmes/fpga/nios2eds/bin/gnu/h-x86_64-mingw32/bin/../lib/gcc/nios2-elf/5.3.0/../../../../../H-x86_64-mingw32/nios2-elf/lib\libc.a(lib_a-memset.o)
 .text.memset   0x0000000008046664      0x128 c:/programmes/fpga/nios2eds/bin/gnu/h-x86_64-mingw32/bin/../lib/gcc/nios2-elf/5.3.0/../../../../../H-x86_64-mingw32/nios2-elf/lib\libc.a(lib_a-memset.o)
                0x0000000008046664                memset
 .text          0x000000000804678c        0x0 c:/programmes/fpga/nios2eds/bin/gnu/h-x86_64-mingw32/bin/../lib/gcc/nios2-elf/5.3.0/../../../../../H-x86_64-mingw32/nios2-elf/lib\libc.a(lib_a-sbrkr.o)
 .text._sbrk_r  0x000000000804678c       0x54 c:/programmes/fpga/nios2eds/bin/gnu/h-x86_64-mingw32/bin/../lib/gcc/nios2-elf/5.3.0/../../../../../H-x86_64-mingw32/nios2-elf/lib\libc.a(lib_a-sbrkr.o)
                0x000000000804678c                _sbrk_r
 .text          0x00000000080467e0        0x0 c:/programmes/fpga/nios2eds/bin/gnu/h-x86_64-mingw32/bin/../lib/gcc/nios2-elf/5.3.0/../../../../../H-x86_64-mingw32/nios2-elf/lib\libc.a(lib_a-stdio.o)
 .text.__sread  0x00000000080467e0       0x54 c:/programmes/fpga/nios2eds/bin/gnu/h-x86_64-mingw32/bin/../lib/gcc/nios2-elf/5.3.0/../../../../../H-x86_64-mingw32/nios2-elf/lib\libc.a(lib_a-stdio.o)
                0x00000000080467e0                __sread
 .text.__seofread
                0x0000000008046834        0x8 c:/programmes/fpga/nios2eds/bin/gnu/h-x86_64-mingw32/bin/../lib/gcc/nios2-elf/5.3.0/../../../../../H-x86_64-mingw32/nios2-elf/lib\libc.a(lib_a-stdio.o)
                0x0000000008046834                __seofread
 .text.__swrite
                0x000000000804683c       0x7c c:/programmes/fpga/nios2eds/bin/gnu/h-x86_64-mingw32/bin/../lib/gcc/nios2-elf/5.3.0/../../../../../H-x86_64-mingw32/nios2-elf/lib\libc.a(lib_a-stdio.o)
                0x000000000804683c                __swrite
 .text.__sseek  0x00000000080468b8       0x5c c:/programmes/fpga/nios2eds/bin/gnu/h-x86_64-mingw32/bin/../lib/gcc/nios2-elf/5.3.0/../../../../../H-x86_64-mingw32/nios2-elf/lib\libc.a(lib_a-stdio.o)
                0x00000000080468b8                __sseek
 .text.__sclose
                0x0000000008046914        0x8 c:/programmes/fpga/nios2eds/bin/gnu/h-x86_64-mingw32/bin/../lib/gcc/nios2-elf/5.3.0/../../../../../H-x86_64-mingw32/nios2-elf/lib\libc.a(lib_a-stdio.o)
                0x0000000008046914                __sclose
 .text          0x000000000804691c        0x0 c:/programmes/fpga/nios2eds/bin/gnu/h-x86_64-mingw32/bin/../lib/gcc/nios2-elf/5.3.0/../../../../../H-x86_64-mingw32/nios2-elf/lib\libc.a(lib_a-writer.o)
 .text._write_r
                0x000000000804691c       0x60 c:/programmes/fpga/nios2eds/bin/gnu/h-x86_64-mingw32/bin/../lib/gcc/nios2-elf/5.3.0/../../../../../H-x86_64-mingw32/nios2-elf/lib\libc.a(lib_a-writer.o)
                0x000000000804691c                _write_r
 .text          0x000000000804697c        0x0 c:/programmes/fpga/nios2eds/bin/gnu/h-x86_64-mingw32/bin/../lib/gcc/nios2-elf/5.3.0/../../../../../H-x86_64-mingw32/nios2-elf/lib\libc.a(closer.o)
 .text._close_r
                0x000000000804697c       0x54 c:/programmes/fpga/nios2eds/bin/gnu/h-x86_64-mingw32/bin/../lib/gcc/nios2-elf/5.3.0/../../../../../H-x86_64-mingw32/nios2-elf/lib\libc.a(closer.o)
                0x000000000804697c                _close_r
 .text          0x00000000080469d0        0x0 c:/programmes/fpga/nios2eds/bin/gnu/h-x86_64-mingw32/bin/../lib/gcc/nios2-elf/5.3.0/../../../../../H-x86_64-mingw32/nios2-elf/lib\libc.a(lib_a-fclose.o)
 .text._fclose_r
                0x00000000080469d0       0xf0 c:/programmes/fpga/nios2eds/bin/gnu/h-x86_64-mingw32/bin/../lib/gcc/nios2-elf/5.3.0/../../../../../H-x86_64-mingw32/nios2-elf/lib\libc.a(lib_a-fclose.o)
                0x00000000080469d0                _fclose_r
 .text.fclose   0x0000000008046ac0       0x14 c:/programmes/fpga/nios2eds/bin/gnu/h-x86_64-mingw32/bin/../lib/gcc/nios2-elf/5.3.0/../../../../../H-x86_64-mingw32/nios2-elf/lib\libc.a(lib_a-fclose.o)
                0x0000000008046ac0                fclose
 .text          0x0000000008046ad4        0x0 c:/programmes/fpga/nios2eds/bin/gnu/h-x86_64-mingw32/bin/../lib/gcc/nios2-elf/5.3.0/../../../../../H-x86_64-mingw32/nios2-elf/lib\libc.a(lib_a-fstatr.o)
 .text._fstat_r
                0x0000000008046ad4       0x5c c:/programmes/fpga/nios2eds/bin/gnu/h-x86_64-mingw32/bin/../lib/gcc/nios2-elf/5.3.0/../../../../../H-x86_64-mingw32/nios2-elf/lib\libc.a(lib_a-fstatr.o)
                0x0000000008046ad4                _fstat_r
 .text          0x0000000008046b30        0x0 c:/programmes/fpga/nios2eds/bin/gnu/h-x86_64-mingw32/bin/../lib/gcc/nios2-elf/5.3.0/../../../../../H-x86_64-mingw32/nios2-elf/lib\libc.a(lib_a-isattyr.o)
 .text._isatty_r
                0x0000000008046b30       0x54 c:/programmes/fpga/nios2eds/bin/gnu/h-x86_64-mingw32/bin/../lib/gcc/nios2-elf/5.3.0/../../../../../H-x86_64-mingw32/nios2-elf/lib\libc.a(lib_a-isattyr.o)
                0x0000000008046b30                _isatty_r
 .text          0x0000000008046b84        0x0 c:/programmes/fpga/nios2eds/bin/gnu/h-x86_64-mingw32/bin/../lib/gcc/nios2-elf/5.3.0/../../../../../H-x86_64-mingw32/nios2-elf/lib\libc.a(lib_a-lseekr.o)
 .text._lseek_r
                0x0000000008046b84       0x60 c:/programmes/fpga/nios2eds/bin/gnu/h-x86_64-mingw32/bin/../lib/gcc/nios2-elf/5.3.0/../../../../../H-x86_64-mingw32/nios2-elf/lib\libc.a(lib_a-lseekr.o)
                0x0000000008046b84                _lseek_r
 .text          0x0000000008046be4        0x0 c:/programmes/fpga/nios2eds/bin/gnu/h-x86_64-mingw32/bin/../lib/gcc/nios2-elf/5.3.0/../../../../../H-x86_64-mingw32/nios2-elf/lib\libc.a(lib_a-readr.o)
 .text._read_r  0x0000000008046be4       0x60 c:/programmes/fpga/nios2eds/bin/gnu/h-x86_64-mingw32/bin/../lib/gcc/nios2-elf/5.3.0/../../../../../H-x86_64-mingw32/nios2-elf/lib\libc.a(lib_a-readr.o)
                0x0000000008046be4                _read_r
 .text          0x0000000008046c44       0x34 C:/Users/smail/Desktop/College/MA2/Real_Time_Embedded_Systems/final_projectCCC/sw/nios/project_bsp/\libhal_bsp.a(alt_exit.o)
                0x0000000008046c44                _exit
 .text          0x0000000008046c78       0xec C:/Users/smail/Desktop/College/MA2/Real_Time_Embedded_Systems/final_projectCCC/sw/nios/project_bsp/\libhal_bsp.a(alt_fstat.o)
                0x0000000008046cb4                fstat
 .text          0x0000000008046d64       0xe0 C:/Users/smail/Desktop/College/MA2/Real_Time_Embedded_Systems/final_projectCCC/sw/nios/project_bsp/\libhal_bsp.a(alt_isatty.o)
                0x0000000008046da0                isatty
 .text          0x0000000008046e44      0x110 C:/Users/smail/Desktop/College/MA2/Real_Time_Embedded_Systems/final_projectCCC/sw/nios/project_bsp/\libhal_bsp.a(alt_lseek.o)
                0x0000000008046e80                lseek
 .text          0x0000000008046f54       0x48 C:/Users/smail/Desktop/College/MA2/Real_Time_Embedded_Systems/final_projectCCC/sw/nios/project_bsp/\libhal_bsp.a(alt_malloc_lock.o)
                0x0000000008046f54                __malloc_lock
                0x0000000008046f78                __malloc_unlock
 .text          0x0000000008046f9c      0x138 C:/Users/smail/Desktop/College/MA2/Real_Time_Embedded_Systems/final_projectCCC/sw/nios/project_bsp/\libhal_bsp.a(alt_read.o)
                0x0000000008046fd8                read
 .text          0x00000000080470d4       0xb0 C:/Users/smail/Desktop/College/MA2/Real_Time_Embedded_Systems/final_projectCCC/sw/nios/project_bsp/\libhal_bsp.a(alt_sbrk.o)
                0x00000000080470d4                sbrk
 .text          0x0000000008047184      0x134 C:/Users/smail/Desktop/College/MA2/Real_Time_Embedded_Systems/final_projectCCC/sw/nios/project_bsp/\libhal_bsp.a(alt_write.o)
                0x00000000080471c0                write
 *(.gnu.warning.*)
 *(.fini)
                [!provide]                        PROVIDE (__etext, ABSOLUTE (.))
                [!provide]                        PROVIDE (_etext, ABSOLUTE (.))
                [!provide]                        PROVIDE (etext, ABSOLUTE (.))
 *(.eh_frame_hdr)
                0x00000000080472b8                . = ALIGN (0x4)
                [!provide]                        PROVIDE (__preinit_array_start, ABSOLUTE (.))
 *(.preinit_array)
                [!provide]                        PROVIDE (__preinit_array_end, ABSOLUTE (.))
                [!provide]                        PROVIDE (__init_array_start, ABSOLUTE (.))
 *(.init_array)
                [!provide]                        PROVIDE (__init_array_end, ABSOLUTE (.))
                [!provide]                        PROVIDE (__fini_array_start, ABSOLUTE (.))
 *(.fini_array)
                [!provide]                        PROVIDE (__fini_array_end, ABSOLUTE (.))
 *(.eh_frame)
 *(.gcc_except_table .gcc_except_table.*)
 *(.dynamic)
                0x00000000080472b8                PROVIDE (__CTOR_LIST__, ABSOLUTE (.))
 *(.ctors)
 *(SORT(.ctors.*))
                0x00000000080472b8                PROVIDE (__CTOR_END__, ABSOLUTE (.))
                0x00000000080472b8                PROVIDE (__DTOR_LIST__, ABSOLUTE (.))
 *(.dtors)
 *(SORT(.dtors.*))
                0x00000000080472b8                PROVIDE (__DTOR_END__, ABSOLUTE (.))
 *(.jcr)
                0x00000000080472b8                . = ALIGN (0x4)

.rodata         0x00000000080472b8      0x20c
                0x00000000080472b8                PROVIDE (__ram_rodata_start, ABSOLUTE (.))
                0x00000000080472b8                . = ALIGN (0x4)
 *(.rodata .rodata.* .gnu.linkonce.r.*)
 .rodata        0x00000000080472b8       0x97 obj/default/hello_world.o
 .rodata        0x000000000804734f      0x100 c:/programmes/fpga/nios2eds/bin/gnu/h-x86_64-mingw32/bin/../lib/gcc/nios2-elf/5.3.0\libgcc.a(_clz.o)
                0x000000000804734f                __clz_tab
 *fill*         0x000000000804744f        0x1 
 .rodata.str1.4
                0x0000000008047450        0x4 c:/programmes/fpga/nios2eds/bin/gnu/h-x86_64-mingw32/bin/../lib/gcc/nios2-elf/5.3.0/../../../../../H-x86_64-mingw32/nios2-elf/lib\libc.a(lib_a-impure.o)
                                          0x2 (size before relaxing)
 .rodata        0x0000000008047454       0x11 C:/Users/smail/Desktop/College/MA2/Real_Time_Embedded_Systems/final_projectCCC/sw/nios/project_bsp/\libhal_bsp.a(alt_main.o)
 *fill*         0x0000000008047465        0x3 
 .rodata        0x0000000008047468       0x4d C:/Users/smail/Desktop/College/MA2/Real_Time_Embedded_Systems/final_projectCCC/sw/nios/project_bsp/\libhal_bsp.a(alt_sys_init.o)
 *fill*         0x00000000080474b5        0x3 
 .rodata        0x00000000080474b8        0xa C:/Users/smail/Desktop/College/MA2/Real_Time_Embedded_Systems/final_projectCCC/sw/nios/project_bsp/\libhal_bsp.a(alt_dev.o)
 *(.rodata1)
                0x00000000080474c4                . = ALIGN (0x4)
 *fill*         0x00000000080474c2        0x2 
                0x00000000080474c4                PROVIDE (__ram_rodata_end, ABSOLUTE (.))
                0x00000000080472b8                PROVIDE (__flash_rodata_start, LOADADDR (.rodata))

.rwdata         0x00000000080474c4     0x1b18 load address 0x0000000008048fdc
                0x00000000080474c4                PROVIDE (__ram_rwdata_start, ABSOLUTE (.))
                0x00000000080474c4                . = ALIGN (0x4)
 *(.got.plt)
 *(.got)
 *(.data1)
 *(.data .data.* .gnu.linkonce.d.*)
 .data          0x00000000080474c4        0x0 C:/Users/smail/Desktop/College/MA2/Real_Time_Embedded_Systems/final_projectCCC/sw/nios/project_bsp//obj/HAL/src/crt0.o
 .data          0x00000000080474c4        0x0 obj/default/hello_world.o
 .data          0x00000000080474c4        0x0 c:/programmes/fpga/nios2eds/bin/gnu/h-x86_64-mingw32/bin/../lib/gcc/nios2-elf/5.3.0\libgcc.a(lib2-divmod.o)
 .data          0x00000000080474c4        0x0 c:/programmes/fpga/nios2eds/bin/gnu/h-x86_64-mingw32/bin/../lib/gcc/nios2-elf/5.3.0\libgcc.a(addsf3.o)
 .data          0x00000000080474c4        0x0 c:/programmes/fpga/nios2eds/bin/gnu/h-x86_64-mingw32/bin/../lib/gcc/nios2-elf/5.3.0\libgcc.a(lesf2.o)
 .data          0x00000000080474c4        0x0 c:/programmes/fpga/nios2eds/bin/gnu/h-x86_64-mingw32/bin/../lib/gcc/nios2-elf/5.3.0\libgcc.a(floatunsisf.o)
 .data          0x00000000080474c4        0x0 c:/programmes/fpga/nios2eds/bin/gnu/h-x86_64-mingw32/bin/../lib/gcc/nios2-elf/5.3.0\libgcc.a(_clzsi2.o)
 .data          0x00000000080474c4        0x0 c:/programmes/fpga/nios2eds/bin/gnu/h-x86_64-mingw32/bin/../lib/gcc/nios2-elf/5.3.0\libgcc.a(_clz.o)
 .data          0x00000000080474c4        0x0 c:/programmes/fpga/nios2eds/bin/gnu/h-x86_64-mingw32/bin/../lib/gcc/nios2-elf/5.3.0/../../../../../H-x86_64-mingw32/nios2-elf/lib\libc.a(lib_a-clock.o)
 .data          0x00000000080474c4        0x0 c:/programmes/fpga/nios2eds/bin/gnu/h-x86_64-mingw32/bin/../lib/gcc/nios2-elf/5.3.0/../../../../../H-x86_64-mingw32/nios2-elf/lib\libc.a(lib_a-impure.o)
 .data.impure_data
                0x00000000080474c4      0x424 c:/programmes/fpga/nios2eds/bin/gnu/h-x86_64-mingw32/bin/../lib/gcc/nios2-elf/5.3.0/../../../../../H-x86_64-mingw32/nios2-elf/lib\libc.a(lib_a-impure.o)
 .data          0x00000000080478e8        0x0 c:/programmes/fpga/nios2eds/bin/gnu/h-x86_64-mingw32/bin/../lib/gcc/nios2-elf/5.3.0/../../../../../H-x86_64-mingw32/nios2-elf/lib\libc.a(lib_a-timesr.o)
 .data          0x00000000080478e8        0x0 C:/Users/smail/Desktop/College/MA2/Real_Time_Embedded_Systems/final_projectCCC/sw/nios/project_bsp/\libhal_bsp.a(alt_iic.o)
 .data          0x00000000080478e8        0x0 C:/Users/smail/Desktop/College/MA2/Real_Time_Embedded_Systems/final_projectCCC/sw/nios/project_bsp/\libhal_bsp.a(alt_iic_isr_register.o)
 .data          0x00000000080478e8        0x0 C:/Users/smail/Desktop/College/MA2/Real_Time_Embedded_Systems/final_projectCCC/sw/nios/project_bsp/\libhal_bsp.a(alt_irq_entry.o)
 .data          0x00000000080478e8        0x0 C:/Users/smail/Desktop/College/MA2/Real_Time_Embedded_Systems/final_projectCCC/sw/nios/project_bsp/\libhal_bsp.a(alt_irq_handler.o)
 .data          0x00000000080478e8        0x0 C:/Users/smail/Desktop/College/MA2/Real_Time_Embedded_Systems/final_projectCCC/sw/nios/project_bsp/\libhal_bsp.a(alt_irq_vars.o)
 .data          0x00000000080478e8        0x0 C:/Users/smail/Desktop/College/MA2/Real_Time_Embedded_Systems/final_projectCCC/sw/nios/project_bsp/\libhal_bsp.a(alt_load.o)
 .data          0x00000000080478e8        0x0 C:/Users/smail/Desktop/College/MA2/Real_Time_Embedded_Systems/final_projectCCC/sw/nios/project_bsp/\libhal_bsp.a(alt_main.o)
 .data          0x00000000080478e8        0x0 C:/Users/smail/Desktop/College/MA2/Real_Time_Embedded_Systems/final_projectCCC/sw/nios/project_bsp/\libhal_bsp.a(alt_printf.o)
 .data          0x00000000080478e8        0x0 C:/Users/smail/Desktop/College/MA2/Real_Time_Embedded_Systems/final_projectCCC/sw/nios/project_bsp/\libhal_bsp.a(alt_putchar.o)
 .data          0x00000000080478e8        0x0 C:/Users/smail/Desktop/College/MA2/Real_Time_Embedded_Systems/final_projectCCC/sw/nios/project_bsp/\libhal_bsp.a(alt_times.o)
 .data          0x00000000080478e8     0x10ec C:/Users/smail/Desktop/College/MA2/Real_Time_Embedded_Systems/final_projectCCC/sw/nios/project_bsp/\libhal_bsp.a(alt_sys_init.o)
 .data          0x00000000080489d4        0x0 C:/Users/smail/Desktop/College/MA2/Real_Time_Embedded_Systems/final_projectCCC/sw/nios/project_bsp/\libhal_bsp.a(altera_avalon_jtag_uart_fd.o)
 .data          0x00000000080489d4        0x0 C:/Users/smail/Desktop/College/MA2/Real_Time_Embedded_Systems/final_projectCCC/sw/nios/project_bsp/\libhal_bsp.a(altera_avalon_jtag_uart_init.o)
 .data          0x00000000080489d4        0x0 C:/Users/smail/Desktop/College/MA2/Real_Time_Embedded_Systems/final_projectCCC/sw/nios/project_bsp/\libhal_bsp.a(altera_avalon_jtag_uart_ioctl.o)
 .data          0x00000000080489d4        0x0 C:/Users/smail/Desktop/College/MA2/Real_Time_Embedded_Systems/final_projectCCC/sw/nios/project_bsp/\libhal_bsp.a(altera_avalon_jtag_uart_read.o)
 .data          0x00000000080489d4        0x0 C:/Users/smail/Desktop/College/MA2/Real_Time_Embedded_Systems/final_projectCCC/sw/nios/project_bsp/\libhal_bsp.a(altera_avalon_jtag_uart_write.o)
 .data          0x00000000080489d4        0x0 C:/Users/smail/Desktop/College/MA2/Real_Time_Embedded_Systems/final_projectCCC/sw/nios/project_bsp/\libhal_bsp.a(altera_avalon_timer_sc.o)
 .data          0x00000000080489d4        0x0 C:/Users/smail/Desktop/College/MA2/Real_Time_Embedded_Systems/final_projectCCC/sw/nios/project_bsp/\libhal_bsp.a(altera_up_avalon_audio.o)
 .data          0x00000000080489d4        0x0 C:/Users/smail/Desktop/College/MA2/Real_Time_Embedded_Systems/final_projectCCC/sw/nios/project_bsp/\libhal_bsp.a(altera_up_avalon_audio_and_video_config.o)
 .data          0x00000000080489d4        0x0 C:/Users/smail/Desktop/College/MA2/Real_Time_Embedded_Systems/final_projectCCC/sw/nios/project_bsp/\libhal_bsp.a(alt_alarm_start.o)
 .data          0x00000000080489d4        0x0 C:/Users/smail/Desktop/College/MA2/Real_Time_Embedded_Systems/final_projectCCC/sw/nios/project_bsp/\libhal_bsp.a(alt_close.o)
 .data          0x00000000080489d4        0x0 C:/Users/smail/Desktop/College/MA2/Real_Time_Embedded_Systems/final_projectCCC/sw/nios/project_bsp/\libhal_bsp.a(alt_dcache_flush_all.o)
 .data          0x00000000080489d4      0x1a8 C:/Users/smail/Desktop/College/MA2/Real_Time_Embedded_Systems/final_projectCCC/sw/nios/project_bsp/\libhal_bsp.a(alt_dev.o)
                0x00000000080489d4                alt_dev_null
                0x00000000080489fc                alt_fd_list
 .data          0x0000000008048b7c        0x0 C:/Users/smail/Desktop/College/MA2/Real_Time_Embedded_Systems/final_projectCCC/sw/nios/project_bsp/\libhal_bsp.a(alt_dev_llist_insert.o)
 .data          0x0000000008048b7c        0x0 C:/Users/smail/Desktop/College/MA2/Real_Time_Embedded_Systems/final_projectCCC/sw/nios/project_bsp/\libhal_bsp.a(alt_do_ctors.o)
 .data          0x0000000008048b7c        0x0 C:/Users/smail/Desktop/College/MA2/Real_Time_Embedded_Systems/final_projectCCC/sw/nios/project_bsp/\libhal_bsp.a(alt_do_dtors.o)
 .data          0x0000000008048b7c        0x0 C:/Users/smail/Desktop/College/MA2/Real_Time_Embedded_Systems/final_projectCCC/sw/nios/project_bsp/\libhal_bsp.a(alt_errno.o)
 .data          0x0000000008048b7c        0x0 C:/Users/smail/Desktop/College/MA2/Real_Time_Embedded_Systems/final_projectCCC/sw/nios/project_bsp/\libhal_bsp.a(alt_exception_entry.o)
 .data          0x0000000008048b7c        0x0 C:/Users/smail/Desktop/College/MA2/Real_Time_Embedded_Systems/final_projectCCC/sw/nios/project_bsp/\libhal_bsp.a(alt_find_dev.o)
 .data          0x0000000008048b7c        0x0 C:/Users/smail/Desktop/College/MA2/Real_Time_Embedded_Systems/final_projectCCC/sw/nios/project_bsp/\libhal_bsp.a(alt_icache_flush_all.o)
 .data          0x0000000008048b7c        0x0 C:/Users/smail/Desktop/College/MA2/Real_Time_Embedded_Systems/final_projectCCC/sw/nios/project_bsp/\libhal_bsp.a(alt_instruction_exception_entry.o)
 .data          0x0000000008048b7c        0x0 C:/Users/smail/Desktop/College/MA2/Real_Time_Embedded_Systems/final_projectCCC/sw/nios/project_bsp/\libhal_bsp.a(alt_io_redirect.o)
 .data          0x0000000008048b7c        0x0 C:/Users/smail/Desktop/College/MA2/Real_Time_Embedded_Systems/final_projectCCC/sw/nios/project_bsp/\libhal_bsp.a(alt_open.o)
 .data          0x0000000008048b7c        0x0 C:/Users/smail/Desktop/College/MA2/Real_Time_Embedded_Systems/final_projectCCC/sw/nios/project_bsp/\libhal_bsp.a(alt_release_fd.o)
 .data          0x0000000008048b7c        0x0 C:/Users/smail/Desktop/College/MA2/Real_Time_Embedded_Systems/final_projectCCC/sw/nios/project_bsp/\libhal_bsp.a(alt_tick.o)
 .data          0x0000000008048b7c        0x0 C:/Users/smail/Desktop/College/MA2/Real_Time_Embedded_Systems/final_projectCCC/sw/nios/project_bsp/\libhal_bsp.a(altera_nios2_gen2_irq.o)
 .data          0x0000000008048b7c        0x0 C:/Users/smail/Desktop/College/MA2/Real_Time_Embedded_Systems/final_projectCCC/sw/nios/project_bsp/\libhal_bsp.a(alt_find_file.o)
 .data          0x0000000008048b7c        0x0 C:/Users/smail/Desktop/College/MA2/Real_Time_Embedded_Systems/final_projectCCC/sw/nios/project_bsp/\libhal_bsp.a(alt_get_fd.o)
 .data          0x0000000008048b7c        0x0 C:/Users/smail/Desktop/College/MA2/Real_Time_Embedded_Systems/final_projectCCC/sw/nios/project_bsp/\libhal_bsp.a(alt_icache_flush.o)
 .data          0x0000000008048b7c        0x0 c:/programmes/fpga/nios2eds/bin/gnu/h-x86_64-mingw32/bin/../lib/gcc/nios2-elf/5.3.0/../../../../../H-x86_64-mingw32/nios2-elf/lib\libc.a(lib_a-atexit.o)
 .data          0x0000000008048b7c        0x0 c:/programmes/fpga/nios2eds/bin/gnu/h-x86_64-mingw32/bin/../lib/gcc/nios2-elf/5.3.0/../../../../../H-x86_64-mingw32/nios2-elf/lib\libc.a(lib_a-exit.o)
 .data          0x0000000008048b7c        0x0 c:/programmes/fpga/nios2eds/bin/gnu/h-x86_64-mingw32/bin/../lib/gcc/nios2-elf/5.3.0/../../../../../H-x86_64-mingw32/nios2-elf/lib\libc.a(lib_a-int_errno.o)
 .data          0x0000000008048b7c        0x0 c:/programmes/fpga/nios2eds/bin/gnu/h-x86_64-mingw32/bin/../lib/gcc/nios2-elf/5.3.0/../../../../../H-x86_64-mingw32/nios2-elf/lib\libc.a(lib_a-memcmp.o)
 .data          0x0000000008048b7c        0x0 c:/programmes/fpga/nios2eds/bin/gnu/h-x86_64-mingw32/bin/../lib/gcc/nios2-elf/5.3.0/../../../../../H-x86_64-mingw32/nios2-elf/lib\libc.a(lib_a-memcpy.o)
 .data          0x0000000008048b7c        0x0 c:/programmes/fpga/nios2eds/bin/gnu/h-x86_64-mingw32/bin/../lib/gcc/nios2-elf/5.3.0/../../../../../H-x86_64-mingw32/nios2-elf/lib\libc.a(lib_a-putc.o)
 .data          0x0000000008048b7c        0x0 c:/programmes/fpga/nios2eds/bin/gnu/h-x86_64-mingw32/bin/../lib/gcc/nios2-elf/5.3.0/../../../../../H-x86_64-mingw32/nios2-elf/lib\libc.a(lib_a-strlen.o)
 .data          0x0000000008048b7c        0x0 c:/programmes/fpga/nios2eds/bin/gnu/h-x86_64-mingw32/bin/../lib/gcc/nios2-elf/5.3.0/../../../../../H-x86_64-mingw32/nios2-elf/lib\libc.a(lib_a-wbuf.o)
 .data          0x0000000008048b7c        0x0 c:/programmes/fpga/nios2eds/bin/gnu/h-x86_64-mingw32/bin/../lib/gcc/nios2-elf/5.3.0/../../../../../H-x86_64-mingw32/nios2-elf/lib\libc.a(lib_a-wsetup.o)
 .data          0x0000000008048b7c        0x0 c:/programmes/fpga/nios2eds/bin/gnu/h-x86_64-mingw32/bin/../lib/gcc/nios2-elf/5.3.0/../../../../../H-x86_64-mingw32/nios2-elf/lib\libc.a(lib_a-__atexit.o)
 .data          0x0000000008048b7c        0x0 c:/programmes/fpga/nios2eds/bin/gnu/h-x86_64-mingw32/bin/../lib/gcc/nios2-elf/5.3.0/../../../../../H-x86_64-mingw32/nios2-elf/lib\libc.a(lib_a-__call_atexit.o)
 .data          0x0000000008048b7c        0x0 c:/programmes/fpga/nios2eds/bin/gnu/h-x86_64-mingw32/bin/../lib/gcc/nios2-elf/5.3.0/../../../../../H-x86_64-mingw32/nios2-elf/lib\libc.a(lib_a-fflush.o)
 .data          0x0000000008048b7c        0x0 c:/programmes/fpga/nios2eds/bin/gnu/h-x86_64-mingw32/bin/../lib/gcc/nios2-elf/5.3.0/../../../../../H-x86_64-mingw32/nios2-elf/lib\libc.a(lib_a-findfp.o)
 .data          0x0000000008048b7c        0x0 c:/programmes/fpga/nios2eds/bin/gnu/h-x86_64-mingw32/bin/../lib/gcc/nios2-elf/5.3.0/../../../../../H-x86_64-mingw32/nios2-elf/lib\libc.a(lib_a-freer.o)
 .data          0x0000000008048b7c        0x0 c:/programmes/fpga/nios2eds/bin/gnu/h-x86_64-mingw32/bin/../lib/gcc/nios2-elf/5.3.0/../../../../../H-x86_64-mingw32/nios2-elf/lib\libc.a(lib_a-fwalk.o)
 .data          0x0000000008048b7c        0x0 c:/programmes/fpga/nios2eds/bin/gnu/h-x86_64-mingw32/bin/../lib/gcc/nios2-elf/5.3.0/../../../../../H-x86_64-mingw32/nios2-elf/lib\libc.a(lib_a-makebuf.o)
 .data          0x0000000008048b7c        0x0 c:/programmes/fpga/nios2eds/bin/gnu/h-x86_64-mingw32/bin/../lib/gcc/nios2-elf/5.3.0/../../../../../H-x86_64-mingw32/nios2-elf/lib\libc.a(lib_a-mallocr.o)
 .data.__malloc_av_
                0x0000000008048b7c      0x408 c:/programmes/fpga/nios2eds/bin/gnu/h-x86_64-mingw32/bin/../lib/gcc/nios2-elf/5.3.0/../../../../../H-x86_64-mingw32/nios2-elf/lib\libc.a(lib_a-mallocr.o)
                0x0000000008048b7c                __malloc_av_
 .data          0x0000000008048f84        0x0 c:/programmes/fpga/nios2eds/bin/gnu/h-x86_64-mingw32/bin/../lib/gcc/nios2-elf/5.3.0/../../../../../H-x86_64-mingw32/nios2-elf/lib\libc.a(lib_a-memset.o)
 .data          0x0000000008048f84        0x0 c:/programmes/fpga/nios2eds/bin/gnu/h-x86_64-mingw32/bin/../lib/gcc/nios2-elf/5.3.0/../../../../../H-x86_64-mingw32/nios2-elf/lib\libc.a(lib_a-sbrkr.o)
 .data          0x0000000008048f84        0x0 c:/programmes/fpga/nios2eds/bin/gnu/h-x86_64-mingw32/bin/../lib/gcc/nios2-elf/5.3.0/../../../../../H-x86_64-mingw32/nios2-elf/lib\libc.a(lib_a-stdio.o)
 .data          0x0000000008048f84        0x0 c:/programmes/fpga/nios2eds/bin/gnu/h-x86_64-mingw32/bin/../lib/gcc/nios2-elf/5.3.0/../../../../../H-x86_64-mingw32/nios2-elf/lib\libc.a(lib_a-writer.o)
 .data          0x0000000008048f84        0x0 c:/programmes/fpga/nios2eds/bin/gnu/h-x86_64-mingw32/bin/../lib/gcc/nios2-elf/5.3.0/../../../../../H-x86_64-mingw32/nios2-elf/lib\libc.a(closer.o)
 .data          0x0000000008048f84        0x0 c:/programmes/fpga/nios2eds/bin/gnu/h-x86_64-mingw32/bin/../lib/gcc/nios2-elf/5.3.0/../../../../../H-x86_64-mingw32/nios2-elf/lib\libc.a(lib_a-fclose.o)
 .data          0x0000000008048f84        0x0 c:/programmes/fpga/nios2eds/bin/gnu/h-x86_64-mingw32/bin/../lib/gcc/nios2-elf/5.3.0/../../../../../H-x86_64-mingw32/nios2-elf/lib\libc.a(lib_a-fstatr.o)
 .data          0x0000000008048f84        0x0 c:/programmes/fpga/nios2eds/bin/gnu/h-x86_64-mingw32/bin/../lib/gcc/nios2-elf/5.3.0/../../../../../H-x86_64-mingw32/nios2-elf/lib\libc.a(lib_a-isattyr.o)
 .data          0x0000000008048f84        0x0 c:/programmes/fpga/nios2eds/bin/gnu/h-x86_64-mingw32/bin/../lib/gcc/nios2-elf/5.3.0/../../../../../H-x86_64-mingw32/nios2-elf/lib\libc.a(lib_a-lseekr.o)
 .data          0x0000000008048f84        0x0 c:/programmes/fpga/nios2eds/bin/gnu/h-x86_64-mingw32/bin/../lib/gcc/nios2-elf/5.3.0/../../../../../H-x86_64-mingw32/nios2-elf/lib\libc.a(lib_a-readr.o)
 .data          0x0000000008048f84        0x0 C:/Users/smail/Desktop/College/MA2/Real_Time_Embedded_Systems/final_projectCCC/sw/nios/project_bsp/\libhal_bsp.a(alt_exit.o)
 .data          0x0000000008048f84        0x0 C:/Users/smail/Desktop/College/MA2/Real_Time_Embedded_Systems/final_projectCCC/sw/nios/project_bsp/\libhal_bsp.a(alt_fstat.o)
 .data          0x0000000008048f84        0x0 C:/Users/smail/Desktop/College/MA2/Real_Time_Embedded_Systems/final_projectCCC/sw/nios/project_bsp/\libhal_bsp.a(alt_isatty.o)
 .data          0x0000000008048f84        0x0 C:/Users/smail/Desktop/College/MA2/Real_Time_Embedded_Systems/final_projectCCC/sw/nios/project_bsp/\libhal_bsp.a(alt_lseek.o)
 .data          0x0000000008048f84        0x0 C:/Users/smail/Desktop/College/MA2/Real_Time_Embedded_Systems/final_projectCCC/sw/nios/project_bsp/\libhal_bsp.a(alt_malloc_lock.o)
 .data          0x0000000008048f84        0x0 C:/Users/smail/Desktop/College/MA2/Real_Time_Embedded_Systems/final_projectCCC/sw/nios/project_bsp/\libhal_bsp.a(alt_read.o)
 .data          0x0000000008048f84        0x0 C:/Users/smail/Desktop/College/MA2/Real_Time_Embedded_Systems/final_projectCCC/sw/nios/project_bsp/\libhal_bsp.a(alt_sbrk.o)
 .data          0x0000000008048f84        0x0 C:/Users/smail/Desktop/College/MA2/Real_Time_Embedded_Systems/final_projectCCC/sw/nios/project_bsp/\libhal_bsp.a(alt_write.o)
                0x0000000008050f84                _gp = ABSOLUTE ((. + 0x8000))
                [!provide]                        PROVIDE (gp, _gp)
 *(.rwdata .rwdata.*)
 *(.sdata .sdata.* .gnu.linkonce.s.*)
 .sdata         0x0000000008048f84       0x20 obj/default/hello_world.o
                0x0000000008048f84                audio_buffer
                0x0000000008048f88                audio_buffer2
                0x0000000008048f8c                effect1_buffer
                0x0000000008048f90                effect2_buffer
                0x0000000008048f94                effect3_buffer
                0x0000000008048f98                effect4_buffer
                0x0000000008048f9c                captured_val
                0x0000000008048fa0                sw_val
 .sdata._global_impure_ptr
                0x0000000008048fa4        0x4 c:/programmes/fpga/nios2eds/bin/gnu/h-x86_64-mingw32/bin/../lib/gcc/nios2-elf/5.3.0/../../../../../H-x86_64-mingw32/nios2-elf/lib\libc.a(lib_a-impure.o)
                0x0000000008048fa4                _global_impure_ptr
 .sdata._impure_ptr
                0x0000000008048fa8        0x4 c:/programmes/fpga/nios2eds/bin/gnu/h-x86_64-mingw32/bin/../lib/gcc/nios2-elf/5.3.0/../../../../../H-x86_64-mingw32/nios2-elf/lib\libc.a(lib_a-impure.o)
                0x0000000008048fa8                _impure_ptr
 .sdata         0x0000000008048fac        0x4 C:/Users/smail/Desktop/College/MA2/Real_Time_Embedded_Systems/final_projectCCC/sw/nios/project_bsp/\libhal_bsp.a(alt_irq_vars.o)
                0x0000000008048fac                alt_priority_mask
 .sdata         0x0000000008048fb0       0x14 C:/Users/smail/Desktop/College/MA2/Real_Time_Embedded_Systems/final_projectCCC/sw/nios/project_bsp/\libhal_bsp.a(alt_dev.o)
                0x0000000008048fb0                alt_fs_list
                0x0000000008048fb8                alt_dev_list
                0x0000000008048fc0                alt_max_fd
 .sdata         0x0000000008048fc4        0x4 C:/Users/smail/Desktop/College/MA2/Real_Time_Embedded_Systems/final_projectCCC/sw/nios/project_bsp/\libhal_bsp.a(alt_errno.o)
                0x0000000008048fc4                alt_errno
 .sdata         0x0000000008048fc8        0x8 C:/Users/smail/Desktop/College/MA2/Real_Time_Embedded_Systems/final_projectCCC/sw/nios/project_bsp/\libhal_bsp.a(alt_tick.o)
                0x0000000008048fc8                alt_alarm_list
 .sdata.__malloc_sbrk_base
                0x0000000008048fd0        0x4 c:/programmes/fpga/nios2eds/bin/gnu/h-x86_64-mingw32/bin/../lib/gcc/nios2-elf/5.3.0/../../../../../H-x86_64-mingw32/nios2-elf/lib\libc.a(lib_a-mallocr.o)
                0x0000000008048fd0                __malloc_sbrk_base
 .sdata.__malloc_trim_threshold
                0x0000000008048fd4        0x4 c:/programmes/fpga/nios2eds/bin/gnu/h-x86_64-mingw32/bin/../lib/gcc/nios2-elf/5.3.0/../../../../../H-x86_64-mingw32/nios2-elf/lib\libc.a(lib_a-mallocr.o)
                0x0000000008048fd4                __malloc_trim_threshold
 .sdata         0x0000000008048fd8        0x4 C:/Users/smail/Desktop/College/MA2/Real_Time_Embedded_Systems/final_projectCCC/sw/nios/project_bsp/\libhal_bsp.a(alt_sbrk.o)
 *(.sdata2 .sdata2.* .gnu.linkonce.s2.*)
                0x0000000008048fdc                . = ALIGN (0x4)
                0x0000000008048fdc                _edata = ABSOLUTE (.)
                [!provide]                        PROVIDE (edata, ABSOLUTE (.))
                0x0000000008048fdc                PROVIDE (__ram_rwdata_end, ABSOLUTE (.))
                0x0000000008048fdc                PROVIDE (__flash_rwdata_start, LOADADDR (.rwdata))

.bss            0x000000000804aaf4      0x188
                0x000000000804aaf4                __bss_start = ABSOLUTE (.)
                [!provide]                        PROVIDE (__sbss_start, ABSOLUTE (.))
                [!provide]                        PROVIDE (___sbss_start, ABSOLUTE (.))
 *(.dynsbss)
 *(.sbss .sbss.* .gnu.linkonce.sb.*)
 .sbss          0x000000000804aaf4       0x2c obj/default/hello_world.o
                0x000000000804aaf4                buffer_avg
                0x000000000804aaf8                buffer2_avg
                0x000000000804aafc                effect1_avg
                0x000000000804ab00                effect2_avg
                0x000000000804ab04                effect3_avg
                0x000000000804ab08                effect4_avg
                0x000000000804ab0c                interrupted
                0x000000000804ab10                state
                0x000000000804ab14                beat_state
                0x000000000804ab18                current_index
                0x000000000804ab1c                current_index2
 .sbss          0x000000000804ab20        0x8 obj/default/hello_world.o
                0x000000000804ab20                audio_dev
                0x000000000804ab24                audio_conf
 .sbss          0x000000000804ab28        0x4 C:/Users/smail/Desktop/College/MA2/Real_Time_Embedded_Systems/final_projectCCC/sw/nios/project_bsp/\libhal_bsp.a(alt_irq_vars.o)
                0x000000000804ab28                alt_irq_active
 .sbss          0x000000000804ab2c        0xc C:/Users/smail/Desktop/College/MA2/Real_Time_Embedded_Systems/final_projectCCC/sw/nios/project_bsp/\libhal_bsp.a(alt_main.o)
                0x000000000804ab2c                alt_argc
                0x000000000804ab30                alt_argv
                0x000000000804ab34                alt_envp
 .sbss          0x000000000804ab38        0x4 C:/Users/smail/Desktop/College/MA2/Real_Time_Embedded_Systems/final_projectCCC/sw/nios/project_bsp/\libhal_bsp.a(alt_instruction_exception_entry.o)
                0x000000000804ab38                alt_instruction_exception_handler
 .sbss          0x000000000804ab3c        0x8 C:/Users/smail/Desktop/College/MA2/Real_Time_Embedded_Systems/final_projectCCC/sw/nios/project_bsp/\libhal_bsp.a(alt_tick.o)
                0x000000000804ab3c                _alt_tick_rate
                0x000000000804ab40                _alt_nticks
 .sbss          0x000000000804ab44        0x4 c:/programmes/fpga/nios2eds/bin/gnu/h-x86_64-mingw32/bin/../lib/gcc/nios2-elf/5.3.0/../../../../../H-x86_64-mingw32/nios2-elf/lib\libc.a(lib_a-int_errno.o)
                0x000000000804ab44                errno
 .sbss.__malloc_max_total_mem
                0x000000000804ab48        0x4 c:/programmes/fpga/nios2eds/bin/gnu/h-x86_64-mingw32/bin/../lib/gcc/nios2-elf/5.3.0/../../../../../H-x86_64-mingw32/nios2-elf/lib\libc.a(lib_a-mallocr.o)
                0x000000000804ab48                __malloc_max_total_mem
 .sbss.__malloc_max_sbrked_mem
                0x000000000804ab4c        0x4 c:/programmes/fpga/nios2eds/bin/gnu/h-x86_64-mingw32/bin/../lib/gcc/nios2-elf/5.3.0/../../../../../H-x86_64-mingw32/nios2-elf/lib\libc.a(lib_a-mallocr.o)
                0x000000000804ab4c                __malloc_max_sbrked_mem
 .sbss.__malloc_top_pad
                0x000000000804ab50        0x4 c:/programmes/fpga/nios2eds/bin/gnu/h-x86_64-mingw32/bin/../lib/gcc/nios2-elf/5.3.0/../../../../../H-x86_64-mingw32/nios2-elf/lib\libc.a(lib_a-mallocr.o)
                0x000000000804ab50                __malloc_top_pad
 *(.sbss2 .sbss2.* .gnu.linkonce.sb2.*)
 *(.scommon)
                [!provide]                        PROVIDE (__sbss_end, ABSOLUTE (.))
                [!provide]                        PROVIDE (___sbss_end, ABSOLUTE (.))
 *(.dynbss)
 *(.bss .bss.* .gnu.linkonce.b.*)
 .bss           0x000000000804ab54        0x0 C:/Users/smail/Desktop/College/MA2/Real_Time_Embedded_Systems/final_projectCCC/sw/nios/project_bsp//obj/HAL/src/crt0.o
 .bss           0x000000000804ab54        0x0 obj/default/hello_world.o
 .bss           0x000000000804ab54        0x0 c:/programmes/fpga/nios2eds/bin/gnu/h-x86_64-mingw32/bin/../lib/gcc/nios2-elf/5.3.0\libgcc.a(lib2-divmod.o)
 .bss           0x000000000804ab54        0x0 c:/programmes/fpga/nios2eds/bin/gnu/h-x86_64-mingw32/bin/../lib/gcc/nios2-elf/5.3.0\libgcc.a(addsf3.o)
 .bss           0x000000000804ab54        0x0 c:/programmes/fpga/nios2eds/bin/gnu/h-x86_64-mingw32/bin/../lib/gcc/nios2-elf/5.3.0\libgcc.a(lesf2.o)
 .bss           0x000000000804ab54        0x0 c:/programmes/fpga/nios2eds/bin/gnu/h-x86_64-mingw32/bin/../lib/gcc/nios2-elf/5.3.0\libgcc.a(floatunsisf.o)
 .bss           0x000000000804ab54        0x0 c:/programmes/fpga/nios2eds/bin/gnu/h-x86_64-mingw32/bin/../lib/gcc/nios2-elf/5.3.0\libgcc.a(_clzsi2.o)
 .bss           0x000000000804ab54        0x0 c:/programmes/fpga/nios2eds/bin/gnu/h-x86_64-mingw32/bin/../lib/gcc/nios2-elf/5.3.0\libgcc.a(_clz.o)
 .bss           0x000000000804ab54        0x0 c:/programmes/fpga/nios2eds/bin/gnu/h-x86_64-mingw32/bin/../lib/gcc/nios2-elf/5.3.0/../../../../../H-x86_64-mingw32/nios2-elf/lib\libc.a(lib_a-clock.o)
 .bss           0x000000000804ab54        0x0 c:/programmes/fpga/nios2eds/bin/gnu/h-x86_64-mingw32/bin/../lib/gcc/nios2-elf/5.3.0/../../../../../H-x86_64-mingw32/nios2-elf/lib\libc.a(lib_a-impure.o)
 .bss           0x000000000804ab54        0x0 c:/programmes/fpga/nios2eds/bin/gnu/h-x86_64-mingw32/bin/../lib/gcc/nios2-elf/5.3.0/../../../../../H-x86_64-mingw32/nios2-elf/lib\libc.a(lib_a-timesr.o)
 .bss           0x000000000804ab54        0x0 C:/Users/smail/Desktop/College/MA2/Real_Time_Embedded_Systems/final_projectCCC/sw/nios/project_bsp/\libhal_bsp.a(alt_iic.o)
 .bss           0x000000000804ab54        0x0 C:/Users/smail/Desktop/College/MA2/Real_Time_Embedded_Systems/final_projectCCC/sw/nios/project_bsp/\libhal_bsp.a(alt_iic_isr_register.o)
 .bss           0x000000000804ab54        0x0 C:/Users/smail/Desktop/College/MA2/Real_Time_Embedded_Systems/final_projectCCC/sw/nios/project_bsp/\libhal_bsp.a(alt_irq_entry.o)
 .bss           0x000000000804ab54        0x0 C:/Users/smail/Desktop/College/MA2/Real_Time_Embedded_Systems/final_projectCCC/sw/nios/project_bsp/\libhal_bsp.a(alt_irq_handler.o)
 .bss           0x000000000804ab54        0x0 C:/Users/smail/Desktop/College/MA2/Real_Time_Embedded_Systems/final_projectCCC/sw/nios/project_bsp/\libhal_bsp.a(alt_irq_vars.o)
 .bss           0x000000000804ab54        0x0 C:/Users/smail/Desktop/College/MA2/Real_Time_Embedded_Systems/final_projectCCC/sw/nios/project_bsp/\libhal_bsp.a(alt_load.o)
 .bss           0x000000000804ab54        0x0 C:/Users/smail/Desktop/College/MA2/Real_Time_Embedded_Systems/final_projectCCC/sw/nios/project_bsp/\libhal_bsp.a(alt_main.o)
 .bss           0x000000000804ab54        0x0 C:/Users/smail/Desktop/College/MA2/Real_Time_Embedded_Systems/final_projectCCC/sw/nios/project_bsp/\libhal_bsp.a(alt_printf.o)
 .bss           0x000000000804ab54        0x0 C:/Users/smail/Desktop/College/MA2/Real_Time_Embedded_Systems/final_projectCCC/sw/nios/project_bsp/\libhal_bsp.a(alt_putchar.o)
 .bss           0x000000000804ab54        0x0 C:/Users/smail/Desktop/College/MA2/Real_Time_Embedded_Systems/final_projectCCC/sw/nios/project_bsp/\libhal_bsp.a(alt_times.o)
 .bss           0x000000000804ab54        0x0 C:/Users/smail/Desktop/College/MA2/Real_Time_Embedded_Systems/final_projectCCC/sw/nios/project_bsp/\libhal_bsp.a(alt_sys_init.o)
 .bss           0x000000000804ab54        0x0 C:/Users/smail/Desktop/College/MA2/Real_Time_Embedded_Systems/final_projectCCC/sw/nios/project_bsp/\libhal_bsp.a(altera_avalon_jtag_uart_fd.o)
 .bss           0x000000000804ab54        0x0 C:/Users/smail/Desktop/College/MA2/Real_Time_Embedded_Systems/final_projectCCC/sw/nios/project_bsp/\libhal_bsp.a(altera_avalon_jtag_uart_init.o)
 .bss           0x000000000804ab54        0x0 C:/Users/smail/Desktop/College/MA2/Real_Time_Embedded_Systems/final_projectCCC/sw/nios/project_bsp/\libhal_bsp.a(altera_avalon_jtag_uart_ioctl.o)
 .bss           0x000000000804ab54        0x0 C:/Users/smail/Desktop/College/MA2/Real_Time_Embedded_Systems/final_projectCCC/sw/nios/project_bsp/\libhal_bsp.a(altera_avalon_jtag_uart_read.o)
 .bss           0x000000000804ab54        0x0 C:/Users/smail/Desktop/College/MA2/Real_Time_Embedded_Systems/final_projectCCC/sw/nios/project_bsp/\libhal_bsp.a(altera_avalon_jtag_uart_write.o)
 .bss           0x000000000804ab54        0x0 C:/Users/smail/Desktop/College/MA2/Real_Time_Embedded_Systems/final_projectCCC/sw/nios/project_bsp/\libhal_bsp.a(altera_avalon_timer_sc.o)
 .bss           0x000000000804ab54        0x0 C:/Users/smail/Desktop/College/MA2/Real_Time_Embedded_Systems/final_projectCCC/sw/nios/project_bsp/\libhal_bsp.a(altera_up_avalon_audio.o)
 .bss           0x000000000804ab54        0x0 C:/Users/smail/Desktop/College/MA2/Real_Time_Embedded_Systems/final_projectCCC/sw/nios/project_bsp/\libhal_bsp.a(altera_up_avalon_audio_and_video_config.o)
 .bss           0x000000000804ab54        0x0 C:/Users/smail/Desktop/College/MA2/Real_Time_Embedded_Systems/final_projectCCC/sw/nios/project_bsp/\libhal_bsp.a(alt_alarm_start.o)
 .bss           0x000000000804ab54        0x0 C:/Users/smail/Desktop/College/MA2/Real_Time_Embedded_Systems/final_projectCCC/sw/nios/project_bsp/\libhal_bsp.a(alt_close.o)
 .bss           0x000000000804ab54        0x0 C:/Users/smail/Desktop/College/MA2/Real_Time_Embedded_Systems/final_projectCCC/sw/nios/project_bsp/\libhal_bsp.a(alt_dcache_flush_all.o)
 .bss           0x000000000804ab54        0x0 C:/Users/smail/Desktop/College/MA2/Real_Time_Embedded_Systems/final_projectCCC/sw/nios/project_bsp/\libhal_bsp.a(alt_dev.o)
 .bss           0x000000000804ab54        0x0 C:/Users/smail/Desktop/College/MA2/Real_Time_Embedded_Systems/final_projectCCC/sw/nios/project_bsp/\libhal_bsp.a(alt_dev_llist_insert.o)
 .bss           0x000000000804ab54        0x0 C:/Users/smail/Desktop/College/MA2/Real_Time_Embedded_Systems/final_projectCCC/sw/nios/project_bsp/\libhal_bsp.a(alt_do_ctors.o)
 .bss           0x000000000804ab54        0x0 C:/Users/smail/Desktop/College/MA2/Real_Time_Embedded_Systems/final_projectCCC/sw/nios/project_bsp/\libhal_bsp.a(alt_do_dtors.o)
 .bss           0x000000000804ab54        0x0 C:/Users/smail/Desktop/College/MA2/Real_Time_Embedded_Systems/final_projectCCC/sw/nios/project_bsp/\libhal_bsp.a(alt_errno.o)
 .bss           0x000000000804ab54        0x0 C:/Users/smail/Desktop/College/MA2/Real_Time_Embedded_Systems/final_projectCCC/sw/nios/project_bsp/\libhal_bsp.a(alt_exception_entry.o)
 .bss           0x000000000804ab54        0x0 C:/Users/smail/Desktop/College/MA2/Real_Time_Embedded_Systems/final_projectCCC/sw/nios/project_bsp/\libhal_bsp.a(alt_find_dev.o)
 .bss           0x000000000804ab54        0x0 C:/Users/smail/Desktop/College/MA2/Real_Time_Embedded_Systems/final_projectCCC/sw/nios/project_bsp/\libhal_bsp.a(alt_icache_flush_all.o)
 .bss           0x000000000804ab54        0x0 C:/Users/smail/Desktop/College/MA2/Real_Time_Embedded_Systems/final_projectCCC/sw/nios/project_bsp/\libhal_bsp.a(alt_instruction_exception_entry.o)
 .bss           0x000000000804ab54        0x0 C:/Users/smail/Desktop/College/MA2/Real_Time_Embedded_Systems/final_projectCCC/sw/nios/project_bsp/\libhal_bsp.a(alt_io_redirect.o)
 .bss           0x000000000804ab54        0x0 C:/Users/smail/Desktop/College/MA2/Real_Time_Embedded_Systems/final_projectCCC/sw/nios/project_bsp/\libhal_bsp.a(alt_open.o)
 .bss           0x000000000804ab54        0x0 C:/Users/smail/Desktop/College/MA2/Real_Time_Embedded_Systems/final_projectCCC/sw/nios/project_bsp/\libhal_bsp.a(alt_release_fd.o)
 .bss           0x000000000804ab54        0x0 C:/Users/smail/Desktop/College/MA2/Real_Time_Embedded_Systems/final_projectCCC/sw/nios/project_bsp/\libhal_bsp.a(alt_tick.o)
 .bss           0x000000000804ab54        0x0 C:/Users/smail/Desktop/College/MA2/Real_Time_Embedded_Systems/final_projectCCC/sw/nios/project_bsp/\libhal_bsp.a(altera_nios2_gen2_irq.o)
 .bss           0x000000000804ab54        0x0 C:/Users/smail/Desktop/College/MA2/Real_Time_Embedded_Systems/final_projectCCC/sw/nios/project_bsp/\libhal_bsp.a(alt_find_file.o)
 .bss           0x000000000804ab54        0x0 C:/Users/smail/Desktop/College/MA2/Real_Time_Embedded_Systems/final_projectCCC/sw/nios/project_bsp/\libhal_bsp.a(alt_get_fd.o)
 .bss           0x000000000804ab54        0x0 C:/Users/smail/Desktop/College/MA2/Real_Time_Embedded_Systems/final_projectCCC/sw/nios/project_bsp/\libhal_bsp.a(alt_icache_flush.o)
 .bss           0x000000000804ab54        0x0 c:/programmes/fpga/nios2eds/bin/gnu/h-x86_64-mingw32/bin/../lib/gcc/nios2-elf/5.3.0/../../../../../H-x86_64-mingw32/nios2-elf/lib\libc.a(lib_a-atexit.o)
 .bss           0x000000000804ab54        0x0 c:/programmes/fpga/nios2eds/bin/gnu/h-x86_64-mingw32/bin/../lib/gcc/nios2-elf/5.3.0/../../../../../H-x86_64-mingw32/nios2-elf/lib\libc.a(lib_a-exit.o)
 .bss           0x000000000804ab54        0x0 c:/programmes/fpga/nios2eds/bin/gnu/h-x86_64-mingw32/bin/../lib/gcc/nios2-elf/5.3.0/../../../../../H-x86_64-mingw32/nios2-elf/lib\libc.a(lib_a-int_errno.o)
 .bss           0x000000000804ab54        0x0 c:/programmes/fpga/nios2eds/bin/gnu/h-x86_64-mingw32/bin/../lib/gcc/nios2-elf/5.3.0/../../../../../H-x86_64-mingw32/nios2-elf/lib\libc.a(lib_a-memcmp.o)
 .bss           0x000000000804ab54        0x0 c:/programmes/fpga/nios2eds/bin/gnu/h-x86_64-mingw32/bin/../lib/gcc/nios2-elf/5.3.0/../../../../../H-x86_64-mingw32/nios2-elf/lib\libc.a(lib_a-memcpy.o)
 .bss           0x000000000804ab54        0x0 c:/programmes/fpga/nios2eds/bin/gnu/h-x86_64-mingw32/bin/../lib/gcc/nios2-elf/5.3.0/../../../../../H-x86_64-mingw32/nios2-elf/lib\libc.a(lib_a-putc.o)
 .bss           0x000000000804ab54        0x0 c:/programmes/fpga/nios2eds/bin/gnu/h-x86_64-mingw32/bin/../lib/gcc/nios2-elf/5.3.0/../../../../../H-x86_64-mingw32/nios2-elf/lib\libc.a(lib_a-strlen.o)
 .bss           0x000000000804ab54        0x0 c:/programmes/fpga/nios2eds/bin/gnu/h-x86_64-mingw32/bin/../lib/gcc/nios2-elf/5.3.0/../../../../../H-x86_64-mingw32/nios2-elf/lib\libc.a(lib_a-wbuf.o)
 .bss           0x000000000804ab54        0x0 c:/programmes/fpga/nios2eds/bin/gnu/h-x86_64-mingw32/bin/../lib/gcc/nios2-elf/5.3.0/../../../../../H-x86_64-mingw32/nios2-elf/lib\libc.a(lib_a-wsetup.o)
 .bss           0x000000000804ab54        0x0 c:/programmes/fpga/nios2eds/bin/gnu/h-x86_64-mingw32/bin/../lib/gcc/nios2-elf/5.3.0/../../../../../H-x86_64-mingw32/nios2-elf/lib\libc.a(lib_a-__atexit.o)
 .bss           0x000000000804ab54        0x0 c:/programmes/fpga/nios2eds/bin/gnu/h-x86_64-mingw32/bin/../lib/gcc/nios2-elf/5.3.0/../../../../../H-x86_64-mingw32/nios2-elf/lib\libc.a(lib_a-__call_atexit.o)
 .bss           0x000000000804ab54        0x0 c:/programmes/fpga/nios2eds/bin/gnu/h-x86_64-mingw32/bin/../lib/gcc/nios2-elf/5.3.0/../../../../../H-x86_64-mingw32/nios2-elf/lib\libc.a(lib_a-fflush.o)
 .bss           0x000000000804ab54        0x0 c:/programmes/fpga/nios2eds/bin/gnu/h-x86_64-mingw32/bin/../lib/gcc/nios2-elf/5.3.0/../../../../../H-x86_64-mingw32/nios2-elf/lib\libc.a(lib_a-findfp.o)
 .bss           0x000000000804ab54        0x0 c:/programmes/fpga/nios2eds/bin/gnu/h-x86_64-mingw32/bin/../lib/gcc/nios2-elf/5.3.0/../../../../../H-x86_64-mingw32/nios2-elf/lib\libc.a(lib_a-freer.o)
 .bss           0x000000000804ab54        0x0 c:/programmes/fpga/nios2eds/bin/gnu/h-x86_64-mingw32/bin/../lib/gcc/nios2-elf/5.3.0/../../../../../H-x86_64-mingw32/nios2-elf/lib\libc.a(lib_a-fwalk.o)
 .bss           0x000000000804ab54        0x0 c:/programmes/fpga/nios2eds/bin/gnu/h-x86_64-mingw32/bin/../lib/gcc/nios2-elf/5.3.0/../../../../../H-x86_64-mingw32/nios2-elf/lib\libc.a(lib_a-makebuf.o)
 .bss           0x000000000804ab54        0x0 c:/programmes/fpga/nios2eds/bin/gnu/h-x86_64-mingw32/bin/../lib/gcc/nios2-elf/5.3.0/../../../../../H-x86_64-mingw32/nios2-elf/lib\libc.a(lib_a-mallocr.o)
 .bss.__malloc_current_mallinfo
                0x000000000804ab54       0x28 c:/programmes/fpga/nios2eds/bin/gnu/h-x86_64-mingw32/bin/../lib/gcc/nios2-elf/5.3.0/../../../../../H-x86_64-mingw32/nios2-elf/lib\libc.a(lib_a-mallocr.o)
                0x000000000804ab54                __malloc_current_mallinfo
 .bss           0x000000000804ab7c        0x0 c:/programmes/fpga/nios2eds/bin/gnu/h-x86_64-mingw32/bin/../lib/gcc/nios2-elf/5.3.0/../../../../../H-x86_64-mingw32/nios2-elf/lib\libc.a(lib_a-memset.o)
 .bss           0x000000000804ab7c        0x0 c:/programmes/fpga/nios2eds/bin/gnu/h-x86_64-mingw32/bin/../lib/gcc/nios2-elf/5.3.0/../../../../../H-x86_64-mingw32/nios2-elf/lib\libc.a(lib_a-sbrkr.o)
 .bss           0x000000000804ab7c        0x0 c:/programmes/fpga/nios2eds/bin/gnu/h-x86_64-mingw32/bin/../lib/gcc/nios2-elf/5.3.0/../../../../../H-x86_64-mingw32/nios2-elf/lib\libc.a(lib_a-stdio.o)
 .bss           0x000000000804ab7c        0x0 c:/programmes/fpga/nios2eds/bin/gnu/h-x86_64-mingw32/bin/../lib/gcc/nios2-elf/5.3.0/../../../../../H-x86_64-mingw32/nios2-elf/lib\libc.a(lib_a-writer.o)
 .bss           0x000000000804ab7c        0x0 c:/programmes/fpga/nios2eds/bin/gnu/h-x86_64-mingw32/bin/../lib/gcc/nios2-elf/5.3.0/../../../../../H-x86_64-mingw32/nios2-elf/lib\libc.a(closer.o)
 .bss           0x000000000804ab7c        0x0 c:/programmes/fpga/nios2eds/bin/gnu/h-x86_64-mingw32/bin/../lib/gcc/nios2-elf/5.3.0/../../../../../H-x86_64-mingw32/nios2-elf/lib\libc.a(lib_a-fclose.o)
 .bss           0x000000000804ab7c        0x0 c:/programmes/fpga/nios2eds/bin/gnu/h-x86_64-mingw32/bin/../lib/gcc/nios2-elf/5.3.0/../../../../../H-x86_64-mingw32/nios2-elf/lib\libc.a(lib_a-fstatr.o)
 .bss           0x000000000804ab7c        0x0 c:/programmes/fpga/nios2eds/bin/gnu/h-x86_64-mingw32/bin/../lib/gcc/nios2-elf/5.3.0/../../../../../H-x86_64-mingw32/nios2-elf/lib\libc.a(lib_a-isattyr.o)
 .bss           0x000000000804ab7c        0x0 c:/programmes/fpga/nios2eds/bin/gnu/h-x86_64-mingw32/bin/../lib/gcc/nios2-elf/5.3.0/../../../../../H-x86_64-mingw32/nios2-elf/lib\libc.a(lib_a-lseekr.o)
 .bss           0x000000000804ab7c        0x0 c:/programmes/fpga/nios2eds/bin/gnu/h-x86_64-mingw32/bin/../lib/gcc/nios2-elf/5.3.0/../../../../../H-x86_64-mingw32/nios2-elf/lib\libc.a(lib_a-readr.o)
 .bss           0x000000000804ab7c        0x0 C:/Users/smail/Desktop/College/MA2/Real_Time_Embedded_Systems/final_projectCCC/sw/nios/project_bsp/\libhal_bsp.a(alt_exit.o)
 .bss           0x000000000804ab7c        0x0 C:/Users/smail/Desktop/College/MA2/Real_Time_Embedded_Systems/final_projectCCC/sw/nios/project_bsp/\libhal_bsp.a(alt_fstat.o)
 .bss           0x000000000804ab7c        0x0 C:/Users/smail/Desktop/College/MA2/Real_Time_Embedded_Systems/final_projectCCC/sw/nios/project_bsp/\libhal_bsp.a(alt_isatty.o)
 .bss           0x000000000804ab7c        0x0 C:/Users/smail/Desktop/College/MA2/Real_Time_Embedded_Systems/final_projectCCC/sw/nios/project_bsp/\libhal_bsp.a(alt_lseek.o)
 .bss           0x000000000804ab7c        0x0 C:/Users/smail/Desktop/College/MA2/Real_Time_Embedded_Systems/final_projectCCC/sw/nios/project_bsp/\libhal_bsp.a(alt_malloc_lock.o)
 .bss           0x000000000804ab7c        0x0 C:/Users/smail/Desktop/College/MA2/Real_Time_Embedded_Systems/final_projectCCC/sw/nios/project_bsp/\libhal_bsp.a(alt_read.o)
 .bss           0x000000000804ab7c        0x0 C:/Users/smail/Desktop/College/MA2/Real_Time_Embedded_Systems/final_projectCCC/sw/nios/project_bsp/\libhal_bsp.a(alt_sbrk.o)
 .bss           0x000000000804ab7c        0x0 C:/Users/smail/Desktop/College/MA2/Real_Time_Embedded_Systems/final_projectCCC/sw/nios/project_bsp/\libhal_bsp.a(alt_write.o)
 *(COMMON)
 COMMON         0x000000000804ab7c      0x100 C:/Users/smail/Desktop/College/MA2/Real_Time_Embedded_Systems/final_projectCCC/sw/nios/project_bsp/\libhal_bsp.a(alt_irq_handler.o)
                0x000000000804ab7c                alt_irq
                0x000000000804ac7c                . = ALIGN (0x4)
                0x000000000804ac7c                __bss_end = ABSOLUTE (.)

.new_sdram_controller_0
                0x0000000004000000        0x0 load address 0x000000000804ac7c
                [!provide]                        PROVIDE (_alt_partition_new_sdram_controller_0_start, ABSOLUTE (.))
 *(.new_sdram_controller_0 .new_sdram_controller_0. new_sdram_controller_0.*)
                0x0000000004000000                . = ALIGN (0x4)
                [!provide]                        PROVIDE (_alt_partition_new_sdram_controller_0_end, ABSOLUTE (.))
                [!provide]                        PROVIDE (_alt_partition_new_sdram_controller_0_load_addr, LOADADDR (.new_sdram_controller_0))

.onchip_memory2_0
                0x000000000804ac7c        0x0
                [!provide]                        PROVIDE (_alt_partition_onchip_memory2_0_start, ABSOLUTE (.))
 *(.onchip_memory2_0 .onchip_memory2_0. onchip_memory2_0.*)
                0x000000000804ac7c                . = ALIGN (0x4)
                [!provide]                        PROVIDE (_alt_partition_onchip_memory2_0_end, ABSOLUTE (.))
                0x000000000804ac7c                _end = ABSOLUTE (.)
                0x000000000804ac7c                end = ABSOLUTE (.)
                0x000000000804ac7c                __alt_stack_base = ABSOLUTE (.)
                [!provide]                        PROVIDE (_alt_partition_onchip_memory2_0_load_addr, LOADADDR (.onchip_memory2_0))

.stab
 *(.stab)

.stabstr
 *(.stabstr)

.stab.excl
 *(.stab.excl)

.stab.exclstr
 *(.stab.exclstr)

.stab.index
 *(.stab.index)

.stab.indexstr
 *(.stab.indexstr)

.comment        0x0000000000000000       0x23
 *(.comment)
 .comment       0x0000000000000000       0x23 obj/default/hello_world.o
                                         0x24 (size before relaxing)
 .comment       0x0000000000000023       0x24 c:/programmes/fpga/nios2eds/bin/gnu/h-x86_64-mingw32/bin/../lib/gcc/nios2-elf/5.3.0\libgcc.a(lib2-divmod.o)
 .comment       0x0000000000000023       0x24 c:/programmes/fpga/nios2eds/bin/gnu/h-x86_64-mingw32/bin/../lib/gcc/nios2-elf/5.3.0\libgcc.a(addsf3.o)
 .comment       0x0000000000000023       0x24 c:/programmes/fpga/nios2eds/bin/gnu/h-x86_64-mingw32/bin/../lib/gcc/nios2-elf/5.3.0\libgcc.a(lesf2.o)
 .comment       0x0000000000000023       0x24 c:/programmes/fpga/nios2eds/bin/gnu/h-x86_64-mingw32/bin/../lib/gcc/nios2-elf/5.3.0\libgcc.a(floatunsisf.o)
 .comment       0x0000000000000023       0x24 c:/programmes/fpga/nios2eds/bin/gnu/h-x86_64-mingw32/bin/../lib/gcc/nios2-elf/5.3.0\libgcc.a(_clzsi2.o)
 .comment       0x0000000000000023       0x24 c:/programmes/fpga/nios2eds/bin/gnu/h-x86_64-mingw32/bin/../lib/gcc/nios2-elf/5.3.0\libgcc.a(_clz.o)
 .comment       0x0000000000000023       0x24 c:/programmes/fpga/nios2eds/bin/gnu/h-x86_64-mingw32/bin/../lib/gcc/nios2-elf/5.3.0/../../../../../H-x86_64-mingw32/nios2-elf/lib\libc.a(lib_a-clock.o)
 .comment       0x0000000000000023       0x24 c:/programmes/fpga/nios2eds/bin/gnu/h-x86_64-mingw32/bin/../lib/gcc/nios2-elf/5.3.0/../../../../../H-x86_64-mingw32/nios2-elf/lib\libc.a(lib_a-impure.o)
 .comment       0x0000000000000023       0x24 c:/programmes/fpga/nios2eds/bin/gnu/h-x86_64-mingw32/bin/../lib/gcc/nios2-elf/5.3.0/../../../../../H-x86_64-mingw32/nios2-elf/lib\libc.a(lib_a-timesr.o)
 .comment       0x0000000000000023       0x24 C:/Users/smail/Desktop/College/MA2/Real_Time_Embedded_Systems/final_projectCCC/sw/nios/project_bsp/\libhal_bsp.a(alt_iic.o)
 .comment       0x0000000000000023       0x24 C:/Users/smail/Desktop/College/MA2/Real_Time_Embedded_Systems/final_projectCCC/sw/nios/project_bsp/\libhal_bsp.a(alt_iic_isr_register.o)
 .comment       0x0000000000000023       0x24 C:/Users/smail/Desktop/College/MA2/Real_Time_Embedded_Systems/final_projectCCC/sw/nios/project_bsp/\libhal_bsp.a(alt_irq_handler.o)
 .comment       0x0000000000000023       0x24 C:/Users/smail/Desktop/College/MA2/Real_Time_Embedded_Systems/final_projectCCC/sw/nios/project_bsp/\libhal_bsp.a(alt_irq_vars.o)
 .comment       0x0000000000000023       0x24 C:/Users/smail/Desktop/College/MA2/Real_Time_Embedded_Systems/final_projectCCC/sw/nios/project_bsp/\libhal_bsp.a(alt_load.o)
 .comment       0x0000000000000023       0x24 C:/Users/smail/Desktop/College/MA2/Real_Time_Embedded_Systems/final_projectCCC/sw/nios/project_bsp/\libhal_bsp.a(alt_main.o)
 .comment       0x0000000000000023       0x24 C:/Users/smail/Desktop/College/MA2/Real_Time_Embedded_Systems/final_projectCCC/sw/nios/project_bsp/\libhal_bsp.a(alt_printf.o)
 .comment       0x0000000000000023       0x24 C:/Users/smail/Desktop/College/MA2/Real_Time_Embedded_Systems/final_projectCCC/sw/nios/project_bsp/\libhal_bsp.a(alt_putchar.o)
 .comment       0x0000000000000023       0x24 C:/Users/smail/Desktop/College/MA2/Real_Time_Embedded_Systems/final_projectCCC/sw/nios/project_bsp/\libhal_bsp.a(alt_times.o)
 .comment       0x0000000000000023       0x24 C:/Users/smail/Desktop/College/MA2/Real_Time_Embedded_Systems/final_projectCCC/sw/nios/project_bsp/\libhal_bsp.a(alt_sys_init.o)
 .comment       0x0000000000000023       0x24 C:/Users/smail/Desktop/College/MA2/Real_Time_Embedded_Systems/final_projectCCC/sw/nios/project_bsp/\libhal_bsp.a(altera_avalon_jtag_uart_fd.o)
 .comment       0x0000000000000023       0x24 C:/Users/smail/Desktop/College/MA2/Real_Time_Embedded_Systems/final_projectCCC/sw/nios/project_bsp/\libhal_bsp.a(altera_avalon_jtag_uart_init.o)
 .comment       0x0000000000000023       0x24 C:/Users/smail/Desktop/College/MA2/Real_Time_Embedded_Systems/final_projectCCC/sw/nios/project_bsp/\libhal_bsp.a(altera_avalon_jtag_uart_ioctl.o)
 .comment       0x0000000000000023       0x24 C:/Users/smail/Desktop/College/MA2/Real_Time_Embedded_Systems/final_projectCCC/sw/nios/project_bsp/\libhal_bsp.a(altera_avalon_jtag_uart_read.o)
 .comment       0x0000000000000023       0x24 C:/Users/smail/Desktop/College/MA2/Real_Time_Embedded_Systems/final_projectCCC/sw/nios/project_bsp/\libhal_bsp.a(altera_avalon_jtag_uart_write.o)
 .comment       0x0000000000000023       0x24 C:/Users/smail/Desktop/College/MA2/Real_Time_Embedded_Systems/final_projectCCC/sw/nios/project_bsp/\libhal_bsp.a(altera_avalon_timer_sc.o)
 .comment       0x0000000000000023       0x24 C:/Users/smail/Desktop/College/MA2/Real_Time_Embedded_Systems/final_projectCCC/sw/nios/project_bsp/\libhal_bsp.a(altera_up_avalon_audio.o)
 .comment       0x0000000000000023       0x24 C:/Users/smail/Desktop/College/MA2/Real_Time_Embedded_Systems/final_projectCCC/sw/nios/project_bsp/\libhal_bsp.a(altera_up_avalon_audio_and_video_config.o)
 .comment       0x0000000000000023       0x24 C:/Users/smail/Desktop/College/MA2/Real_Time_Embedded_Systems/final_projectCCC/sw/nios/project_bsp/\libhal_bsp.a(alt_alarm_start.o)
 .comment       0x0000000000000023       0x24 C:/Users/smail/Desktop/College/MA2/Real_Time_Embedded_Systems/final_projectCCC/sw/nios/project_bsp/\libhal_bsp.a(alt_close.o)
 .comment       0x0000000000000023       0x24 C:/Users/smail/Desktop/College/MA2/Real_Time_Embedded_Systems/final_projectCCC/sw/nios/project_bsp/\libhal_bsp.a(alt_dcache_flush_all.o)
 .comment       0x0000000000000023       0x24 C:/Users/smail/Desktop/College/MA2/Real_Time_Embedded_Systems/final_projectCCC/sw/nios/project_bsp/\libhal_bsp.a(alt_dev.o)
 .comment       0x0000000000000023       0x24 C:/Users/smail/Desktop/College/MA2/Real_Time_Embedded_Systems/final_projectCCC/sw/nios/project_bsp/\libhal_bsp.a(alt_dev_llist_insert.o)
 .comment       0x0000000000000023       0x24 C:/Users/smail/Desktop/College/MA2/Real_Time_Embedded_Systems/final_projectCCC/sw/nios/project_bsp/\libhal_bsp.a(alt_do_ctors.o)
 .comment       0x0000000000000023       0x24 C:/Users/smail/Desktop/College/MA2/Real_Time_Embedded_Systems/final_projectCCC/sw/nios/project_bsp/\libhal_bsp.a(alt_do_dtors.o)
 .comment       0x0000000000000023       0x24 C:/Users/smail/Desktop/College/MA2/Real_Time_Embedded_Systems/final_projectCCC/sw/nios/project_bsp/\libhal_bsp.a(alt_errno.o)
 .comment       0x0000000000000023       0x24 C:/Users/smail/Desktop/College/MA2/Real_Time_Embedded_Systems/final_projectCCC/sw/nios/project_bsp/\libhal_bsp.a(alt_find_dev.o)
 .comment       0x0000000000000023       0x24 C:/Users/smail/Desktop/College/MA2/Real_Time_Embedded_Systems/final_projectCCC/sw/nios/project_bsp/\libhal_bsp.a(alt_icache_flush_all.o)
 .comment       0x0000000000000023       0x24 C:/Users/smail/Desktop/College/MA2/Real_Time_Embedded_Systems/final_projectCCC/sw/nios/project_bsp/\libhal_bsp.a(alt_instruction_exception_entry.o)
 .comment       0x0000000000000023       0x24 C:/Users/smail/Desktop/College/MA2/Real_Time_Embedded_Systems/final_projectCCC/sw/nios/project_bsp/\libhal_bsp.a(alt_io_redirect.o)
 .comment       0x0000000000000023       0x24 C:/Users/smail/Desktop/College/MA2/Real_Time_Embedded_Systems/final_projectCCC/sw/nios/project_bsp/\libhal_bsp.a(alt_open.o)
 .comment       0x0000000000000023       0x24 C:/Users/smail/Desktop/College/MA2/Real_Time_Embedded_Systems/final_projectCCC/sw/nios/project_bsp/\libhal_bsp.a(alt_release_fd.o)
 .comment       0x0000000000000023       0x24 C:/Users/smail/Desktop/College/MA2/Real_Time_Embedded_Systems/final_projectCCC/sw/nios/project_bsp/\libhal_bsp.a(alt_tick.o)
 .comment       0x0000000000000023       0x24 C:/Users/smail/Desktop/College/MA2/Real_Time_Embedded_Systems/final_projectCCC/sw/nios/project_bsp/\libhal_bsp.a(altera_nios2_gen2_irq.o)
 .comment       0x0000000000000023       0x24 C:/Users/smail/Desktop/College/MA2/Real_Time_Embedded_Systems/final_projectCCC/sw/nios/project_bsp/\libhal_bsp.a(alt_find_file.o)
 .comment       0x0000000000000023       0x24 C:/Users/smail/Desktop/College/MA2/Real_Time_Embedded_Systems/final_projectCCC/sw/nios/project_bsp/\libhal_bsp.a(alt_get_fd.o)
 .comment       0x0000000000000023       0x24 C:/Users/smail/Desktop/College/MA2/Real_Time_Embedded_Systems/final_projectCCC/sw/nios/project_bsp/\libhal_bsp.a(alt_icache_flush.o)
 .comment       0x0000000000000023       0x24 c:/programmes/fpga/nios2eds/bin/gnu/h-x86_64-mingw32/bin/../lib/gcc/nios2-elf/5.3.0/../../../../../H-x86_64-mingw32/nios2-elf/lib\libc.a(lib_a-atexit.o)
 .comment       0x0000000000000023       0x24 c:/programmes/fpga/nios2eds/bin/gnu/h-x86_64-mingw32/bin/../lib/gcc/nios2-elf/5.3.0/../../../../../H-x86_64-mingw32/nios2-elf/lib\libc.a(lib_a-exit.o)
 .comment       0x0000000000000023       0x24 c:/programmes/fpga/nios2eds/bin/gnu/h-x86_64-mingw32/bin/../lib/gcc/nios2-elf/5.3.0/../../../../../H-x86_64-mingw32/nios2-elf/lib\libc.a(lib_a-int_errno.o)
 .comment       0x0000000000000023       0x24 c:/programmes/fpga/nios2eds/bin/gnu/h-x86_64-mingw32/bin/../lib/gcc/nios2-elf/5.3.0/../../../../../H-x86_64-mingw32/nios2-elf/lib\libc.a(lib_a-memcmp.o)
 .comment       0x0000000000000023       0x24 c:/programmes/fpga/nios2eds/bin/gnu/h-x86_64-mingw32/bin/../lib/gcc/nios2-elf/5.3.0/../../../../../H-x86_64-mingw32/nios2-elf/lib\libc.a(lib_a-memcpy.o)
 .comment       0x0000000000000023       0x24 c:/programmes/fpga/nios2eds/bin/gnu/h-x86_64-mingw32/bin/../lib/gcc/nios2-elf/5.3.0/../../../../../H-x86_64-mingw32/nios2-elf/lib\libc.a(lib_a-putc.o)
 .comment       0x0000000000000023       0x24 c:/programmes/fpga/nios2eds/bin/gnu/h-x86_64-mingw32/bin/../lib/gcc/nios2-elf/5.3.0/../../../../../H-x86_64-mingw32/nios2-elf/lib\libc.a(lib_a-strlen.o)
 .comment       0x0000000000000023       0x24 c:/programmes/fpga/nios2eds/bin/gnu/h-x86_64-mingw32/bin/../lib/gcc/nios2-elf/5.3.0/../../../../../H-x86_64-mingw32/nios2-elf/lib\libc.a(lib_a-wbuf.o)
 .comment       0x0000000000000023       0x24 c:/programmes/fpga/nios2eds/bin/gnu/h-x86_64-mingw32/bin/../lib/gcc/nios2-elf/5.3.0/../../../../../H-x86_64-mingw32/nios2-elf/lib\libc.a(lib_a-wsetup.o)
 .comment       0x0000000000000023       0x24 c:/programmes/fpga/nios2eds/bin/gnu/h-x86_64-mingw32/bin/../lib/gcc/nios2-elf/5.3.0/../../../../../H-x86_64-mingw32/nios2-elf/lib\libc.a(lib_a-__atexit.o)
 .comment       0x0000000000000023       0x24 c:/programmes/fpga/nios2eds/bin/gnu/h-x86_64-mingw32/bin/../lib/gcc/nios2-elf/5.3.0/../../../../../H-x86_64-mingw32/nios2-elf/lib\libc.a(lib_a-__call_atexit.o)
 .comment       0x0000000000000023       0x24 c:/programmes/fpga/nios2eds/bin/gnu/h-x86_64-mingw32/bin/../lib/gcc/nios2-elf/5.3.0/../../../../../H-x86_64-mingw32/nios2-elf/lib\libc.a(lib_a-fflush.o)
 .comment       0x0000000000000023       0x24 c:/programmes/fpga/nios2eds/bin/gnu/h-x86_64-mingw32/bin/../lib/gcc/nios2-elf/5.3.0/../../../../../H-x86_64-mingw32/nios2-elf/lib\libc.a(lib_a-findfp.o)
 .comment       0x0000000000000023       0x24 c:/programmes/fpga/nios2eds/bin/gnu/h-x86_64-mingw32/bin/../lib/gcc/nios2-elf/5.3.0/../../../../../H-x86_64-mingw32/nios2-elf/lib\libc.a(lib_a-freer.o)
 .comment       0x0000000000000023       0x24 c:/programmes/fpga/nios2eds/bin/gnu/h-x86_64-mingw32/bin/../lib/gcc/nios2-elf/5.3.0/../../../../../H-x86_64-mingw32/nios2-elf/lib\libc.a(lib_a-fwalk.o)
 .comment       0x0000000000000023       0x24 c:/programmes/fpga/nios2eds/bin/gnu/h-x86_64-mingw32/bin/../lib/gcc/nios2-elf/5.3.0/../../../../../H-x86_64-mingw32/nios2-elf/lib\libc.a(lib_a-makebuf.o)
 .comment       0x0000000000000023       0x24 c:/programmes/fpga/nios2eds/bin/gnu/h-x86_64-mingw32/bin/../lib/gcc/nios2-elf/5.3.0/../../../../../H-x86_64-mingw32/nios2-elf/lib\libc.a(lib_a-mallocr.o)
 .comment       0x0000000000000023       0x24 c:/programmes/fpga/nios2eds/bin/gnu/h-x86_64-mingw32/bin/../lib/gcc/nios2-elf/5.3.0/../../../../../H-x86_64-mingw32/nios2-elf/lib\libc.a(lib_a-memset.o)
 .comment       0x0000000000000023       0x24 c:/programmes/fpga/nios2eds/bin/gnu/h-x86_64-mingw32/bin/../lib/gcc/nios2-elf/5.3.0/../../../../../H-x86_64-mingw32/nios2-elf/lib\libc.a(lib_a-sbrkr.o)
 .comment       0x0000000000000023       0x24 c:/programmes/fpga/nios2eds/bin/gnu/h-x86_64-mingw32/bin/../lib/gcc/nios2-elf/5.3.0/../../../../../H-x86_64-mingw32/nios2-elf/lib\libc.a(lib_a-stdio.o)
 .comment       0x0000000000000023       0x24 c:/programmes/fpga/nios2eds/bin/gnu/h-x86_64-mingw32/bin/../lib/gcc/nios2-elf/5.3.0/../../../../../H-x86_64-mingw32/nios2-elf/lib\libc.a(lib_a-writer.o)
 .comment       0x0000000000000023       0x24 c:/programmes/fpga/nios2eds/bin/gnu/h-x86_64-mingw32/bin/../lib/gcc/nios2-elf/5.3.0/../../../../../H-x86_64-mingw32/nios2-elf/lib\libc.a(closer.o)
 .comment       0x0000000000000023       0x24 c:/programmes/fpga/nios2eds/bin/gnu/h-x86_64-mingw32/bin/../lib/gcc/nios2-elf/5.3.0/../../../../../H-x86_64-mingw32/nios2-elf/lib\libc.a(lib_a-fclose.o)
 .comment       0x0000000000000023       0x24 c:/programmes/fpga/nios2eds/bin/gnu/h-x86_64-mingw32/bin/../lib/gcc/nios2-elf/5.3.0/../../../../../H-x86_64-mingw32/nios2-elf/lib\libc.a(lib_a-fstatr.o)
 .comment       0x0000000000000023       0x24 c:/programmes/fpga/nios2eds/bin/gnu/h-x86_64-mingw32/bin/../lib/gcc/nios2-elf/5.3.0/../../../../../H-x86_64-mingw32/nios2-elf/lib\libc.a(lib_a-isattyr.o)
 .comment       0x0000000000000023       0x24 c:/programmes/fpga/nios2eds/bin/gnu/h-x86_64-mingw32/bin/../lib/gcc/nios2-elf/5.3.0/../../../../../H-x86_64-mingw32/nios2-elf/lib\libc.a(lib_a-lseekr.o)
 .comment       0x0000000000000023       0x24 c:/programmes/fpga/nios2eds/bin/gnu/h-x86_64-mingw32/bin/../lib/gcc/nios2-elf/5.3.0/../../../../../H-x86_64-mingw32/nios2-elf/lib\libc.a(lib_a-readr.o)
 .comment       0x0000000000000023       0x24 C:/Users/smail/Desktop/College/MA2/Real_Time_Embedded_Systems/final_projectCCC/sw/nios/project_bsp/\libhal_bsp.a(alt_exit.o)
 .comment       0x0000000000000023       0x24 C:/Users/smail/Desktop/College/MA2/Real_Time_Embedded_Systems/final_projectCCC/sw/nios/project_bsp/\libhal_bsp.a(alt_fstat.o)
 .comment       0x0000000000000023       0x24 C:/Users/smail/Desktop/College/MA2/Real_Time_Embedded_Systems/final_projectCCC/sw/nios/project_bsp/\libhal_bsp.a(alt_isatty.o)
 .comment       0x0000000000000023       0x24 C:/Users/smail/Desktop/College/MA2/Real_Time_Embedded_Systems/final_projectCCC/sw/nios/project_bsp/\libhal_bsp.a(alt_lseek.o)
 .comment       0x0000000000000023       0x24 C:/Users/smail/Desktop/College/MA2/Real_Time_Embedded_Systems/final_projectCCC/sw/nios/project_bsp/\libhal_bsp.a(alt_malloc_lock.o)
 .comment       0x0000000000000023       0x24 C:/Users/smail/Desktop/College/MA2/Real_Time_Embedded_Systems/final_projectCCC/sw/nios/project_bsp/\libhal_bsp.a(alt_read.o)
 .comment       0x0000000000000023       0x24 C:/Users/smail/Desktop/College/MA2/Real_Time_Embedded_Systems/final_projectCCC/sw/nios/project_bsp/\libhal_bsp.a(alt_sbrk.o)
 .comment       0x0000000000000023       0x24 C:/Users/smail/Desktop/College/MA2/Real_Time_Embedded_Systems/final_projectCCC/sw/nios/project_bsp/\libhal_bsp.a(alt_write.o)

.debug
 *(.debug)

.line
 *(.line)

.debug_srcinfo
 *(.debug_srcinfo)

.debug_sfnames
 *(.debug_sfnames)

.debug_aranges  0x0000000000000000      0xb50
 *(.debug_aranges)
 .debug_aranges
                0x0000000000000000       0x28 C:/Users/smail/Desktop/College/MA2/Real_Time_Embedded_Systems/final_projectCCC/sw/nios/project_bsp//obj/HAL/src/crt0.o
 .debug_aranges
                0x0000000000000028       0x20 obj/default/hello_world.o
 .debug_aranges
                0x0000000000000048       0x20 c:/programmes/fpga/nios2eds/bin/gnu/h-x86_64-mingw32/bin/../lib/gcc/nios2-elf/5.3.0\libgcc.a(lib2-divmod.o)
 .debug_aranges
                0x0000000000000068       0x20 c:/programmes/fpga/nios2eds/bin/gnu/h-x86_64-mingw32/bin/../lib/gcc/nios2-elf/5.3.0\libgcc.a(addsf3.o)
 .debug_aranges
                0x0000000000000088       0x20 c:/programmes/fpga/nios2eds/bin/gnu/h-x86_64-mingw32/bin/../lib/gcc/nios2-elf/5.3.0\libgcc.a(lesf2.o)
 .debug_aranges
                0x00000000000000a8       0x20 c:/programmes/fpga/nios2eds/bin/gnu/h-x86_64-mingw32/bin/../lib/gcc/nios2-elf/5.3.0\libgcc.a(floatunsisf.o)
 .debug_aranges
                0x00000000000000c8       0x20 c:/programmes/fpga/nios2eds/bin/gnu/h-x86_64-mingw32/bin/../lib/gcc/nios2-elf/5.3.0\libgcc.a(_clzsi2.o)
 .debug_aranges
                0x00000000000000e8       0x18 c:/programmes/fpga/nios2eds/bin/gnu/h-x86_64-mingw32/bin/../lib/gcc/nios2-elf/5.3.0\libgcc.a(_clz.o)
 .debug_aranges
                0x0000000000000100       0x20 c:/programmes/fpga/nios2eds/bin/gnu/h-x86_64-mingw32/bin/../lib/gcc/nios2-elf/5.3.0/../../../../../H-x86_64-mingw32/nios2-elf/lib\libc.a(lib_a-clock.o)
 .debug_aranges
                0x0000000000000120       0x18 c:/programmes/fpga/nios2eds/bin/gnu/h-x86_64-mingw32/bin/../lib/gcc/nios2-elf/5.3.0/../../../../../H-x86_64-mingw32/nios2-elf/lib\libc.a(lib_a-impure.o)
 .debug_aranges
                0x0000000000000138       0x20 c:/programmes/fpga/nios2eds/bin/gnu/h-x86_64-mingw32/bin/../lib/gcc/nios2-elf/5.3.0/../../../../../H-x86_64-mingw32/nios2-elf/lib\libc.a(lib_a-timesr.o)
 .debug_aranges
                0x0000000000000158       0x20 C:/Users/smail/Desktop/College/MA2/Real_Time_Embedded_Systems/final_projectCCC/sw/nios/project_bsp/\libhal_bsp.a(alt_iic.o)
 .debug_aranges
                0x0000000000000178       0x20 C:/Users/smail/Desktop/College/MA2/Real_Time_Embedded_Systems/final_projectCCC/sw/nios/project_bsp/\libhal_bsp.a(alt_iic_isr_register.o)
 .debug_aranges
                0x0000000000000198       0x30 C:/Users/smail/Desktop/College/MA2/Real_Time_Embedded_Systems/final_projectCCC/sw/nios/project_bsp/\libhal_bsp.a(alt_irq_entry.o)
 .debug_aranges
                0x00000000000001c8       0x20 C:/Users/smail/Desktop/College/MA2/Real_Time_Embedded_Systems/final_projectCCC/sw/nios/project_bsp/\libhal_bsp.a(alt_irq_handler.o)
 .debug_aranges
                0x00000000000001e8       0x18 C:/Users/smail/Desktop/College/MA2/Real_Time_Embedded_Systems/final_projectCCC/sw/nios/project_bsp/\libhal_bsp.a(alt_irq_vars.o)
 .debug_aranges
                0x0000000000000200       0x20 C:/Users/smail/Desktop/College/MA2/Real_Time_Embedded_Systems/final_projectCCC/sw/nios/project_bsp/\libhal_bsp.a(alt_load.o)
 .debug_aranges
                0x0000000000000220       0x20 C:/Users/smail/Desktop/College/MA2/Real_Time_Embedded_Systems/final_projectCCC/sw/nios/project_bsp/\libhal_bsp.a(alt_main.o)
 .debug_aranges
                0x0000000000000240       0x20 C:/Users/smail/Desktop/College/MA2/Real_Time_Embedded_Systems/final_projectCCC/sw/nios/project_bsp/\libhal_bsp.a(alt_printf.o)
 .debug_aranges
                0x0000000000000260       0x20 C:/Users/smail/Desktop/College/MA2/Real_Time_Embedded_Systems/final_projectCCC/sw/nios/project_bsp/\libhal_bsp.a(alt_putchar.o)
 .debug_aranges
                0x0000000000000280       0x20 C:/Users/smail/Desktop/College/MA2/Real_Time_Embedded_Systems/final_projectCCC/sw/nios/project_bsp/\libhal_bsp.a(alt_times.o)
 .debug_aranges
                0x00000000000002a0       0x20 C:/Users/smail/Desktop/College/MA2/Real_Time_Embedded_Systems/final_projectCCC/sw/nios/project_bsp/\libhal_bsp.a(alt_sys_init.o)
 .debug_aranges
                0x00000000000002c0       0x20 C:/Users/smail/Desktop/College/MA2/Real_Time_Embedded_Systems/final_projectCCC/sw/nios/project_bsp/\libhal_bsp.a(altera_avalon_jtag_uart_fd.o)
 .debug_aranges
                0x00000000000002e0       0x20 C:/Users/smail/Desktop/College/MA2/Real_Time_Embedded_Systems/final_projectCCC/sw/nios/project_bsp/\libhal_bsp.a(altera_avalon_jtag_uart_init.o)
 .debug_aranges
                0x0000000000000300       0x20 C:/Users/smail/Desktop/College/MA2/Real_Time_Embedded_Systems/final_projectCCC/sw/nios/project_bsp/\libhal_bsp.a(altera_avalon_jtag_uart_ioctl.o)
 .debug_aranges
                0x0000000000000320       0x20 C:/Users/smail/Desktop/College/MA2/Real_Time_Embedded_Systems/final_projectCCC/sw/nios/project_bsp/\libhal_bsp.a(altera_avalon_jtag_uart_read.o)
 .debug_aranges
                0x0000000000000340       0x20 C:/Users/smail/Desktop/College/MA2/Real_Time_Embedded_Systems/final_projectCCC/sw/nios/project_bsp/\libhal_bsp.a(altera_avalon_jtag_uart_write.o)
 .debug_aranges
                0x0000000000000360       0x20 C:/Users/smail/Desktop/College/MA2/Real_Time_Embedded_Systems/final_projectCCC/sw/nios/project_bsp/\libhal_bsp.a(altera_avalon_timer_sc.o)
 .debug_aranges
                0x0000000000000380       0x20 C:/Users/smail/Desktop/College/MA2/Real_Time_Embedded_Systems/final_projectCCC/sw/nios/project_bsp/\libhal_bsp.a(altera_up_avalon_audio.o)
 .debug_aranges
                0x00000000000003a0       0x20 C:/Users/smail/Desktop/College/MA2/Real_Time_Embedded_Systems/final_projectCCC/sw/nios/project_bsp/\libhal_bsp.a(altera_up_avalon_audio_and_video_config.o)
 .debug_aranges
                0x00000000000003c0       0x20 C:/Users/smail/Desktop/College/MA2/Real_Time_Embedded_Systems/final_projectCCC/sw/nios/project_bsp/\libhal_bsp.a(alt_alarm_start.o)
 .debug_aranges
                0x00000000000003e0       0x20 C:/Users/smail/Desktop/College/MA2/Real_Time_Embedded_Systems/final_projectCCC/sw/nios/project_bsp/\libhal_bsp.a(alt_close.o)
 .debug_aranges
                0x0000000000000400       0x20 C:/Users/smail/Desktop/College/MA2/Real_Time_Embedded_Systems/final_projectCCC/sw/nios/project_bsp/\libhal_bsp.a(alt_dcache_flush_all.o)
 .debug_aranges
                0x0000000000000420       0x20 C:/Users/smail/Desktop/College/MA2/Real_Time_Embedded_Systems/final_projectCCC/sw/nios/project_bsp/\libhal_bsp.a(alt_dev.o)
 .debug_aranges
                0x0000000000000440       0x20 C:/Users/smail/Desktop/College/MA2/Real_Time_Embedded_Systems/final_projectCCC/sw/nios/project_bsp/\libhal_bsp.a(alt_dev_llist_insert.o)
 .debug_aranges
                0x0000000000000460       0x20 C:/Users/smail/Desktop/College/MA2/Real_Time_Embedded_Systems/final_projectCCC/sw/nios/project_bsp/\libhal_bsp.a(alt_do_ctors.o)
 .debug_aranges
                0x0000000000000480       0x20 C:/Users/smail/Desktop/College/MA2/Real_Time_Embedded_Systems/final_projectCCC/sw/nios/project_bsp/\libhal_bsp.a(alt_do_dtors.o)
 .debug_aranges
                0x00000000000004a0       0x18 C:/Users/smail/Desktop/College/MA2/Real_Time_Embedded_Systems/final_projectCCC/sw/nios/project_bsp/\libhal_bsp.a(alt_errno.o)
 .debug_aranges
                0x00000000000004b8       0x38 C:/Users/smail/Desktop/College/MA2/Real_Time_Embedded_Systems/final_projectCCC/sw/nios/project_bsp/\libhal_bsp.a(alt_exception_entry.o)
 .debug_aranges
                0x00000000000004f0       0x20 C:/Users/smail/Desktop/College/MA2/Real_Time_Embedded_Systems/final_projectCCC/sw/nios/project_bsp/\libhal_bsp.a(alt_find_dev.o)
 .debug_aranges
                0x0000000000000510       0x20 C:/Users/smail/Desktop/College/MA2/Real_Time_Embedded_Systems/final_projectCCC/sw/nios/project_bsp/\libhal_bsp.a(alt_icache_flush_all.o)
 .debug_aranges
                0x0000000000000530       0x28 C:/Users/smail/Desktop/College/MA2/Real_Time_Embedded_Systems/final_projectCCC/sw/nios/project_bsp/\libhal_bsp.a(alt_instruction_exception_entry.o)
 .debug_aranges
                0x0000000000000558       0x20 C:/Users/smail/Desktop/College/MA2/Real_Time_Embedded_Systems/final_projectCCC/sw/nios/project_bsp/\libhal_bsp.a(alt_io_redirect.o)
 .debug_aranges
                0x0000000000000578       0x20 C:/Users/smail/Desktop/College/MA2/Real_Time_Embedded_Systems/final_projectCCC/sw/nios/project_bsp/\libhal_bsp.a(alt_open.o)
 .debug_aranges
                0x0000000000000598       0x20 C:/Users/smail/Desktop/College/MA2/Real_Time_Embedded_Systems/final_projectCCC/sw/nios/project_bsp/\libhal_bsp.a(alt_release_fd.o)
 .debug_aranges
                0x00000000000005b8       0x20 C:/Users/smail/Desktop/College/MA2/Real_Time_Embedded_Systems/final_projectCCC/sw/nios/project_bsp/\libhal_bsp.a(alt_tick.o)
 .debug_aranges
                0x00000000000005d8       0x20 C:/Users/smail/Desktop/College/MA2/Real_Time_Embedded_Systems/final_projectCCC/sw/nios/project_bsp/\libhal_bsp.a(altera_nios2_gen2_irq.o)
 .debug_aranges
                0x00000000000005f8       0x20 C:/Users/smail/Desktop/College/MA2/Real_Time_Embedded_Systems/final_projectCCC/sw/nios/project_bsp/\libhal_bsp.a(alt_find_file.o)
 .debug_aranges
                0x0000000000000618       0x20 C:/Users/smail/Desktop/College/MA2/Real_Time_Embedded_Systems/final_projectCCC/sw/nios/project_bsp/\libhal_bsp.a(alt_get_fd.o)
 .debug_aranges
                0x0000000000000638       0x20 C:/Users/smail/Desktop/College/MA2/Real_Time_Embedded_Systems/final_projectCCC/sw/nios/project_bsp/\libhal_bsp.a(alt_icache_flush.o)
 .debug_aranges
                0x0000000000000658       0x20 c:/programmes/fpga/nios2eds/bin/gnu/h-x86_64-mingw32/bin/../lib/gcc/nios2-elf/5.3.0/../../../../../H-x86_64-mingw32/nios2-elf/lib\libc.a(lib_a-atexit.o)
 .debug_aranges
                0x0000000000000678       0x20 c:/programmes/fpga/nios2eds/bin/gnu/h-x86_64-mingw32/bin/../lib/gcc/nios2-elf/5.3.0/../../../../../H-x86_64-mingw32/nios2-elf/lib\libc.a(lib_a-exit.o)
 .debug_aranges
                0x0000000000000698       0x18 c:/programmes/fpga/nios2eds/bin/gnu/h-x86_64-mingw32/bin/../lib/gcc/nios2-elf/5.3.0/../../../../../H-x86_64-mingw32/nios2-elf/lib\libc.a(lib_a-int_errno.o)
 .debug_aranges
                0x00000000000006b0       0x20 c:/programmes/fpga/nios2eds/bin/gnu/h-x86_64-mingw32/bin/../lib/gcc/nios2-elf/5.3.0/../../../../../H-x86_64-mingw32/nios2-elf/lib\libc.a(lib_a-memcmp.o)
 .debug_aranges
                0x00000000000006d0       0x20 c:/programmes/fpga/nios2eds/bin/gnu/h-x86_64-mingw32/bin/../lib/gcc/nios2-elf/5.3.0/../../../../../H-x86_64-mingw32/nios2-elf/lib\libc.a(lib_a-memcpy.o)
 .debug_aranges
                0x00000000000006f0       0x28 c:/programmes/fpga/nios2eds/bin/gnu/h-x86_64-mingw32/bin/../lib/gcc/nios2-elf/5.3.0/../../../../../H-x86_64-mingw32/nios2-elf/lib\libc.a(lib_a-putc.o)
 .debug_aranges
                0x0000000000000718       0x20 c:/programmes/fpga/nios2eds/bin/gnu/h-x86_64-mingw32/bin/../lib/gcc/nios2-elf/5.3.0/../../../../../H-x86_64-mingw32/nios2-elf/lib\libc.a(lib_a-strlen.o)
 .debug_aranges
                0x0000000000000738       0x28 c:/programmes/fpga/nios2eds/bin/gnu/h-x86_64-mingw32/bin/../lib/gcc/nios2-elf/5.3.0/../../../../../H-x86_64-mingw32/nios2-elf/lib\libc.a(lib_a-wbuf.o)
 .debug_aranges
                0x0000000000000760       0x20 c:/programmes/fpga/nios2eds/bin/gnu/h-x86_64-mingw32/bin/../lib/gcc/nios2-elf/5.3.0/../../../../../H-x86_64-mingw32/nios2-elf/lib\libc.a(lib_a-wsetup.o)
 .debug_aranges
                0x0000000000000780       0x20 c:/programmes/fpga/nios2eds/bin/gnu/h-x86_64-mingw32/bin/../lib/gcc/nios2-elf/5.3.0/../../../../../H-x86_64-mingw32/nios2-elf/lib\libc.a(lib_a-__atexit.o)
 .debug_aranges
                0x00000000000007a0       0x20 c:/programmes/fpga/nios2eds/bin/gnu/h-x86_64-mingw32/bin/../lib/gcc/nios2-elf/5.3.0/../../../../../H-x86_64-mingw32/nios2-elf/lib\libc.a(lib_a-__call_atexit.o)
 .debug_aranges
                0x00000000000007c0       0x30 c:/programmes/fpga/nios2eds/bin/gnu/h-x86_64-mingw32/bin/../lib/gcc/nios2-elf/5.3.0/../../../../../H-x86_64-mingw32/nios2-elf/lib\libc.a(lib_a-fflush.o)
 .debug_aranges
                0x00000000000007f0       0x68 c:/programmes/fpga/nios2eds/bin/gnu/h-x86_64-mingw32/bin/../lib/gcc/nios2-elf/5.3.0/../../../../../H-x86_64-mingw32/nios2-elf/lib\libc.a(lib_a-findfp.o)
 .debug_aranges
                0x0000000000000858       0x28 c:/programmes/fpga/nios2eds/bin/gnu/h-x86_64-mingw32/bin/../lib/gcc/nios2-elf/5.3.0/../../../../../H-x86_64-mingw32/nios2-elf/lib\libc.a(lib_a-freer.o)
 .debug_aranges
                0x0000000000000880       0x28 c:/programmes/fpga/nios2eds/bin/gnu/h-x86_64-mingw32/bin/../lib/gcc/nios2-elf/5.3.0/../../../../../H-x86_64-mingw32/nios2-elf/lib\libc.a(lib_a-fwalk.o)
 .debug_aranges
                0x00000000000008a8       0x20 c:/programmes/fpga/nios2eds/bin/gnu/h-x86_64-mingw32/bin/../lib/gcc/nios2-elf/5.3.0/../../../../../H-x86_64-mingw32/nios2-elf/lib\libc.a(lib_a-makebuf.o)
 .debug_aranges
                0x00000000000008c8       0x20 c:/programmes/fpga/nios2eds/bin/gnu/h-x86_64-mingw32/bin/../lib/gcc/nios2-elf/5.3.0/../../../../../H-x86_64-mingw32/nios2-elf/lib\libc.a(lib_a-mallocr.o)
 .debug_aranges
                0x00000000000008e8       0x20 c:/programmes/fpga/nios2eds/bin/gnu/h-x86_64-mingw32/bin/../lib/gcc/nios2-elf/5.3.0/../../../../../H-x86_64-mingw32/nios2-elf/lib\libc.a(lib_a-memset.o)
 .debug_aranges
                0x0000000000000908       0x20 c:/programmes/fpga/nios2eds/bin/gnu/h-x86_64-mingw32/bin/../lib/gcc/nios2-elf/5.3.0/../../../../../H-x86_64-mingw32/nios2-elf/lib\libc.a(lib_a-sbrkr.o)
 .debug_aranges
                0x0000000000000928       0x40 c:/programmes/fpga/nios2eds/bin/gnu/h-x86_64-mingw32/bin/../lib/gcc/nios2-elf/5.3.0/../../../../../H-x86_64-mingw32/nios2-elf/lib\libc.a(lib_a-stdio.o)
 .debug_aranges
                0x0000000000000968       0x20 c:/programmes/fpga/nios2eds/bin/gnu/h-x86_64-mingw32/bin/../lib/gcc/nios2-elf/5.3.0/../../../../../H-x86_64-mingw32/nios2-elf/lib\libc.a(lib_a-writer.o)
 .debug_aranges
                0x0000000000000988       0x20 c:/programmes/fpga/nios2eds/bin/gnu/h-x86_64-mingw32/bin/../lib/gcc/nios2-elf/5.3.0/../../../../../H-x86_64-mingw32/nios2-elf/lib\libc.a(closer.o)
 .debug_aranges
                0x00000000000009a8       0x28 c:/programmes/fpga/nios2eds/bin/gnu/h-x86_64-mingw32/bin/../lib/gcc/nios2-elf/5.3.0/../../../../../H-x86_64-mingw32/nios2-elf/lib\libc.a(lib_a-fclose.o)
 .debug_aranges
                0x00000000000009d0       0x20 c:/programmes/fpga/nios2eds/bin/gnu/h-x86_64-mingw32/bin/../lib/gcc/nios2-elf/5.3.0/../../../../../H-x86_64-mingw32/nios2-elf/lib\libc.a(lib_a-fstatr.o)
 .debug_aranges
                0x00000000000009f0       0x20 c:/programmes/fpga/nios2eds/bin/gnu/h-x86_64-mingw32/bin/../lib/gcc/nios2-elf/5.3.0/../../../../../H-x86_64-mingw32/nios2-elf/lib\libc.a(lib_a-isattyr.o)
 .debug_aranges
                0x0000000000000a10       0x20 c:/programmes/fpga/nios2eds/bin/gnu/h-x86_64-mingw32/bin/../lib/gcc/nios2-elf/5.3.0/../../../../../H-x86_64-mingw32/nios2-elf/lib\libc.a(lib_a-lseekr.o)
 .debug_aranges
                0x0000000000000a30       0x20 c:/programmes/fpga/nios2eds/bin/gnu/h-x86_64-mingw32/bin/../lib/gcc/nios2-elf/5.3.0/../../../../../H-x86_64-mingw32/nios2-elf/lib\libc.a(lib_a-readr.o)
 .debug_aranges
                0x0000000000000a50       0x20 C:/Users/smail/Desktop/College/MA2/Real_Time_Embedded_Systems/final_projectCCC/sw/nios/project_bsp/\libhal_bsp.a(alt_exit.o)
 .debug_aranges
                0x0000000000000a70       0x20 C:/Users/smail/Desktop/College/MA2/Real_Time_Embedded_Systems/final_projectCCC/sw/nios/project_bsp/\libhal_bsp.a(alt_fstat.o)
 .debug_aranges
                0x0000000000000a90       0x20 C:/Users/smail/Desktop/College/MA2/Real_Time_Embedded_Systems/final_projectCCC/sw/nios/project_bsp/\libhal_bsp.a(alt_isatty.o)
 .debug_aranges
                0x0000000000000ab0       0x20 C:/Users/smail/Desktop/College/MA2/Real_Time_Embedded_Systems/final_projectCCC/sw/nios/project_bsp/\libhal_bsp.a(alt_lseek.o)
 .debug_aranges
                0x0000000000000ad0       0x20 C:/Users/smail/Desktop/College/MA2/Real_Time_Embedded_Systems/final_projectCCC/sw/nios/project_bsp/\libhal_bsp.a(alt_malloc_lock.o)
 .debug_aranges
                0x0000000000000af0       0x20 C:/Users/smail/Desktop/College/MA2/Real_Time_Embedded_Systems/final_projectCCC/sw/nios/project_bsp/\libhal_bsp.a(alt_read.o)
 .debug_aranges
                0x0000000000000b10       0x20 C:/Users/smail/Desktop/College/MA2/Real_Time_Embedded_Systems/final_projectCCC/sw/nios/project_bsp/\libhal_bsp.a(alt_sbrk.o)
 .debug_aranges
                0x0000000000000b30       0x20 C:/Users/smail/Desktop/College/MA2/Real_Time_Embedded_Systems/final_projectCCC/sw/nios/project_bsp/\libhal_bsp.a(alt_write.o)

.debug_pubnames
 *(.debug_pubnames)

.debug_info     0x0000000000000000    0x190c5
 *(.debug_info .gnu.linkonce.wi.*)
 .debug_info    0x0000000000000000       0x97 C:/Users/smail/Desktop/College/MA2/Real_Time_Embedded_Systems/final_projectCCC/sw/nios/project_bsp//obj/HAL/src/crt0.o
 .debug_info    0x0000000000000097      0x79b obj/default/hello_world.o
 .debug_info    0x0000000000000832      0x2c6 c:/programmes/fpga/nios2eds/bin/gnu/h-x86_64-mingw32/bin/../lib/gcc/nios2-elf/5.3.0\libgcc.a(lib2-divmod.o)
 .debug_info    0x0000000000000af8      0x2b7 c:/programmes/fpga/nios2eds/bin/gnu/h-x86_64-mingw32/bin/../lib/gcc/nios2-elf/5.3.0\libgcc.a(addsf3.o)
 .debug_info    0x0000000000000daf      0x1d5 c:/programmes/fpga/nios2eds/bin/gnu/h-x86_64-mingw32/bin/../lib/gcc/nios2-elf/5.3.0\libgcc.a(lesf2.o)
 .debug_info    0x0000000000000f84      0x1bb c:/programmes/fpga/nios2eds/bin/gnu/h-x86_64-mingw32/bin/../lib/gcc/nios2-elf/5.3.0\libgcc.a(floatunsisf.o)
 .debug_info    0x000000000000113f      0x124 c:/programmes/fpga/nios2eds/bin/gnu/h-x86_64-mingw32/bin/../lib/gcc/nios2-elf/5.3.0\libgcc.a(_clzsi2.o)
 .debug_info    0x0000000000001263       0xb2 c:/programmes/fpga/nios2eds/bin/gnu/h-x86_64-mingw32/bin/../lib/gcc/nios2-elf/5.3.0\libgcc.a(_clz.o)
 .debug_info    0x0000000000001315      0x91a c:/programmes/fpga/nios2eds/bin/gnu/h-x86_64-mingw32/bin/../lib/gcc/nios2-elf/5.3.0/../../../../../H-x86_64-mingw32/nios2-elf/lib\libc.a(lib_a-clock.o)
 .debug_info    0x0000000000001c2f      0x8a1 c:/programmes/fpga/nios2eds/bin/gnu/h-x86_64-mingw32/bin/../lib/gcc/nios2-elf/5.3.0/../../../../../H-x86_64-mingw32/nios2-elf/lib\libc.a(lib_a-impure.o)
 .debug_info    0x00000000000024d0      0x921 c:/programmes/fpga/nios2eds/bin/gnu/h-x86_64-mingw32/bin/../lib/gcc/nios2-elf/5.3.0/../../../../../H-x86_64-mingw32/nios2-elf/lib\libc.a(lib_a-timesr.o)
 .debug_info    0x0000000000002df1      0x350 C:/Users/smail/Desktop/College/MA2/Real_Time_Embedded_Systems/final_projectCCC/sw/nios/project_bsp/\libhal_bsp.a(alt_iic.o)
 .debug_info    0x0000000000003141      0x1ef C:/Users/smail/Desktop/College/MA2/Real_Time_Embedded_Systems/final_projectCCC/sw/nios/project_bsp/\libhal_bsp.a(alt_iic_isr_register.o)
 .debug_info    0x0000000000003330       0xa0 C:/Users/smail/Desktop/College/MA2/Real_Time_Embedded_Systems/final_projectCCC/sw/nios/project_bsp/\libhal_bsp.a(alt_irq_entry.o)
 .debug_info    0x00000000000033d0      0x187 C:/Users/smail/Desktop/College/MA2/Real_Time_Embedded_Systems/final_projectCCC/sw/nios/project_bsp/\libhal_bsp.a(alt_irq_handler.o)
 .debug_info    0x0000000000003557       0x88 C:/Users/smail/Desktop/College/MA2/Real_Time_Embedded_Systems/final_projectCCC/sw/nios/project_bsp/\libhal_bsp.a(alt_irq_vars.o)
 .debug_info    0x00000000000035df      0x145 C:/Users/smail/Desktop/College/MA2/Real_Time_Embedded_Systems/final_projectCCC/sw/nios/project_bsp/\libhal_bsp.a(alt_load.o)
 .debug_info    0x0000000000003724      0x131 C:/Users/smail/Desktop/College/MA2/Real_Time_Embedded_Systems/final_projectCCC/sw/nios/project_bsp/\libhal_bsp.a(alt_main.o)
 .debug_info    0x0000000000003855      0x119 C:/Users/smail/Desktop/College/MA2/Real_Time_Embedded_Systems/final_projectCCC/sw/nios/project_bsp/\libhal_bsp.a(alt_printf.o)
 .debug_info    0x000000000000396e      0x8a6 C:/Users/smail/Desktop/College/MA2/Real_Time_Embedded_Systems/final_projectCCC/sw/nios/project_bsp/\libhal_bsp.a(alt_putchar.o)
 .debug_info    0x0000000000004214      0x19d C:/Users/smail/Desktop/College/MA2/Real_Time_Embedded_Systems/final_projectCCC/sw/nios/project_bsp/\libhal_bsp.a(alt_times.o)
 .debug_info    0x00000000000043b1      0x5fc C:/Users/smail/Desktop/College/MA2/Real_Time_Embedded_Systems/final_projectCCC/sw/nios/project_bsp/\libhal_bsp.a(alt_sys_init.o)
 .debug_info    0x00000000000049ad      0x52e C:/Users/smail/Desktop/College/MA2/Real_Time_Embedded_Systems/final_projectCCC/sw/nios/project_bsp/\libhal_bsp.a(altera_avalon_jtag_uart_fd.o)
 .debug_info    0x0000000000004edb      0x3a0 C:/Users/smail/Desktop/College/MA2/Real_Time_Embedded_Systems/final_projectCCC/sw/nios/project_bsp/\libhal_bsp.a(altera_avalon_jtag_uart_init.o)
 .debug_info    0x000000000000527b      0x280 C:/Users/smail/Desktop/College/MA2/Real_Time_Embedded_Systems/final_projectCCC/sw/nios/project_bsp/\libhal_bsp.a(altera_avalon_jtag_uart_ioctl.o)
 .debug_info    0x00000000000054fb      0x345 C:/Users/smail/Desktop/College/MA2/Real_Time_Embedded_Systems/final_projectCCC/sw/nios/project_bsp/\libhal_bsp.a(altera_avalon_jtag_uart_read.o)
 .debug_info    0x0000000000005840      0x340 C:/Users/smail/Desktop/College/MA2/Real_Time_Embedded_Systems/final_projectCCC/sw/nios/project_bsp/\libhal_bsp.a(altera_avalon_jtag_uart_write.o)
 .debug_info    0x0000000000005b80      0x226 C:/Users/smail/Desktop/College/MA2/Real_Time_Embedded_Systems/final_projectCCC/sw/nios/project_bsp/\libhal_bsp.a(altera_avalon_timer_sc.o)
 .debug_info    0x0000000000005da6      0x796 C:/Users/smail/Desktop/College/MA2/Real_Time_Embedded_Systems/final_projectCCC/sw/nios/project_bsp/\libhal_bsp.a(altera_up_avalon_audio.o)
 .debug_info    0x000000000000653c      0x765 C:/Users/smail/Desktop/College/MA2/Real_Time_Embedded_Systems/final_projectCCC/sw/nios/project_bsp/\libhal_bsp.a(altera_up_avalon_audio_and_video_config.o)
 .debug_info    0x0000000000006ca1      0x2cc C:/Users/smail/Desktop/College/MA2/Real_Time_Embedded_Systems/final_projectCCC/sw/nios/project_bsp/\libhal_bsp.a(alt_alarm_start.o)
 .debug_info    0x0000000000006f6d      0x321 C:/Users/smail/Desktop/College/MA2/Real_Time_Embedded_Systems/final_projectCCC/sw/nios/project_bsp/\libhal_bsp.a(alt_close.o)
 .debug_info    0x000000000000728e       0xa5 C:/Users/smail/Desktop/College/MA2/Real_Time_Embedded_Systems/final_projectCCC/sw/nios/project_bsp/\libhal_bsp.a(alt_dcache_flush_all.o)
 .debug_info    0x0000000000007333      0x49c C:/Users/smail/Desktop/College/MA2/Real_Time_Embedded_Systems/final_projectCCC/sw/nios/project_bsp/\libhal_bsp.a(alt_dev.o)
 .debug_info    0x00000000000077cf      0x1a9 C:/Users/smail/Desktop/College/MA2/Real_Time_Embedded_Systems/final_projectCCC/sw/nios/project_bsp/\libhal_bsp.a(alt_dev_llist_insert.o)
 .debug_info    0x0000000000007978       0x83 C:/Users/smail/Desktop/College/MA2/Real_Time_Embedded_Systems/final_projectCCC/sw/nios/project_bsp/\libhal_bsp.a(alt_do_ctors.o)
 .debug_info    0x00000000000079fb       0x83 C:/Users/smail/Desktop/College/MA2/Real_Time_Embedded_Systems/final_projectCCC/sw/nios/project_bsp/\libhal_bsp.a(alt_do_dtors.o)
 .debug_info    0x0000000000007a7e       0xa6 C:/Users/smail/Desktop/College/MA2/Real_Time_Embedded_Systems/final_projectCCC/sw/nios/project_bsp/\libhal_bsp.a(alt_errno.o)
 .debug_info    0x0000000000007b24       0xa6 C:/Users/smail/Desktop/College/MA2/Real_Time_Embedded_Systems/final_projectCCC/sw/nios/project_bsp/\libhal_bsp.a(alt_exception_entry.o)
 .debug_info    0x0000000000007bca      0x2e9 C:/Users/smail/Desktop/College/MA2/Real_Time_Embedded_Systems/final_projectCCC/sw/nios/project_bsp/\libhal_bsp.a(alt_find_dev.o)
 .debug_info    0x0000000000007eb3       0x92 C:/Users/smail/Desktop/College/MA2/Real_Time_Embedded_Systems/final_projectCCC/sw/nios/project_bsp/\libhal_bsp.a(alt_icache_flush_all.o)
 .debug_info    0x0000000000007f45      0x1e7 C:/Users/smail/Desktop/College/MA2/Real_Time_Embedded_Systems/final_projectCCC/sw/nios/project_bsp/\libhal_bsp.a(alt_instruction_exception_entry.o)
 .debug_info    0x000000000000812c      0x4a5 C:/Users/smail/Desktop/College/MA2/Real_Time_Embedded_Systems/final_projectCCC/sw/nios/project_bsp/\libhal_bsp.a(alt_io_redirect.o)
 .debug_info    0x00000000000085d1      0x3bb C:/Users/smail/Desktop/College/MA2/Real_Time_Embedded_Systems/final_projectCCC/sw/nios/project_bsp/\libhal_bsp.a(alt_open.o)
 .debug_info    0x000000000000898c      0x2b0 C:/Users/smail/Desktop/College/MA2/Real_Time_Embedded_Systems/final_projectCCC/sw/nios/project_bsp/\libhal_bsp.a(alt_release_fd.o)
 .debug_info    0x0000000000008c3c      0x299 C:/Users/smail/Desktop/College/MA2/Real_Time_Embedded_Systems/final_projectCCC/sw/nios/project_bsp/\libhal_bsp.a(alt_tick.o)
 .debug_info    0x0000000000008ed5       0x92 C:/Users/smail/Desktop/College/MA2/Real_Time_Embedded_Systems/final_projectCCC/sw/nios/project_bsp/\libhal_bsp.a(altera_nios2_gen2_irq.o)
 .debug_info    0x0000000000008f67      0x2e6 C:/Users/smail/Desktop/College/MA2/Real_Time_Embedded_Systems/final_projectCCC/sw/nios/project_bsp/\libhal_bsp.a(alt_find_file.o)
 .debug_info    0x000000000000924d      0x310 C:/Users/smail/Desktop/College/MA2/Real_Time_Embedded_Systems/final_projectCCC/sw/nios/project_bsp/\libhal_bsp.a(alt_get_fd.o)
 .debug_info    0x000000000000955d       0xdc C:/Users/smail/Desktop/College/MA2/Real_Time_Embedded_Systems/final_projectCCC/sw/nios/project_bsp/\libhal_bsp.a(alt_icache_flush.o)
 .debug_info    0x0000000000009639       0xfe c:/programmes/fpga/nios2eds/bin/gnu/h-x86_64-mingw32/bin/../lib/gcc/nios2-elf/5.3.0/../../../../../H-x86_64-mingw32/nios2-elf/lib\libc.a(lib_a-atexit.o)
 .debug_info    0x0000000000009737      0x8e4 c:/programmes/fpga/nios2eds/bin/gnu/h-x86_64-mingw32/bin/../lib/gcc/nios2-elf/5.3.0/../../../../../H-x86_64-mingw32/nios2-elf/lib\libc.a(lib_a-exit.o)
 .debug_info    0x000000000000a01b       0x8a c:/programmes/fpga/nios2eds/bin/gnu/h-x86_64-mingw32/bin/../lib/gcc/nios2-elf/5.3.0/../../../../../H-x86_64-mingw32/nios2-elf/lib\libc.a(lib_a-int_errno.o)
 .debug_info    0x000000000000a0a5      0x11a c:/programmes/fpga/nios2eds/bin/gnu/h-x86_64-mingw32/bin/../lib/gcc/nios2-elf/5.3.0/../../../../../H-x86_64-mingw32/nios2-elf/lib\libc.a(lib_a-memcmp.o)
 .debug_info    0x000000000000a1bf      0x144 c:/programmes/fpga/nios2eds/bin/gnu/h-x86_64-mingw32/bin/../lib/gcc/nios2-elf/5.3.0/../../../../../H-x86_64-mingw32/nios2-elf/lib\libc.a(lib_a-memcpy.o)
 .debug_info    0x000000000000a303      0x9b4 c:/programmes/fpga/nios2eds/bin/gnu/h-x86_64-mingw32/bin/../lib/gcc/nios2-elf/5.3.0/../../../../../H-x86_64-mingw32/nios2-elf/lib\libc.a(lib_a-putc.o)
 .debug_info    0x000000000000acb7       0xe2 c:/programmes/fpga/nios2eds/bin/gnu/h-x86_64-mingw32/bin/../lib/gcc/nios2-elf/5.3.0/../../../../../H-x86_64-mingw32/nios2-elf/lib\libc.a(lib_a-strlen.o)
 .debug_info    0x000000000000ad99      0x9be c:/programmes/fpga/nios2eds/bin/gnu/h-x86_64-mingw32/bin/../lib/gcc/nios2-elf/5.3.0/../../../../../H-x86_64-mingw32/nios2-elf/lib\libc.a(lib_a-wbuf.o)
 .debug_info    0x000000000000b757      0x936 c:/programmes/fpga/nios2eds/bin/gnu/h-x86_64-mingw32/bin/../lib/gcc/nios2-elf/5.3.0/../../../../../H-x86_64-mingw32/nios2-elf/lib\libc.a(lib_a-wsetup.o)
 .debug_info    0x000000000000c08d      0x934 c:/programmes/fpga/nios2eds/bin/gnu/h-x86_64-mingw32/bin/../lib/gcc/nios2-elf/5.3.0/../../../../../H-x86_64-mingw32/nios2-elf/lib\libc.a(lib_a-__atexit.o)
 .debug_info    0x000000000000c9c1      0x965 c:/programmes/fpga/nios2eds/bin/gnu/h-x86_64-mingw32/bin/../lib/gcc/nios2-elf/5.3.0/../../../../../H-x86_64-mingw32/nios2-elf/lib\libc.a(lib_a-__call_atexit.o)
 .debug_info    0x000000000000d326      0xa93 c:/programmes/fpga/nios2eds/bin/gnu/h-x86_64-mingw32/bin/../lib/gcc/nios2-elf/5.3.0/../../../../../H-x86_64-mingw32/nios2-elf/lib\libc.a(lib_a-fflush.o)
 .debug_info    0x000000000000ddb9      0xd37 c:/programmes/fpga/nios2eds/bin/gnu/h-x86_64-mingw32/bin/../lib/gcc/nios2-elf/5.3.0/../../../../../H-x86_64-mingw32/nios2-elf/lib\libc.a(lib_a-findfp.o)
 .debug_info    0x000000000000eaf0      0xbf7 c:/programmes/fpga/nios2eds/bin/gnu/h-x86_64-mingw32/bin/../lib/gcc/nios2-elf/5.3.0/../../../../../H-x86_64-mingw32/nios2-elf/lib\libc.a(lib_a-freer.o)
 .debug_info    0x000000000000f6e7      0x9b0 c:/programmes/fpga/nios2eds/bin/gnu/h-x86_64-mingw32/bin/../lib/gcc/nios2-elf/5.3.0/../../../../../H-x86_64-mingw32/nios2-elf/lib\libc.a(lib_a-fwalk.o)
 .debug_info    0x0000000000010097      0xad8 c:/programmes/fpga/nios2eds/bin/gnu/h-x86_64-mingw32/bin/../lib/gcc/nios2-elf/5.3.0/../../../../../H-x86_64-mingw32/nios2-elf/lib\libc.a(lib_a-makebuf.o)
 .debug_info    0x0000000000010b6f      0xd57 c:/programmes/fpga/nios2eds/bin/gnu/h-x86_64-mingw32/bin/../lib/gcc/nios2-elf/5.3.0/../../../../../H-x86_64-mingw32/nios2-elf/lib\libc.a(lib_a-mallocr.o)
 .debug_info    0x00000000000118c6      0x121 c:/programmes/fpga/nios2eds/bin/gnu/h-x86_64-mingw32/bin/../lib/gcc/nios2-elf/5.3.0/../../../../../H-x86_64-mingw32/nios2-elf/lib\libc.a(lib_a-memset.o)
 .debug_info    0x00000000000119e7      0x900 c:/programmes/fpga/nios2eds/bin/gnu/h-x86_64-mingw32/bin/../lib/gcc/nios2-elf/5.3.0/../../../../../H-x86_64-mingw32/nios2-elf/lib\libc.a(lib_a-sbrkr.o)
 .debug_info    0x00000000000122e7      0xb32 c:/programmes/fpga/nios2eds/bin/gnu/h-x86_64-mingw32/bin/../lib/gcc/nios2-elf/5.3.0/../../../../../H-x86_64-mingw32/nios2-elf/lib\libc.a(lib_a-stdio.o)
 .debug_info    0x0000000000012e19      0x928 c:/programmes/fpga/nios2eds/bin/gnu/h-x86_64-mingw32/bin/../lib/gcc/nios2-elf/5.3.0/../../../../../H-x86_64-mingw32/nios2-elf/lib\libc.a(lib_a-writer.o)
 .debug_info    0x0000000000013741      0x8df c:/programmes/fpga/nios2eds/bin/gnu/h-x86_64-mingw32/bin/../lib/gcc/nios2-elf/5.3.0/../../../../../H-x86_64-mingw32/nios2-elf/lib\libc.a(closer.o)
 .debug_info    0x0000000000014020      0xa23 c:/programmes/fpga/nios2eds/bin/gnu/h-x86_64-mingw32/bin/../lib/gcc/nios2-elf/5.3.0/../../../../../H-x86_64-mingw32/nios2-elf/lib\libc.a(lib_a-fclose.o)
 .debug_info    0x0000000000014a43      0xa5d c:/programmes/fpga/nios2eds/bin/gnu/h-x86_64-mingw32/bin/../lib/gcc/nios2-elf/5.3.0/../../../../../H-x86_64-mingw32/nios2-elf/lib\libc.a(lib_a-fstatr.o)
 .debug_info    0x00000000000154a0      0x8df c:/programmes/fpga/nios2eds/bin/gnu/h-x86_64-mingw32/bin/../lib/gcc/nios2-elf/5.3.0/../../../../../H-x86_64-mingw32/nios2-elf/lib\libc.a(lib_a-isattyr.o)
 .debug_info    0x0000000000015d7f      0x90b c:/programmes/fpga/nios2eds/bin/gnu/h-x86_64-mingw32/bin/../lib/gcc/nios2-elf/5.3.0/../../../../../H-x86_64-mingw32/nios2-elf/lib\libc.a(lib_a-lseekr.o)
 .debug_info    0x000000000001668a      0x921 c:/programmes/fpga/nios2eds/bin/gnu/h-x86_64-mingw32/bin/../lib/gcc/nios2-elf/5.3.0/../../../../../H-x86_64-mingw32/nios2-elf/lib\libc.a(lib_a-readr.o)
 .debug_info    0x0000000000016fab       0xec C:/Users/smail/Desktop/College/MA2/Real_Time_Embedded_Systems/final_projectCCC/sw/nios/project_bsp/\libhal_bsp.a(alt_exit.o)
 .debug_info    0x0000000000017097      0x488 C:/Users/smail/Desktop/College/MA2/Real_Time_Embedded_Systems/final_projectCCC/sw/nios/project_bsp/\libhal_bsp.a(alt_fstat.o)
 .debug_info    0x000000000001751f      0x48b C:/Users/smail/Desktop/College/MA2/Real_Time_Embedded_Systems/final_projectCCC/sw/nios/project_bsp/\libhal_bsp.a(alt_isatty.o)
 .debug_info    0x00000000000179aa      0x352 C:/Users/smail/Desktop/College/MA2/Real_Time_Embedded_Systems/final_projectCCC/sw/nios/project_bsp/\libhal_bsp.a(alt_lseek.o)
 .debug_info    0x0000000000017cfc      0x8b6 C:/Users/smail/Desktop/College/MA2/Real_Time_Embedded_Systems/final_projectCCC/sw/nios/project_bsp/\libhal_bsp.a(alt_malloc_lock.o)
 .debug_info    0x00000000000185b2      0x4b0 C:/Users/smail/Desktop/College/MA2/Real_Time_Embedded_Systems/final_projectCCC/sw/nios/project_bsp/\libhal_bsp.a(alt_read.o)
 .debug_info    0x0000000000018a62      0x1ac C:/Users/smail/Desktop/College/MA2/Real_Time_Embedded_Systems/final_projectCCC/sw/nios/project_bsp/\libhal_bsp.a(alt_sbrk.o)
 .debug_info    0x0000000000018c0e      0x4b7 C:/Users/smail/Desktop/College/MA2/Real_Time_Embedded_Systems/final_projectCCC/sw/nios/project_bsp/\libhal_bsp.a(alt_write.o)

.debug_abbrev   0x0000000000000000     0x6cad
 *(.debug_abbrev)
 .debug_abbrev  0x0000000000000000       0x12 C:/Users/smail/Desktop/College/MA2/Real_Time_Embedded_Systems/final_projectCCC/sw/nios/project_bsp//obj/HAL/src/crt0.o
 .debug_abbrev  0x0000000000000012      0x16c obj/default/hello_world.o
 .debug_abbrev  0x000000000000017e      0x10e c:/programmes/fpga/nios2eds/bin/gnu/h-x86_64-mingw32/bin/../lib/gcc/nios2-elf/5.3.0\libgcc.a(lib2-divmod.o)
 .debug_abbrev  0x000000000000028c      0x13c c:/programmes/fpga/nios2eds/bin/gnu/h-x86_64-mingw32/bin/../lib/gcc/nios2-elf/5.3.0\libgcc.a(addsf3.o)
 .debug_abbrev  0x00000000000003c8      0x128 c:/programmes/fpga/nios2eds/bin/gnu/h-x86_64-mingw32/bin/../lib/gcc/nios2-elf/5.3.0\libgcc.a(lesf2.o)
 .debug_abbrev  0x00000000000004f0      0x147 c:/programmes/fpga/nios2eds/bin/gnu/h-x86_64-mingw32/bin/../lib/gcc/nios2-elf/5.3.0\libgcc.a(floatunsisf.o)
 .debug_abbrev  0x0000000000000637       0xbe c:/programmes/fpga/nios2eds/bin/gnu/h-x86_64-mingw32/bin/../lib/gcc/nios2-elf/5.3.0\libgcc.a(_clzsi2.o)
 .debug_abbrev  0x00000000000006f5       0x5d c:/programmes/fpga/nios2eds/bin/gnu/h-x86_64-mingw32/bin/../lib/gcc/nios2-elf/5.3.0\libgcc.a(_clz.o)
 .debug_abbrev  0x0000000000000752      0x1f5 c:/programmes/fpga/nios2eds/bin/gnu/h-x86_64-mingw32/bin/../lib/gcc/nios2-elf/5.3.0/../../../../../H-x86_64-mingw32/nios2-elf/lib\libc.a(lib_a-clock.o)
 .debug_abbrev  0x0000000000000947      0x18f c:/programmes/fpga/nios2eds/bin/gnu/h-x86_64-mingw32/bin/../lib/gcc/nios2-elf/5.3.0/../../../../../H-x86_64-mingw32/nios2-elf/lib\libc.a(lib_a-impure.o)
 .debug_abbrev  0x0000000000000ad6      0x1f4 c:/programmes/fpga/nios2eds/bin/gnu/h-x86_64-mingw32/bin/../lib/gcc/nios2-elf/5.3.0/../../../../../H-x86_64-mingw32/nios2-elf/lib\libc.a(lib_a-timesr.o)
 .debug_abbrev  0x0000000000000cca      0x163 C:/Users/smail/Desktop/College/MA2/Real_Time_Embedded_Systems/final_projectCCC/sw/nios/project_bsp/\libhal_bsp.a(alt_iic.o)
 .debug_abbrev  0x0000000000000e2d      0x169 C:/Users/smail/Desktop/College/MA2/Real_Time_Embedded_Systems/final_projectCCC/sw/nios/project_bsp/\libhal_bsp.a(alt_iic_isr_register.o)
 .debug_abbrev  0x0000000000000f96       0x12 C:/Users/smail/Desktop/College/MA2/Real_Time_Embedded_Systems/final_projectCCC/sw/nios/project_bsp/\libhal_bsp.a(alt_irq_entry.o)
 .debug_abbrev  0x0000000000000fa8      0x122 C:/Users/smail/Desktop/College/MA2/Real_Time_Embedded_Systems/final_projectCCC/sw/nios/project_bsp/\libhal_bsp.a(alt_irq_handler.o)
 .debug_abbrev  0x00000000000010ca       0x40 C:/Users/smail/Desktop/College/MA2/Real_Time_Embedded_Systems/final_projectCCC/sw/nios/project_bsp/\libhal_bsp.a(alt_irq_vars.o)
 .debug_abbrev  0x000000000000110a       0x9f C:/Users/smail/Desktop/College/MA2/Real_Time_Embedded_Systems/final_projectCCC/sw/nios/project_bsp/\libhal_bsp.a(alt_load.o)
 .debug_abbrev  0x00000000000011a9       0xba C:/Users/smail/Desktop/College/MA2/Real_Time_Embedded_Systems/final_projectCCC/sw/nios/project_bsp/\libhal_bsp.a(alt_main.o)
 .debug_abbrev  0x0000000000001263       0xb0 C:/Users/smail/Desktop/College/MA2/Real_Time_Embedded_Systems/final_projectCCC/sw/nios/project_bsp/\libhal_bsp.a(alt_printf.o)
 .debug_abbrev  0x0000000000001313      0x1af C:/Users/smail/Desktop/College/MA2/Real_Time_Embedded_Systems/final_projectCCC/sw/nios/project_bsp/\libhal_bsp.a(alt_putchar.o)
 .debug_abbrev  0x00000000000014c2       0xf1 C:/Users/smail/Desktop/College/MA2/Real_Time_Embedded_Systems/final_projectCCC/sw/nios/project_bsp/\libhal_bsp.a(alt_times.o)
 .debug_abbrev  0x00000000000015b3      0x19f C:/Users/smail/Desktop/College/MA2/Real_Time_Embedded_Systems/final_projectCCC/sw/nios/project_bsp/\libhal_bsp.a(alt_sys_init.o)
 .debug_abbrev  0x0000000000001752      0x127 C:/Users/smail/Desktop/College/MA2/Real_Time_Embedded_Systems/final_projectCCC/sw/nios/project_bsp/\libhal_bsp.a(altera_avalon_jtag_uart_fd.o)
 .debug_abbrev  0x0000000000001879      0x19e C:/Users/smail/Desktop/College/MA2/Real_Time_Embedded_Systems/final_projectCCC/sw/nios/project_bsp/\libhal_bsp.a(altera_avalon_jtag_uart_init.o)
 .debug_abbrev  0x0000000000001a17      0x111 C:/Users/smail/Desktop/College/MA2/Real_Time_Embedded_Systems/final_projectCCC/sw/nios/project_bsp/\libhal_bsp.a(altera_avalon_jtag_uart_ioctl.o)
 .debug_abbrev  0x0000000000001b28      0x1aa C:/Users/smail/Desktop/College/MA2/Real_Time_Embedded_Systems/final_projectCCC/sw/nios/project_bsp/\libhal_bsp.a(altera_avalon_jtag_uart_read.o)
 .debug_abbrev  0x0000000000001cd2      0x1a8 C:/Users/smail/Desktop/College/MA2/Real_Time_Embedded_Systems/final_projectCCC/sw/nios/project_bsp/\libhal_bsp.a(altera_avalon_jtag_uart_write.o)
 .debug_abbrev  0x0000000000001e7a      0x155 C:/Users/smail/Desktop/College/MA2/Real_Time_Embedded_Systems/final_projectCCC/sw/nios/project_bsp/\libhal_bsp.a(altera_avalon_timer_sc.o)
 .debug_abbrev  0x0000000000001fcf      0x15e C:/Users/smail/Desktop/College/MA2/Real_Time_Embedded_Systems/final_projectCCC/sw/nios/project_bsp/\libhal_bsp.a(altera_up_avalon_audio.o)
 .debug_abbrev  0x000000000000212d      0x124 C:/Users/smail/Desktop/College/MA2/Real_Time_Embedded_Systems/final_projectCCC/sw/nios/project_bsp/\libhal_bsp.a(altera_up_avalon_audio_and_video_config.o)
 .debug_abbrev  0x0000000000002251      0x162 C:/Users/smail/Desktop/College/MA2/Real_Time_Embedded_Systems/final_projectCCC/sw/nios/project_bsp/\libhal_bsp.a(alt_alarm_start.o)
 .debug_abbrev  0x00000000000023b3      0x11f C:/Users/smail/Desktop/College/MA2/Real_Time_Embedded_Systems/final_projectCCC/sw/nios/project_bsp/\libhal_bsp.a(alt_close.o)
 .debug_abbrev  0x00000000000024d2       0x5a C:/Users/smail/Desktop/College/MA2/Real_Time_Embedded_Systems/final_projectCCC/sw/nios/project_bsp/\libhal_bsp.a(alt_dcache_flush_all.o)
 .debug_abbrev  0x000000000000252c       0xd9 C:/Users/smail/Desktop/College/MA2/Real_Time_Embedded_Systems/final_projectCCC/sw/nios/project_bsp/\libhal_bsp.a(alt_dev.o)
 .debug_abbrev  0x0000000000002605      0x114 C:/Users/smail/Desktop/College/MA2/Real_Time_Embedded_Systems/final_projectCCC/sw/nios/project_bsp/\libhal_bsp.a(alt_dev_llist_insert.o)
 .debug_abbrev  0x0000000000002719       0x79 C:/Users/smail/Desktop/College/MA2/Real_Time_Embedded_Systems/final_projectCCC/sw/nios/project_bsp/\libhal_bsp.a(alt_do_ctors.o)
 .debug_abbrev  0x0000000000002792       0x79 C:/Users/smail/Desktop/College/MA2/Real_Time_Embedded_Systems/final_projectCCC/sw/nios/project_bsp/\libhal_bsp.a(alt_do_dtors.o)
 .debug_abbrev  0x000000000000280b       0x5a C:/Users/smail/Desktop/College/MA2/Real_Time_Embedded_Systems/final_projectCCC/sw/nios/project_bsp/\libhal_bsp.a(alt_errno.o)
 .debug_abbrev  0x0000000000002865       0x12 C:/Users/smail/Desktop/College/MA2/Real_Time_Embedded_Systems/final_projectCCC/sw/nios/project_bsp/\libhal_bsp.a(alt_exception_entry.o)
 .debug_abbrev  0x0000000000002877       0xf0 C:/Users/smail/Desktop/College/MA2/Real_Time_Embedded_Systems/final_projectCCC/sw/nios/project_bsp/\libhal_bsp.a(alt_find_dev.o)
 .debug_abbrev  0x0000000000002967       0x42 C:/Users/smail/Desktop/College/MA2/Real_Time_Embedded_Systems/final_projectCCC/sw/nios/project_bsp/\libhal_bsp.a(alt_icache_flush_all.o)
 .debug_abbrev  0x00000000000029a9       0xdc C:/Users/smail/Desktop/College/MA2/Real_Time_Embedded_Systems/final_projectCCC/sw/nios/project_bsp/\libhal_bsp.a(alt_instruction_exception_entry.o)
 .debug_abbrev  0x0000000000002a85      0x114 C:/Users/smail/Desktop/College/MA2/Real_Time_Embedded_Systems/final_projectCCC/sw/nios/project_bsp/\libhal_bsp.a(alt_io_redirect.o)
 .debug_abbrev  0x0000000000002b99      0x148 C:/Users/smail/Desktop/College/MA2/Real_Time_Embedded_Systems/final_projectCCC/sw/nios/project_bsp/\libhal_bsp.a(alt_open.o)
 .debug_abbrev  0x0000000000002ce1       0xde C:/Users/smail/Desktop/College/MA2/Real_Time_Embedded_Systems/final_projectCCC/sw/nios/project_bsp/\libhal_bsp.a(alt_release_fd.o)
 .debug_abbrev  0x0000000000002dbf      0x15a C:/Users/smail/Desktop/College/MA2/Real_Time_Embedded_Systems/final_projectCCC/sw/nios/project_bsp/\libhal_bsp.a(alt_tick.o)
 .debug_abbrev  0x0000000000002f19       0x42 C:/Users/smail/Desktop/College/MA2/Real_Time_Embedded_Systems/final_projectCCC/sw/nios/project_bsp/\libhal_bsp.a(altera_nios2_gen2_irq.o)
 .debug_abbrev  0x0000000000002f5b       0xf0 C:/Users/smail/Desktop/College/MA2/Real_Time_Embedded_Systems/final_projectCCC/sw/nios/project_bsp/\libhal_bsp.a(alt_find_file.o)
 .debug_abbrev  0x000000000000304b      0x10d C:/Users/smail/Desktop/College/MA2/Real_Time_Embedded_Systems/final_projectCCC/sw/nios/project_bsp/\libhal_bsp.a(alt_get_fd.o)
 .debug_abbrev  0x0000000000003158       0x8c C:/Users/smail/Desktop/College/MA2/Real_Time_Embedded_Systems/final_projectCCC/sw/nios/project_bsp/\libhal_bsp.a(alt_icache_flush.o)
 .debug_abbrev  0x00000000000031e4       0xaa c:/programmes/fpga/nios2eds/bin/gnu/h-x86_64-mingw32/bin/../lib/gcc/nios2-elf/5.3.0/../../../../../H-x86_64-mingw32/nios2-elf/lib\libc.a(lib_a-atexit.o)
 .debug_abbrev  0x000000000000328e      0x1e5 c:/programmes/fpga/nios2eds/bin/gnu/h-x86_64-mingw32/bin/../lib/gcc/nios2-elf/5.3.0/../../../../../H-x86_64-mingw32/nios2-elf/lib\libc.a(lib_a-exit.o)
 .debug_abbrev  0x0000000000003473       0x37 c:/programmes/fpga/nios2eds/bin/gnu/h-x86_64-mingw32/bin/../lib/gcc/nios2-elf/5.3.0/../../../../../H-x86_64-mingw32/nios2-elf/lib\libc.a(lib_a-int_errno.o)
 .debug_abbrev  0x00000000000034aa       0x7f c:/programmes/fpga/nios2eds/bin/gnu/h-x86_64-mingw32/bin/../lib/gcc/nios2-elf/5.3.0/../../../../../H-x86_64-mingw32/nios2-elf/lib\libc.a(lib_a-memcmp.o)
 .debug_abbrev  0x0000000000003529       0xa3 c:/programmes/fpga/nios2eds/bin/gnu/h-x86_64-mingw32/bin/../lib/gcc/nios2-elf/5.3.0/../../../../../H-x86_64-mingw32/nios2-elf/lib\libc.a(lib_a-memcpy.o)
 .debug_abbrev  0x00000000000035cc      0x243 c:/programmes/fpga/nios2eds/bin/gnu/h-x86_64-mingw32/bin/../lib/gcc/nios2-elf/5.3.0/../../../../../H-x86_64-mingw32/nios2-elf/lib\libc.a(lib_a-putc.o)
 .debug_abbrev  0x000000000000380f       0x90 c:/programmes/fpga/nios2eds/bin/gnu/h-x86_64-mingw32/bin/../lib/gcc/nios2-elf/5.3.0/../../../../../H-x86_64-mingw32/nios2-elf/lib\libc.a(lib_a-strlen.o)
 .debug_abbrev  0x000000000000389f      0x251 c:/programmes/fpga/nios2eds/bin/gnu/h-x86_64-mingw32/bin/../lib/gcc/nios2-elf/5.3.0/../../../../../H-x86_64-mingw32/nios2-elf/lib\libc.a(lib_a-wbuf.o)
 .debug_abbrev  0x0000000000003af0      0x218 c:/programmes/fpga/nios2eds/bin/gnu/h-x86_64-mingw32/bin/../lib/gcc/nios2-elf/5.3.0/../../../../../H-x86_64-mingw32/nios2-elf/lib\libc.a(lib_a-wsetup.o)
 .debug_abbrev  0x0000000000003d08      0x21e c:/programmes/fpga/nios2eds/bin/gnu/h-x86_64-mingw32/bin/../lib/gcc/nios2-elf/5.3.0/../../../../../H-x86_64-mingw32/nios2-elf/lib\libc.a(lib_a-__atexit.o)
 .debug_abbrev  0x0000000000003f26      0x22e c:/programmes/fpga/nios2eds/bin/gnu/h-x86_64-mingw32/bin/../lib/gcc/nios2-elf/5.3.0/../../../../../H-x86_64-mingw32/nios2-elf/lib\libc.a(lib_a-__call_atexit.o)
 .debug_abbrev  0x0000000000004154      0x2a0 c:/programmes/fpga/nios2eds/bin/gnu/h-x86_64-mingw32/bin/../lib/gcc/nios2-elf/5.3.0/../../../../../H-x86_64-mingw32/nios2-elf/lib\libc.a(lib_a-fflush.o)
 .debug_abbrev  0x00000000000043f4      0x391 c:/programmes/fpga/nios2eds/bin/gnu/h-x86_64-mingw32/bin/../lib/gcc/nios2-elf/5.3.0/../../../../../H-x86_64-mingw32/nios2-elf/lib\libc.a(lib_a-findfp.o)
 .debug_abbrev  0x0000000000004785      0x264 c:/programmes/fpga/nios2eds/bin/gnu/h-x86_64-mingw32/bin/../lib/gcc/nios2-elf/5.3.0/../../../../../H-x86_64-mingw32/nios2-elf/lib\libc.a(lib_a-freer.o)
 .debug_abbrev  0x00000000000049e9      0x1d1 c:/programmes/fpga/nios2eds/bin/gnu/h-x86_64-mingw32/bin/../lib/gcc/nios2-elf/5.3.0/../../../../../H-x86_64-mingw32/nios2-elf/lib\libc.a(lib_a-fwalk.o)
 .debug_abbrev  0x0000000000004bba      0x20f c:/programmes/fpga/nios2eds/bin/gnu/h-x86_64-mingw32/bin/../lib/gcc/nios2-elf/5.3.0/../../../../../H-x86_64-mingw32/nios2-elf/lib\libc.a(lib_a-makebuf.o)
 .debug_abbrev  0x0000000000004dc9      0x29d c:/programmes/fpga/nios2eds/bin/gnu/h-x86_64-mingw32/bin/../lib/gcc/nios2-elf/5.3.0/../../../../../H-x86_64-mingw32/nios2-elf/lib\libc.a(lib_a-mallocr.o)
 .debug_abbrev  0x0000000000005066       0xae c:/programmes/fpga/nios2eds/bin/gnu/h-x86_64-mingw32/bin/../lib/gcc/nios2-elf/5.3.0/../../../../../H-x86_64-mingw32/nios2-elf/lib\libc.a(lib_a-memset.o)
 .debug_abbrev  0x0000000000005114      0x20a c:/programmes/fpga/nios2eds/bin/gnu/h-x86_64-mingw32/bin/../lib/gcc/nios2-elf/5.3.0/../../../../../H-x86_64-mingw32/nios2-elf/lib\libc.a(lib_a-sbrkr.o)
 .debug_abbrev  0x000000000000531e      0x239 c:/programmes/fpga/nios2eds/bin/gnu/h-x86_64-mingw32/bin/../lib/gcc/nios2-elf/5.3.0/../../../../../H-x86_64-mingw32/nios2-elf/lib\libc.a(lib_a-stdio.o)
 .debug_abbrev  0x0000000000005557      0x1eb c:/programmes/fpga/nios2eds/bin/gnu/h-x86_64-mingw32/bin/../lib/gcc/nios2-elf/5.3.0/../../../../../H-x86_64-mingw32/nios2-elf/lib\libc.a(lib_a-writer.o)
 .debug_abbrev  0x0000000000005742      0x1e6 c:/programmes/fpga/nios2eds/bin/gnu/h-x86_64-mingw32/bin/../lib/gcc/nios2-elf/5.3.0/../../../../../H-x86_64-mingw32/nios2-elf/lib\libc.a(closer.o)
 .debug_abbrev  0x0000000000005928      0x2a2 c:/programmes/fpga/nios2eds/bin/gnu/h-x86_64-mingw32/bin/../lib/gcc/nios2-elf/5.3.0/../../../../../H-x86_64-mingw32/nios2-elf/lib\libc.a(lib_a-fclose.o)
 .debug_abbrev  0x0000000000005bca      0x1f5 c:/programmes/fpga/nios2eds/bin/gnu/h-x86_64-mingw32/bin/../lib/gcc/nios2-elf/5.3.0/../../../../../H-x86_64-mingw32/nios2-elf/lib\libc.a(lib_a-fstatr.o)
 .debug_abbrev  0x0000000000005dbf      0x1e6 c:/programmes/fpga/nios2eds/bin/gnu/h-x86_64-mingw32/bin/../lib/gcc/nios2-elf/5.3.0/../../../../../H-x86_64-mingw32/nios2-elf/lib\libc.a(lib_a-isattyr.o)
 .debug_abbrev  0x0000000000005fa5      0x1f5 c:/programmes/fpga/nios2eds/bin/gnu/h-x86_64-mingw32/bin/../lib/gcc/nios2-elf/5.3.0/../../../../../H-x86_64-mingw32/nios2-elf/lib\libc.a(lib_a-lseekr.o)
 .debug_abbrev  0x000000000000619a      0x1e6 c:/programmes/fpga/nios2eds/bin/gnu/h-x86_64-mingw32/bin/../lib/gcc/nios2-elf/5.3.0/../../../../../H-x86_64-mingw32/nios2-elf/lib\libc.a(lib_a-readr.o)
 .debug_abbrev  0x0000000000006380       0xa9 C:/Users/smail/Desktop/College/MA2/Real_Time_Embedded_Systems/final_projectCCC/sw/nios/project_bsp/\libhal_bsp.a(alt_exit.o)
 .debug_abbrev  0x0000000000006429      0x11f C:/Users/smail/Desktop/College/MA2/Real_Time_Embedded_Systems/final_projectCCC/sw/nios/project_bsp/\libhal_bsp.a(alt_fstat.o)
 .debug_abbrev  0x0000000000006548      0x11f C:/Users/smail/Desktop/College/MA2/Real_Time_Embedded_Systems/final_projectCCC/sw/nios/project_bsp/\libhal_bsp.a(alt_isatty.o)
 .debug_abbrev  0x0000000000006667      0x11f C:/Users/smail/Desktop/College/MA2/Real_Time_Embedded_Systems/final_projectCCC/sw/nios/project_bsp/\libhal_bsp.a(alt_lseek.o)
 .debug_abbrev  0x0000000000006786      0x1b4 C:/Users/smail/Desktop/College/MA2/Real_Time_Embedded_Systems/final_projectCCC/sw/nios/project_bsp/\libhal_bsp.a(alt_malloc_lock.o)
 .debug_abbrev  0x000000000000693a      0x12e C:/Users/smail/Desktop/College/MA2/Real_Time_Embedded_Systems/final_projectCCC/sw/nios/project_bsp/\libhal_bsp.a(alt_read.o)
 .debug_abbrev  0x0000000000006a68      0x112 C:/Users/smail/Desktop/College/MA2/Real_Time_Embedded_Systems/final_projectCCC/sw/nios/project_bsp/\libhal_bsp.a(alt_sbrk.o)
 .debug_abbrev  0x0000000000006b7a      0x133 C:/Users/smail/Desktop/College/MA2/Real_Time_Embedded_Systems/final_projectCCC/sw/nios/project_bsp/\libhal_bsp.a(alt_write.o)

.debug_line     0x0000000000000000     0x7650
 *(.debug_line)
 .debug_line    0x0000000000000000       0x72 C:/Users/smail/Desktop/College/MA2/Real_Time_Embedded_Systems/final_projectCCC/sw/nios/project_bsp//obj/HAL/src/crt0.o
 .debug_line    0x0000000000000072      0x43a obj/default/hello_world.o
 .debug_line    0x00000000000004ac      0x102 c:/programmes/fpga/nios2eds/bin/gnu/h-x86_64-mingw32/bin/../lib/gcc/nios2-elf/5.3.0\libgcc.a(lib2-divmod.o)
 .debug_line    0x00000000000005ae      0x287 c:/programmes/fpga/nios2eds/bin/gnu/h-x86_64-mingw32/bin/../lib/gcc/nios2-elf/5.3.0\libgcc.a(addsf3.o)
 .debug_line    0x0000000000000835       0xcc c:/programmes/fpga/nios2eds/bin/gnu/h-x86_64-mingw32/bin/../lib/gcc/nios2-elf/5.3.0\libgcc.a(lesf2.o)
 .debug_line    0x0000000000000901       0xa6 c:/programmes/fpga/nios2eds/bin/gnu/h-x86_64-mingw32/bin/../lib/gcc/nios2-elf/5.3.0\libgcc.a(floatunsisf.o)
 .debug_line    0x00000000000009a7       0xb7 c:/programmes/fpga/nios2eds/bin/gnu/h-x86_64-mingw32/bin/../lib/gcc/nios2-elf/5.3.0\libgcc.a(_clzsi2.o)
 .debug_line    0x0000000000000a5e       0x53 c:/programmes/fpga/nios2eds/bin/gnu/h-x86_64-mingw32/bin/../lib/gcc/nios2-elf/5.3.0\libgcc.a(_clz.o)
 .debug_line    0x0000000000000ab1      0x1fd c:/programmes/fpga/nios2eds/bin/gnu/h-x86_64-mingw32/bin/../lib/gcc/nios2-elf/5.3.0/../../../../../H-x86_64-mingw32/nios2-elf/lib\libc.a(lib_a-clock.o)
 .debug_line    0x0000000000000cae      0x15d c:/programmes/fpga/nios2eds/bin/gnu/h-x86_64-mingw32/bin/../lib/gcc/nios2-elf/5.3.0/../../../../../H-x86_64-mingw32/nios2-elf/lib\libc.a(lib_a-impure.o)
 .debug_line    0x0000000000000e0b      0x1f0 c:/programmes/fpga/nios2eds/bin/gnu/h-x86_64-mingw32/bin/../lib/gcc/nios2-elf/5.3.0/../../../../../H-x86_64-mingw32/nios2-elf/lib\libc.a(lib_a-timesr.o)
 .debug_line    0x0000000000000ffb       0xeb C:/Users/smail/Desktop/College/MA2/Real_Time_Embedded_Systems/final_projectCCC/sw/nios/project_bsp/\libhal_bsp.a(alt_iic.o)
 .debug_line    0x00000000000010e6       0xdb C:/Users/smail/Desktop/College/MA2/Real_Time_Embedded_Systems/final_projectCCC/sw/nios/project_bsp/\libhal_bsp.a(alt_iic_isr_register.o)
 .debug_line    0x00000000000011c1       0x6b C:/Users/smail/Desktop/College/MA2/Real_Time_Embedded_Systems/final_projectCCC/sw/nios/project_bsp/\libhal_bsp.a(alt_irq_entry.o)
 .debug_line    0x000000000000122c       0xaa C:/Users/smail/Desktop/College/MA2/Real_Time_Embedded_Systems/final_projectCCC/sw/nios/project_bsp/\libhal_bsp.a(alt_irq_handler.o)
 .debug_line    0x00000000000012d6       0x50 C:/Users/smail/Desktop/College/MA2/Real_Time_Embedded_Systems/final_projectCCC/sw/nios/project_bsp/\libhal_bsp.a(alt_irq_vars.o)
 .debug_line    0x0000000000001326       0x8e C:/Users/smail/Desktop/College/MA2/Real_Time_Embedded_Systems/final_projectCCC/sw/nios/project_bsp/\libhal_bsp.a(alt_load.o)
 .debug_line    0x00000000000013b4       0xa4 C:/Users/smail/Desktop/College/MA2/Real_Time_Embedded_Systems/final_projectCCC/sw/nios/project_bsp/\libhal_bsp.a(alt_main.o)
 .debug_line    0x0000000000001458       0xeb C:/Users/smail/Desktop/College/MA2/Real_Time_Embedded_Systems/final_projectCCC/sw/nios/project_bsp/\libhal_bsp.a(alt_printf.o)
 .debug_line    0x0000000000001543      0x118 C:/Users/smail/Desktop/College/MA2/Real_Time_Embedded_Systems/final_projectCCC/sw/nios/project_bsp/\libhal_bsp.a(alt_putchar.o)
 .debug_line    0x000000000000165b      0x132 C:/Users/smail/Desktop/College/MA2/Real_Time_Embedded_Systems/final_projectCCC/sw/nios/project_bsp/\libhal_bsp.a(alt_times.o)
 .debug_line    0x000000000000178d      0x1b8 C:/Users/smail/Desktop/College/MA2/Real_Time_Embedded_Systems/final_projectCCC/sw/nios/project_bsp/\libhal_bsp.a(alt_sys_init.o)
 .debug_line    0x0000000000001945      0x12f C:/Users/smail/Desktop/College/MA2/Real_Time_Embedded_Systems/final_projectCCC/sw/nios/project_bsp/\libhal_bsp.a(altera_avalon_jtag_uart_fd.o)
 .debug_line    0x0000000000001a74      0x18b C:/Users/smail/Desktop/College/MA2/Real_Time_Embedded_Systems/final_projectCCC/sw/nios/project_bsp/\libhal_bsp.a(altera_avalon_jtag_uart_init.o)
 .debug_line    0x0000000000001bff      0x131 C:/Users/smail/Desktop/College/MA2/Real_Time_Embedded_Systems/final_projectCCC/sw/nios/project_bsp/\libhal_bsp.a(altera_avalon_jtag_uart_ioctl.o)
 .debug_line    0x0000000000001d30      0x171 C:/Users/smail/Desktop/College/MA2/Real_Time_Embedded_Systems/final_projectCCC/sw/nios/project_bsp/\libhal_bsp.a(altera_avalon_jtag_uart_read.o)
 .debug_line    0x0000000000001ea1      0x170 C:/Users/smail/Desktop/College/MA2/Real_Time_Embedded_Systems/final_projectCCC/sw/nios/project_bsp/\libhal_bsp.a(altera_avalon_jtag_uart_write.o)
 .debug_line    0x0000000000002011       0xfd C:/Users/smail/Desktop/College/MA2/Real_Time_Embedded_Systems/final_projectCCC/sw/nios/project_bsp/\libhal_bsp.a(altera_avalon_timer_sc.o)
 .debug_line    0x000000000000210e      0x1e4 C:/Users/smail/Desktop/College/MA2/Real_Time_Embedded_Systems/final_projectCCC/sw/nios/project_bsp/\libhal_bsp.a(altera_up_avalon_audio.o)
 .debug_line    0x00000000000022f2      0x1cc C:/Users/smail/Desktop/College/MA2/Real_Time_Embedded_Systems/final_projectCCC/sw/nios/project_bsp/\libhal_bsp.a(altera_up_avalon_audio_and_video_config.o)
 .debug_line    0x00000000000024be       0xf9 C:/Users/smail/Desktop/College/MA2/Real_Time_Embedded_Systems/final_projectCCC/sw/nios/project_bsp/\libhal_bsp.a(alt_alarm_start.o)
 .debug_line    0x00000000000025b7      0x161 C:/Users/smail/Desktop/College/MA2/Real_Time_Embedded_Systems/final_projectCCC/sw/nios/project_bsp/\libhal_bsp.a(alt_close.o)
 .debug_line    0x0000000000002718       0x61 C:/Users/smail/Desktop/College/MA2/Real_Time_Embedded_Systems/final_projectCCC/sw/nios/project_bsp/\libhal_bsp.a(alt_dcache_flush_all.o)
 .debug_line    0x0000000000002779       0xf4 C:/Users/smail/Desktop/College/MA2/Real_Time_Embedded_Systems/final_projectCCC/sw/nios/project_bsp/\libhal_bsp.a(alt_dev.o)
 .debug_line    0x000000000000286d       0xcf C:/Users/smail/Desktop/College/MA2/Real_Time_Embedded_Systems/final_projectCCC/sw/nios/project_bsp/\libhal_bsp.a(alt_dev_llist_insert.o)
 .debug_line    0x000000000000293c       0x59 C:/Users/smail/Desktop/College/MA2/Real_Time_Embedded_Systems/final_projectCCC/sw/nios/project_bsp/\libhal_bsp.a(alt_do_ctors.o)
 .debug_line    0x0000000000002995       0x59 C:/Users/smail/Desktop/College/MA2/Real_Time_Embedded_Systems/final_projectCCC/sw/nios/project_bsp/\libhal_bsp.a(alt_do_dtors.o)
 .debug_line    0x00000000000029ee       0x51 C:/Users/smail/Desktop/College/MA2/Real_Time_Embedded_Systems/final_projectCCC/sw/nios/project_bsp/\libhal_bsp.a(alt_errno.o)
 .debug_line    0x0000000000002a3f       0xb3 C:/Users/smail/Desktop/College/MA2/Real_Time_Embedded_Systems/final_projectCCC/sw/nios/project_bsp/\libhal_bsp.a(alt_exception_entry.o)
 .debug_line    0x0000000000002af2       0xb5 C:/Users/smail/Desktop/College/MA2/Real_Time_Embedded_Systems/final_projectCCC/sw/nios/project_bsp/\libhal_bsp.a(alt_find_dev.o)
 .debug_line    0x0000000000002ba7       0x50 C:/Users/smail/Desktop/College/MA2/Real_Time_Embedded_Systems/final_projectCCC/sw/nios/project_bsp/\libhal_bsp.a(alt_icache_flush_all.o)
 .debug_line    0x0000000000002bf7       0xba C:/Users/smail/Desktop/College/MA2/Real_Time_Embedded_Systems/final_projectCCC/sw/nios/project_bsp/\libhal_bsp.a(alt_instruction_exception_entry.o)
 .debug_line    0x0000000000002cb1      0x12f C:/Users/smail/Desktop/College/MA2/Real_Time_Embedded_Systems/final_projectCCC/sw/nios/project_bsp/\libhal_bsp.a(alt_io_redirect.o)
 .debug_line    0x0000000000002de0      0x128 C:/Users/smail/Desktop/College/MA2/Real_Time_Embedded_Systems/final_projectCCC/sw/nios/project_bsp/\libhal_bsp.a(alt_open.o)
 .debug_line    0x0000000000002f08       0xae C:/Users/smail/Desktop/College/MA2/Real_Time_Embedded_Systems/final_projectCCC/sw/nios/project_bsp/\libhal_bsp.a(alt_release_fd.o)
 .debug_line    0x0000000000002fb6       0xff C:/Users/smail/Desktop/College/MA2/Real_Time_Embedded_Systems/final_projectCCC/sw/nios/project_bsp/\libhal_bsp.a(alt_tick.o)
 .debug_line    0x00000000000030b5       0x51 C:/Users/smail/Desktop/College/MA2/Real_Time_Embedded_Systems/final_projectCCC/sw/nios/project_bsp/\libhal_bsp.a(altera_nios2_gen2_irq.o)
 .debug_line    0x0000000000003106       0xd1 C:/Users/smail/Desktop/College/MA2/Real_Time_Embedded_Systems/final_projectCCC/sw/nios/project_bsp/\libhal_bsp.a(alt_find_file.o)
 .debug_line    0x00000000000031d7       0xd4 C:/Users/smail/Desktop/College/MA2/Real_Time_Embedded_Systems/final_projectCCC/sw/nios/project_bsp/\libhal_bsp.a(alt_get_fd.o)
 .debug_line    0x00000000000032ab       0x81 C:/Users/smail/Desktop/College/MA2/Real_Time_Embedded_Systems/final_projectCCC/sw/nios/project_bsp/\libhal_bsp.a(alt_icache_flush.o)
 .debug_line    0x000000000000332c       0xe4 c:/programmes/fpga/nios2eds/bin/gnu/h-x86_64-mingw32/bin/../lib/gcc/nios2-elf/5.3.0/../../../../../H-x86_64-mingw32/nios2-elf/lib\libc.a(lib_a-atexit.o)
 .debug_line    0x0000000000003410      0x1f9 c:/programmes/fpga/nios2eds/bin/gnu/h-x86_64-mingw32/bin/../lib/gcc/nios2-elf/5.3.0/../../../../../H-x86_64-mingw32/nios2-elf/lib\libc.a(lib_a-exit.o)
 .debug_line    0x0000000000003609       0x5c c:/programmes/fpga/nios2eds/bin/gnu/h-x86_64-mingw32/bin/../lib/gcc/nios2-elf/5.3.0/../../../../../H-x86_64-mingw32/nios2-elf/lib\libc.a(lib_a-int_errno.o)
 .debug_line    0x0000000000003665      0x173 c:/programmes/fpga/nios2eds/bin/gnu/h-x86_64-mingw32/bin/../lib/gcc/nios2-elf/5.3.0/../../../../../H-x86_64-mingw32/nios2-elf/lib\libc.a(lib_a-memcmp.o)
 .debug_line    0x00000000000037d8      0x189 c:/programmes/fpga/nios2eds/bin/gnu/h-x86_64-mingw32/bin/../lib/gcc/nios2-elf/5.3.0/../../../../../H-x86_64-mingw32/nios2-elf/lib\libc.a(lib_a-memcpy.o)
 .debug_line    0x0000000000003961      0x272 c:/programmes/fpga/nios2eds/bin/gnu/h-x86_64-mingw32/bin/../lib/gcc/nios2-elf/5.3.0/../../../../../H-x86_64-mingw32/nios2-elf/lib\libc.a(lib_a-putc.o)
 .debug_line    0x0000000000003bd3      0x16c c:/programmes/fpga/nios2eds/bin/gnu/h-x86_64-mingw32/bin/../lib/gcc/nios2-elf/5.3.0/../../../../../H-x86_64-mingw32/nios2-elf/lib\libc.a(lib_a-strlen.o)
 .debug_line    0x0000000000003d3f      0x26e c:/programmes/fpga/nios2eds/bin/gnu/h-x86_64-mingw32/bin/../lib/gcc/nios2-elf/5.3.0/../../../../../H-x86_64-mingw32/nios2-elf/lib\libc.a(lib_a-wbuf.o)
 .debug_line    0x0000000000003fad      0x263 c:/programmes/fpga/nios2eds/bin/gnu/h-x86_64-mingw32/bin/../lib/gcc/nios2-elf/5.3.0/../../../../../H-x86_64-mingw32/nios2-elf/lib\libc.a(lib_a-wsetup.o)
 .debug_line    0x0000000000004210      0x21c c:/programmes/fpga/nios2eds/bin/gnu/h-x86_64-mingw32/bin/../lib/gcc/nios2-elf/5.3.0/../../../../../H-x86_64-mingw32/nios2-elf/lib\libc.a(lib_a-__atexit.o)
 .debug_line    0x000000000000442c      0x237 c:/programmes/fpga/nios2eds/bin/gnu/h-x86_64-mingw32/bin/../lib/gcc/nios2-elf/5.3.0/../../../../../H-x86_64-mingw32/nios2-elf/lib\libc.a(lib_a-__call_atexit.o)
 .debug_line    0x0000000000004663      0x2e7 c:/programmes/fpga/nios2eds/bin/gnu/h-x86_64-mingw32/bin/../lib/gcc/nios2-elf/5.3.0/../../../../../H-x86_64-mingw32/nios2-elf/lib\libc.a(lib_a-fflush.o)
 .debug_line    0x000000000000494a      0x36f c:/programmes/fpga/nios2eds/bin/gnu/h-x86_64-mingw32/bin/../lib/gcc/nios2-elf/5.3.0/../../../../../H-x86_64-mingw32/nios2-elf/lib\libc.a(lib_a-findfp.o)
 .debug_line    0x0000000000004cb9      0x2f4 c:/programmes/fpga/nios2eds/bin/gnu/h-x86_64-mingw32/bin/../lib/gcc/nios2-elf/5.3.0/../../../../../H-x86_64-mingw32/nios2-elf/lib\libc.a(lib_a-freer.o)
 .debug_line    0x0000000000004fad      0x237 c:/programmes/fpga/nios2eds/bin/gnu/h-x86_64-mingw32/bin/../lib/gcc/nios2-elf/5.3.0/../../../../../H-x86_64-mingw32/nios2-elf/lib\libc.a(lib_a-fwalk.o)
 .debug_line    0x00000000000051e4      0x271 c:/programmes/fpga/nios2eds/bin/gnu/h-x86_64-mingw32/bin/../lib/gcc/nios2-elf/5.3.0/../../../../../H-x86_64-mingw32/nios2-elf/lib\libc.a(lib_a-makebuf.o)
 .debug_line    0x0000000000005455      0x3f9 c:/programmes/fpga/nios2eds/bin/gnu/h-x86_64-mingw32/bin/../lib/gcc/nios2-elf/5.3.0/../../../../../H-x86_64-mingw32/nios2-elf/lib\libc.a(lib_a-mallocr.o)
 .debug_line    0x000000000000584e      0x18c c:/programmes/fpga/nios2eds/bin/gnu/h-x86_64-mingw32/bin/../lib/gcc/nios2-elf/5.3.0/../../../../../H-x86_64-mingw32/nios2-elf/lib\libc.a(lib_a-memset.o)
 .debug_line    0x00000000000059da      0x1e6 c:/programmes/fpga/nios2eds/bin/gnu/h-x86_64-mingw32/bin/../lib/gcc/nios2-elf/5.3.0/../../../../../H-x86_64-mingw32/nios2-elf/lib\libc.a(lib_a-sbrkr.o)
 .debug_line    0x0000000000005bc0      0x267 c:/programmes/fpga/nios2eds/bin/gnu/h-x86_64-mingw32/bin/../lib/gcc/nios2-elf/5.3.0/../../../../../H-x86_64-mingw32/nios2-elf/lib\libc.a(lib_a-stdio.o)
 .debug_line    0x0000000000005e27      0x1f3 c:/programmes/fpga/nios2eds/bin/gnu/h-x86_64-mingw32/bin/../lib/gcc/nios2-elf/5.3.0/../../../../../H-x86_64-mingw32/nios2-elf/lib\libc.a(lib_a-writer.o)
 .debug_line    0x000000000000601a      0x1f3 c:/programmes/fpga/nios2eds/bin/gnu/h-x86_64-mingw32/bin/../lib/gcc/nios2-elf/5.3.0/../../../../../H-x86_64-mingw32/nios2-elf/lib\libc.a(closer.o)
 .debug_line    0x000000000000620d      0x236 c:/programmes/fpga/nios2eds/bin/gnu/h-x86_64-mingw32/bin/../lib/gcc/nios2-elf/5.3.0/../../../../../H-x86_64-mingw32/nios2-elf/lib\libc.a(lib_a-fclose.o)
 .debug_line    0x0000000000006443      0x1fc c:/programmes/fpga/nios2eds/bin/gnu/h-x86_64-mingw32/bin/../lib/gcc/nios2-elf/5.3.0/../../../../../H-x86_64-mingw32/nios2-elf/lib\libc.a(lib_a-fstatr.o)
 .debug_line    0x000000000000663f      0x1f4 c:/programmes/fpga/nios2eds/bin/gnu/h-x86_64-mingw32/bin/../lib/gcc/nios2-elf/5.3.0/../../../../../H-x86_64-mingw32/nios2-elf/lib\libc.a(lib_a-isattyr.o)
 .debug_line    0x0000000000006833      0x1f3 c:/programmes/fpga/nios2eds/bin/gnu/h-x86_64-mingw32/bin/../lib/gcc/nios2-elf/5.3.0/../../../../../H-x86_64-mingw32/nios2-elf/lib\libc.a(lib_a-lseekr.o)
 .debug_line    0x0000000000006a26      0x1f2 c:/programmes/fpga/nios2eds/bin/gnu/h-x86_64-mingw32/bin/../lib/gcc/nios2-elf/5.3.0/../../../../../H-x86_64-mingw32/nios2-elf/lib\libc.a(lib_a-readr.o)
 .debug_line    0x0000000000006c18       0x71 C:/Users/smail/Desktop/College/MA2/Real_Time_Embedded_Systems/final_projectCCC/sw/nios/project_bsp/\libhal_bsp.a(alt_exit.o)
 .debug_line    0x0000000000006c89      0x15a C:/Users/smail/Desktop/College/MA2/Real_Time_Embedded_Systems/final_projectCCC/sw/nios/project_bsp/\libhal_bsp.a(alt_fstat.o)
 .debug_line    0x0000000000006de3      0x15e C:/Users/smail/Desktop/College/MA2/Real_Time_Embedded_Systems/final_projectCCC/sw/nios/project_bsp/\libhal_bsp.a(alt_isatty.o)
 .debug_line    0x0000000000006f41      0x15f C:/Users/smail/Desktop/College/MA2/Real_Time_Embedded_Systems/final_projectCCC/sw/nios/project_bsp/\libhal_bsp.a(alt_lseek.o)
 .debug_line    0x00000000000070a0      0x11a C:/Users/smail/Desktop/College/MA2/Real_Time_Embedded_Systems/final_projectCCC/sw/nios/project_bsp/\libhal_bsp.a(alt_malloc_lock.o)
 .debug_line    0x00000000000071ba      0x1d4 C:/Users/smail/Desktop/College/MA2/Real_Time_Embedded_Systems/final_projectCCC/sw/nios/project_bsp/\libhal_bsp.a(alt_read.o)
 .debug_line    0x000000000000738e       0xef C:/Users/smail/Desktop/College/MA2/Real_Time_Embedded_Systems/final_projectCCC/sw/nios/project_bsp/\libhal_bsp.a(alt_sbrk.o)
 .debug_line    0x000000000000747d      0x1d3 C:/Users/smail/Desktop/College/MA2/Real_Time_Embedded_Systems/final_projectCCC/sw/nios/project_bsp/\libhal_bsp.a(alt_write.o)

.debug_frame    0x0000000000000000     0x1ce4
 *(.debug_frame)
 .debug_frame   0x0000000000000000      0x118 obj/default/hello_world.o
 .debug_frame   0x0000000000000118       0x50 c:/programmes/fpga/nios2eds/bin/gnu/h-x86_64-mingw32/bin/../lib/gcc/nios2-elf/5.3.0\libgcc.a(lib2-divmod.o)
 .debug_frame   0x0000000000000168       0x3c c:/programmes/fpga/nios2eds/bin/gnu/h-x86_64-mingw32/bin/../lib/gcc/nios2-elf/5.3.0\libgcc.a(addsf3.o)
 .debug_frame   0x00000000000001a4       0x20 c:/programmes/fpga/nios2eds/bin/gnu/h-x86_64-mingw32/bin/../lib/gcc/nios2-elf/5.3.0\libgcc.a(lesf2.o)
 .debug_frame   0x00000000000001c4       0x34 c:/programmes/fpga/nios2eds/bin/gnu/h-x86_64-mingw32/bin/../lib/gcc/nios2-elf/5.3.0\libgcc.a(floatunsisf.o)
 .debug_frame   0x00000000000001f8       0x20 c:/programmes/fpga/nios2eds/bin/gnu/h-x86_64-mingw32/bin/../lib/gcc/nios2-elf/5.3.0\libgcc.a(_clzsi2.o)
 .debug_frame   0x0000000000000218       0x2c c:/programmes/fpga/nios2eds/bin/gnu/h-x86_64-mingw32/bin/../lib/gcc/nios2-elf/5.3.0/../../../../../H-x86_64-mingw32/nios2-elf/lib\libc.a(lib_a-clock.o)
 .debug_frame   0x0000000000000244       0x20 c:/programmes/fpga/nios2eds/bin/gnu/h-x86_64-mingw32/bin/../lib/gcc/nios2-elf/5.3.0/../../../../../H-x86_64-mingw32/nios2-elf/lib\libc.a(lib_a-timesr.o)
 .debug_frame   0x0000000000000264       0xa4 C:/Users/smail/Desktop/College/MA2/Real_Time_Embedded_Systems/final_projectCCC/sw/nios/project_bsp/\libhal_bsp.a(alt_iic.o)
 .debug_frame   0x0000000000000308       0x38 C:/Users/smail/Desktop/College/MA2/Real_Time_Embedded_Systems/final_projectCCC/sw/nios/project_bsp/\libhal_bsp.a(alt_iic_isr_register.o)
 .debug_frame   0x0000000000000340       0x38 C:/Users/smail/Desktop/College/MA2/Real_Time_Embedded_Systems/final_projectCCC/sw/nios/project_bsp/\libhal_bsp.a(alt_irq_handler.o)
 .debug_frame   0x0000000000000378       0x5c C:/Users/smail/Desktop/College/MA2/Real_Time_Embedded_Systems/final_projectCCC/sw/nios/project_bsp/\libhal_bsp.a(alt_load.o)
 .debug_frame   0x00000000000003d4       0x2c C:/Users/smail/Desktop/College/MA2/Real_Time_Embedded_Systems/final_projectCCC/sw/nios/project_bsp/\libhal_bsp.a(alt_main.o)
 .debug_frame   0x0000000000000400       0x38 C:/Users/smail/Desktop/College/MA2/Real_Time_Embedded_Systems/final_projectCCC/sw/nios/project_bsp/\libhal_bsp.a(alt_printf.o)
 .debug_frame   0x0000000000000438       0x38 C:/Users/smail/Desktop/College/MA2/Real_Time_Embedded_Systems/final_projectCCC/sw/nios/project_bsp/\libhal_bsp.a(alt_putchar.o)
 .debug_frame   0x0000000000000470       0x60 C:/Users/smail/Desktop/College/MA2/Real_Time_Embedded_Systems/final_projectCCC/sw/nios/project_bsp/\libhal_bsp.a(alt_times.o)
 .debug_frame   0x00000000000004d0       0x88 C:/Users/smail/Desktop/College/MA2/Real_Time_Embedded_Systems/final_projectCCC/sw/nios/project_bsp/\libhal_bsp.a(alt_sys_init.o)
 .debug_frame   0x0000000000000558       0xb0 C:/Users/smail/Desktop/College/MA2/Real_Time_Embedded_Systems/final_projectCCC/sw/nios/project_bsp/\libhal_bsp.a(altera_avalon_jtag_uart_fd.o)
 .debug_frame   0x0000000000000608       0xa4 C:/Users/smail/Desktop/College/MA2/Real_Time_Embedded_Systems/final_projectCCC/sw/nios/project_bsp/\libhal_bsp.a(altera_avalon_jtag_uart_init.o)
 .debug_frame   0x00000000000006ac       0x34 C:/Users/smail/Desktop/College/MA2/Real_Time_Embedded_Systems/final_projectCCC/sw/nios/project_bsp/\libhal_bsp.a(altera_avalon_jtag_uart_ioctl.o)
 .debug_frame   0x00000000000006e0       0x38 C:/Users/smail/Desktop/College/MA2/Real_Time_Embedded_Systems/final_projectCCC/sw/nios/project_bsp/\libhal_bsp.a(altera_avalon_jtag_uart_read.o)
 .debug_frame   0x0000000000000718       0x38 C:/Users/smail/Desktop/College/MA2/Real_Time_Embedded_Systems/final_projectCCC/sw/nios/project_bsp/\libhal_bsp.a(altera_avalon_jtag_uart_write.o)
 .debug_frame   0x0000000000000750       0x60 C:/Users/smail/Desktop/College/MA2/Real_Time_Embedded_Systems/final_projectCCC/sw/nios/project_bsp/\libhal_bsp.a(altera_avalon_timer_sc.o)
 .debug_frame   0x00000000000007b0      0x2ac C:/Users/smail/Desktop/College/MA2/Real_Time_Embedded_Systems/final_projectCCC/sw/nios/project_bsp/\libhal_bsp.a(altera_up_avalon_audio.o)
 .debug_frame   0x0000000000000a5c      0x2a0 C:/Users/smail/Desktop/College/MA2/Real_Time_Embedded_Systems/final_projectCCC/sw/nios/project_bsp/\libhal_bsp.a(altera_up_avalon_audio_and_video_config.o)
 .debug_frame   0x0000000000000cfc       0x34 C:/Users/smail/Desktop/College/MA2/Real_Time_Embedded_Systems/final_projectCCC/sw/nios/project_bsp/\libhal_bsp.a(alt_alarm_start.o)
 .debug_frame   0x0000000000000d30       0x60 C:/Users/smail/Desktop/College/MA2/Real_Time_Embedded_Systems/final_projectCCC/sw/nios/project_bsp/\libhal_bsp.a(alt_close.o)
 .debug_frame   0x0000000000000d90       0x34 C:/Users/smail/Desktop/College/MA2/Real_Time_Embedded_Systems/final_projectCCC/sw/nios/project_bsp/\libhal_bsp.a(alt_dcache_flush_all.o)
 .debug_frame   0x0000000000000dc4       0x34 C:/Users/smail/Desktop/College/MA2/Real_Time_Embedded_Systems/final_projectCCC/sw/nios/project_bsp/\libhal_bsp.a(alt_dev.o)
 .debug_frame   0x0000000000000df8       0x60 C:/Users/smail/Desktop/College/MA2/Real_Time_Embedded_Systems/final_projectCCC/sw/nios/project_bsp/\libhal_bsp.a(alt_dev_llist_insert.o)
 .debug_frame   0x0000000000000e58       0x38 C:/Users/smail/Desktop/College/MA2/Real_Time_Embedded_Systems/final_projectCCC/sw/nios/project_bsp/\libhal_bsp.a(alt_do_ctors.o)
 .debug_frame   0x0000000000000e90       0x38 C:/Users/smail/Desktop/College/MA2/Real_Time_Embedded_Systems/final_projectCCC/sw/nios/project_bsp/\libhal_bsp.a(alt_do_dtors.o)
 .debug_frame   0x0000000000000ec8       0x38 C:/Users/smail/Desktop/College/MA2/Real_Time_Embedded_Systems/final_projectCCC/sw/nios/project_bsp/\libhal_bsp.a(alt_find_dev.o)
 .debug_frame   0x0000000000000f00       0x38 C:/Users/smail/Desktop/College/MA2/Real_Time_Embedded_Systems/final_projectCCC/sw/nios/project_bsp/\libhal_bsp.a(alt_icache_flush_all.o)
 .debug_frame   0x0000000000000f38       0x5c C:/Users/smail/Desktop/College/MA2/Real_Time_Embedded_Systems/final_projectCCC/sw/nios/project_bsp/\libhal_bsp.a(alt_instruction_exception_entry.o)
 .debug_frame   0x0000000000000f94       0x60 C:/Users/smail/Desktop/College/MA2/Real_Time_Embedded_Systems/final_projectCCC/sw/nios/project_bsp/\libhal_bsp.a(alt_io_redirect.o)
 .debug_frame   0x0000000000000ff4       0x84 C:/Users/smail/Desktop/College/MA2/Real_Time_Embedded_Systems/final_projectCCC/sw/nios/project_bsp/\libhal_bsp.a(alt_open.o)
 .debug_frame   0x0000000000001078       0x34 C:/Users/smail/Desktop/College/MA2/Real_Time_Embedded_Systems/final_projectCCC/sw/nios/project_bsp/\libhal_bsp.a(alt_release_fd.o)
 .debug_frame   0x00000000000010ac       0x5c C:/Users/smail/Desktop/College/MA2/Real_Time_Embedded_Systems/final_projectCCC/sw/nios/project_bsp/\libhal_bsp.a(alt_tick.o)
 .debug_frame   0x0000000000001108       0x34 C:/Users/smail/Desktop/College/MA2/Real_Time_Embedded_Systems/final_projectCCC/sw/nios/project_bsp/\libhal_bsp.a(altera_nios2_gen2_irq.o)
 .debug_frame   0x000000000000113c       0x38 C:/Users/smail/Desktop/College/MA2/Real_Time_Embedded_Systems/final_projectCCC/sw/nios/project_bsp/\libhal_bsp.a(alt_find_file.o)
 .debug_frame   0x0000000000001174       0x34 C:/Users/smail/Desktop/College/MA2/Real_Time_Embedded_Systems/final_projectCCC/sw/nios/project_bsp/\libhal_bsp.a(alt_get_fd.o)
 .debug_frame   0x00000000000011a8       0x34 C:/Users/smail/Desktop/College/MA2/Real_Time_Embedded_Systems/final_projectCCC/sw/nios/project_bsp/\libhal_bsp.a(alt_icache_flush.o)
 .debug_frame   0x00000000000011dc       0x20 c:/programmes/fpga/nios2eds/bin/gnu/h-x86_64-mingw32/bin/../lib/gcc/nios2-elf/5.3.0/../../../../../H-x86_64-mingw32/nios2-elf/lib\libc.a(lib_a-atexit.o)
 .debug_frame   0x00000000000011fc       0x28 c:/programmes/fpga/nios2eds/bin/gnu/h-x86_64-mingw32/bin/../lib/gcc/nios2-elf/5.3.0/../../../../../H-x86_64-mingw32/nios2-elf/lib\libc.a(lib_a-exit.o)
 .debug_frame   0x0000000000001224       0x20 c:/programmes/fpga/nios2eds/bin/gnu/h-x86_64-mingw32/bin/../lib/gcc/nios2-elf/5.3.0/../../../../../H-x86_64-mingw32/nios2-elf/lib\libc.a(lib_a-memcmp.o)
 .debug_frame   0x0000000000001244       0x38 c:/programmes/fpga/nios2eds/bin/gnu/h-x86_64-mingw32/bin/../lib/gcc/nios2-elf/5.3.0/../../../../../H-x86_64-mingw32/nios2-elf/lib\libc.a(lib_a-memcpy.o)
 .debug_frame   0x000000000000127c       0x70 c:/programmes/fpga/nios2eds/bin/gnu/h-x86_64-mingw32/bin/../lib/gcc/nios2-elf/5.3.0/../../../../../H-x86_64-mingw32/nios2-elf/lib\libc.a(lib_a-putc.o)
 .debug_frame   0x00000000000012ec       0x20 c:/programmes/fpga/nios2eds/bin/gnu/h-x86_64-mingw32/bin/../lib/gcc/nios2-elf/5.3.0/../../../../../H-x86_64-mingw32/nios2-elf/lib\libc.a(lib_a-strlen.o)
 .debug_frame   0x000000000000130c       0x50 c:/programmes/fpga/nios2eds/bin/gnu/h-x86_64-mingw32/bin/../lib/gcc/nios2-elf/5.3.0/../../../../../H-x86_64-mingw32/nios2-elf/lib\libc.a(lib_a-wbuf.o)
 .debug_frame   0x000000000000135c       0x38 c:/programmes/fpga/nios2eds/bin/gnu/h-x86_64-mingw32/bin/../lib/gcc/nios2-elf/5.3.0/../../../../../H-x86_64-mingw32/nios2-elf/lib\libc.a(lib_a-wsetup.o)
 .debug_frame   0x0000000000001394       0x38 c:/programmes/fpga/nios2eds/bin/gnu/h-x86_64-mingw32/bin/../lib/gcc/nios2-elf/5.3.0/../../../../../H-x86_64-mingw32/nios2-elf/lib\libc.a(lib_a-__atexit.o)
 .debug_frame   0x00000000000013cc       0x54 c:/programmes/fpga/nios2eds/bin/gnu/h-x86_64-mingw32/bin/../lib/gcc/nios2-elf/5.3.0/../../../../../H-x86_64-mingw32/nios2-elf/lib\libc.a(lib_a-__call_atexit.o)
 .debug_frame   0x0000000000001420       0x7c c:/programmes/fpga/nios2eds/bin/gnu/h-x86_64-mingw32/bin/../lib/gcc/nios2-elf/5.3.0/../../../../../H-x86_64-mingw32/nios2-elf/lib\libc.a(lib_a-fflush.o)
 .debug_frame   0x000000000000149c      0x160 c:/programmes/fpga/nios2eds/bin/gnu/h-x86_64-mingw32/bin/../lib/gcc/nios2-elf/5.3.0/../../../../../H-x86_64-mingw32/nios2-elf/lib\libc.a(lib_a-findfp.o)
 .debug_frame   0x00000000000015fc       0x70 c:/programmes/fpga/nios2eds/bin/gnu/h-x86_64-mingw32/bin/../lib/gcc/nios2-elf/5.3.0/../../../../../H-x86_64-mingw32/nios2-elf/lib\libc.a(lib_a-freer.o)
 .debug_frame   0x000000000000166c       0x90 c:/programmes/fpga/nios2eds/bin/gnu/h-x86_64-mingw32/bin/../lib/gcc/nios2-elf/5.3.0/../../../../../H-x86_64-mingw32/nios2-elf/lib\libc.a(lib_a-fwalk.o)
 .debug_frame   0x00000000000016fc       0x4c c:/programmes/fpga/nios2eds/bin/gnu/h-x86_64-mingw32/bin/../lib/gcc/nios2-elf/5.3.0/../../../../../H-x86_64-mingw32/nios2-elf/lib\libc.a(lib_a-makebuf.o)
 .debug_frame   0x0000000000001748       0x54 c:/programmes/fpga/nios2eds/bin/gnu/h-x86_64-mingw32/bin/../lib/gcc/nios2-elf/5.3.0/../../../../../H-x86_64-mingw32/nios2-elf/lib\libc.a(lib_a-mallocr.o)
 .debug_frame   0x000000000000179c       0x20 c:/programmes/fpga/nios2eds/bin/gnu/h-x86_64-mingw32/bin/../lib/gcc/nios2-elf/5.3.0/../../../../../H-x86_64-mingw32/nios2-elf/lib\libc.a(lib_a-memset.o)
 .debug_frame   0x00000000000017bc       0x38 c:/programmes/fpga/nios2eds/bin/gnu/h-x86_64-mingw32/bin/../lib/gcc/nios2-elf/5.3.0/../../../../../H-x86_64-mingw32/nios2-elf/lib\libc.a(lib_a-sbrkr.o)
 .debug_frame   0x00000000000017f4       0xb4 c:/programmes/fpga/nios2eds/bin/gnu/h-x86_64-mingw32/bin/../lib/gcc/nios2-elf/5.3.0/../../../../../H-x86_64-mingw32/nios2-elf/lib\libc.a(lib_a-stdio.o)
 .debug_frame   0x00000000000018a8       0x38 c:/programmes/fpga/nios2eds/bin/gnu/h-x86_64-mingw32/bin/../lib/gcc/nios2-elf/5.3.0/../../../../../H-x86_64-mingw32/nios2-elf/lib\libc.a(lib_a-writer.o)
 .debug_frame   0x00000000000018e0       0x38 c:/programmes/fpga/nios2eds/bin/gnu/h-x86_64-mingw32/bin/../lib/gcc/nios2-elf/5.3.0/../../../../../H-x86_64-mingw32/nios2-elf/lib\libc.a(closer.o)
 .debug_frame   0x0000000000001918       0x54 c:/programmes/fpga/nios2eds/bin/gnu/h-x86_64-mingw32/bin/../lib/gcc/nios2-elf/5.3.0/../../../../../H-x86_64-mingw32/nios2-elf/lib\libc.a(lib_a-fclose.o)
 .debug_frame   0x000000000000196c       0x38 c:/programmes/fpga/nios2eds/bin/gnu/h-x86_64-mingw32/bin/../lib/gcc/nios2-elf/5.3.0/../../../../../H-x86_64-mingw32/nios2-elf/lib\libc.a(lib_a-fstatr.o)
 .debug_frame   0x00000000000019a4       0x38 c:/programmes/fpga/nios2eds/bin/gnu/h-x86_64-mingw32/bin/../lib/gcc/nios2-elf/5.3.0/../../../../../H-x86_64-mingw32/nios2-elf/lib\libc.a(lib_a-isattyr.o)
 .debug_frame   0x00000000000019dc       0x38 c:/programmes/fpga/nios2eds/bin/gnu/h-x86_64-mingw32/bin/../lib/gcc/nios2-elf/5.3.0/../../../../../H-x86_64-mingw32/nios2-elf/lib\libc.a(lib_a-lseekr.o)
 .debug_frame   0x0000000000001a14       0x38 c:/programmes/fpga/nios2eds/bin/gnu/h-x86_64-mingw32/bin/../lib/gcc/nios2-elf/5.3.0/../../../../../H-x86_64-mingw32/nios2-elf/lib\libc.a(lib_a-readr.o)
 .debug_frame   0x0000000000001a4c       0x2c C:/Users/smail/Desktop/College/MA2/Real_Time_Embedded_Systems/final_projectCCC/sw/nios/project_bsp/\libhal_bsp.a(alt_exit.o)
 .debug_frame   0x0000000000001a78       0x60 C:/Users/smail/Desktop/College/MA2/Real_Time_Embedded_Systems/final_projectCCC/sw/nios/project_bsp/\libhal_bsp.a(alt_fstat.o)
 .debug_frame   0x0000000000001ad8       0x60 C:/Users/smail/Desktop/College/MA2/Real_Time_Embedded_Systems/final_projectCCC/sw/nios/project_bsp/\libhal_bsp.a(alt_isatty.o)
 .debug_frame   0x0000000000001b38       0x60 C:/Users/smail/Desktop/College/MA2/Real_Time_Embedded_Systems/final_projectCCC/sw/nios/project_bsp/\libhal_bsp.a(alt_lseek.o)
 .debug_frame   0x0000000000001b98       0x58 C:/Users/smail/Desktop/College/MA2/Real_Time_Embedded_Systems/final_projectCCC/sw/nios/project_bsp/\libhal_bsp.a(alt_malloc_lock.o)
 .debug_frame   0x0000000000001bf0       0x60 C:/Users/smail/Desktop/College/MA2/Real_Time_Embedded_Systems/final_projectCCC/sw/nios/project_bsp/\libhal_bsp.a(alt_read.o)
 .debug_frame   0x0000000000001c50       0x34 C:/Users/smail/Desktop/College/MA2/Real_Time_Embedded_Systems/final_projectCCC/sw/nios/project_bsp/\libhal_bsp.a(alt_sbrk.o)
 .debug_frame   0x0000000000001c84       0x60 C:/Users/smail/Desktop/College/MA2/Real_Time_Embedded_Systems/final_projectCCC/sw/nios/project_bsp/\libhal_bsp.a(alt_write.o)

.debug_str      0x0000000000000000     0x321a
 *(.debug_str)
 .debug_str     0x0000000000000000      0x489 obj/default/hello_world.o
                                        0x53c (size before relaxing)
 .debug_str     0x0000000000000489      0x16d c:/programmes/fpga/nios2eds/bin/gnu/h-x86_64-mingw32/bin/../lib/gcc/nios2-elf/5.3.0\libgcc.a(lib2-divmod.o)
                                        0x1b8 (size before relaxing)
 .debug_str     0x00000000000005f6       0xfb c:/programmes/fpga/nios2eds/bin/gnu/h-x86_64-mingw32/bin/../lib/gcc/nios2-elf/5.3.0\libgcc.a(addsf3.o)
                                        0x269 (size before relaxing)
 .debug_str     0x00000000000006f1       0x58 c:/programmes/fpga/nios2eds/bin/gnu/h-x86_64-mingw32/bin/../lib/gcc/nios2-elf/5.3.0\libgcc.a(lesf2.o)
                                        0x1fd (size before relaxing)
 .debug_str     0x0000000000000749       0x6d c:/programmes/fpga/nios2eds/bin/gnu/h-x86_64-mingw32/bin/../lib/gcc/nios2-elf/5.3.0\libgcc.a(floatunsisf.o)
                                        0x231 (size before relaxing)
 .debug_str     0x00000000000007b6       0x63 c:/programmes/fpga/nios2eds/bin/gnu/h-x86_64-mingw32/bin/../lib/gcc/nios2-elf/5.3.0\libgcc.a(_clzsi2.o)
                                        0x1e6 (size before relaxing)
 .debug_str     0x0000000000000819      0x1c9 c:/programmes/fpga/nios2eds/bin/gnu/h-x86_64-mingw32/bin/../lib/gcc/nios2-elf/5.3.0\libgcc.a(_clz.o)
 .debug_str     0x0000000000000819      0x4a8 c:/programmes/fpga/nios2eds/bin/gnu/h-x86_64-mingw32/bin/../lib/gcc/nios2-elf/5.3.0/../../../../../H-x86_64-mingw32/nios2-elf/lib\libc.a(lib_a-clock.o)
                                        0x5c0 (size before relaxing)
 .debug_str     0x0000000000000cc1       0xdb c:/programmes/fpga/nios2eds/bin/gnu/h-x86_64-mingw32/bin/../lib/gcc/nios2-elf/5.3.0/../../../../../H-x86_64-mingw32/nios2-elf/lib\libc.a(lib_a-impure.o)
                                        0x59b (size before relaxing)
 .debug_str     0x0000000000000d9c       0x44 c:/programmes/fpga/nios2eds/bin/gnu/h-x86_64-mingw32/bin/../lib/gcc/nios2-elf/5.3.0/../../../../../H-x86_64-mingw32/nios2-elf/lib\libc.a(lib_a-timesr.o)
                                        0x5b6 (size before relaxing)
 .debug_str     0x0000000000000de0      0x15e C:/Users/smail/Desktop/College/MA2/Real_Time_Embedded_Systems/final_projectCCC/sw/nios/project_bsp/\libhal_bsp.a(alt_iic.o)
                                        0x264 (size before relaxing)
 .debug_str     0x0000000000000f3e       0x4c C:/Users/smail/Desktop/College/MA2/Real_Time_Embedded_Systems/final_projectCCC/sw/nios/project_bsp/\libhal_bsp.a(alt_iic_isr_register.o)
                                        0x20e (size before relaxing)
 .debug_str     0x0000000000000f8a       0x3a C:/Users/smail/Desktop/College/MA2/Real_Time_Embedded_Systems/final_projectCCC/sw/nios/project_bsp/\libhal_bsp.a(alt_irq_handler.o)
                                        0x1bd (size before relaxing)
 .debug_str     0x0000000000000fc4       0x17 C:/Users/smail/Desktop/College/MA2/Real_Time_Embedded_Systems/final_projectCCC/sw/nios/project_bsp/\libhal_bsp.a(alt_irq_vars.o)
                                        0x160 (size before relaxing)
 .debug_str     0x0000000000000fdb       0xe9 C:/Users/smail/Desktop/College/MA2/Real_Time_Embedded_Systems/final_projectCCC/sw/nios/project_bsp/\libhal_bsp.a(alt_load.o)
                                        0x238 (size before relaxing)
 .debug_str     0x00000000000010c4       0x44 C:/Users/smail/Desktop/College/MA2/Real_Time_Embedded_Systems/final_projectCCC/sw/nios/project_bsp/\libhal_bsp.a(alt_main.o)
                                        0x1c3 (size before relaxing)
 .debug_str     0x0000000000001108       0x53 C:/Users/smail/Desktop/College/MA2/Real_Time_Embedded_Systems/final_projectCCC/sw/nios/project_bsp/\libhal_bsp.a(alt_printf.o)
                                        0x120 (size before relaxing)
 .debug_str     0x000000000000115b       0x22 C:/Users/smail/Desktop/College/MA2/Real_Time_Embedded_Systems/final_projectCCC/sw/nios/project_bsp/\libhal_bsp.a(alt_putchar.o)
                                        0x52b (size before relaxing)
 .debug_str     0x000000000000117d       0x41 C:/Users/smail/Desktop/College/MA2/Real_Time_Embedded_Systems/final_projectCCC/sw/nios/project_bsp/\libhal_bsp.a(alt_times.o)
                                        0x1fa (size before relaxing)
 .debug_str     0x00000000000011be      0x1a8 C:/Users/smail/Desktop/College/MA2/Real_Time_Embedded_Systems/final_projectCCC/sw/nios/project_bsp/\libhal_bsp.a(alt_sys_init.o)
                                        0x4cf (size before relaxing)
 .debug_str     0x0000000000001366       0xac C:/Users/smail/Desktop/College/MA2/Real_Time_Embedded_Systems/final_projectCCC/sw/nios/project_bsp/\libhal_bsp.a(altera_avalon_jtag_uart_fd.o)
                                        0x3ca (size before relaxing)
 .debug_str     0x0000000000001412       0xbc C:/Users/smail/Desktop/College/MA2/Real_Time_Embedded_Systems/final_projectCCC/sw/nios/project_bsp/\libhal_bsp.a(altera_avalon_jtag_uart_init.o)
                                        0x35e (size before relaxing)
 .debug_str     0x00000000000014ce       0x4a C:/Users/smail/Desktop/College/MA2/Real_Time_Embedded_Systems/final_projectCCC/sw/nios/project_bsp/\libhal_bsp.a(altera_avalon_jtag_uart_ioctl.o)
                                        0x2b9 (size before relaxing)
 .debug_str     0x0000000000001518       0x48 C:/Users/smail/Desktop/College/MA2/Real_Time_Embedded_Systems/final_projectCCC/sw/nios/project_bsp/\libhal_bsp.a(altera_avalon_jtag_uart_read.o)
                                        0x30e (size before relaxing)
 .debug_str     0x0000000000001560       0x4a C:/Users/smail/Desktop/College/MA2/Real_Time_Embedded_Systems/final_projectCCC/sw/nios/project_bsp/\libhal_bsp.a(altera_avalon_jtag_uart_write.o)
                                        0x30f (size before relaxing)
 .debug_str     0x00000000000015aa       0x6d C:/Users/smail/Desktop/College/MA2/Real_Time_Embedded_Systems/final_projectCCC/sw/nios/project_bsp/\libhal_bsp.a(altera_avalon_timer_sc.o)
                                        0x271 (size before relaxing)
 .debug_str     0x0000000000001617      0x243 C:/Users/smail/Desktop/College/MA2/Real_Time_Embedded_Systems/final_projectCCC/sw/nios/project_bsp/\libhal_bsp.a(altera_up_avalon_audio.o)
                                        0x463 (size before relaxing)
 .debug_str     0x000000000000185a      0x2f4 C:/Users/smail/Desktop/College/MA2/Real_Time_Embedded_Systems/final_projectCCC/sw/nios/project_bsp/\libhal_bsp.a(altera_up_avalon_audio_and_video_config.o)
                                        0x5bc (size before relaxing)
 .debug_str     0x0000000000001b4e       0x59 C:/Users/smail/Desktop/College/MA2/Real_Time_Embedded_Systems/final_projectCCC/sw/nios/project_bsp/\libhal_bsp.a(alt_alarm_start.o)
                                        0x2a4 (size before relaxing)
 .debug_str     0x0000000000001ba7       0x2c C:/Users/smail/Desktop/College/MA2/Real_Time_Embedded_Systems/final_projectCCC/sw/nios/project_bsp/\libhal_bsp.a(alt_close.o)
                                        0x231 (size before relaxing)
 .debug_str     0x0000000000001bd3       0x34 C:/Users/smail/Desktop/College/MA2/Real_Time_Embedded_Systems/final_projectCCC/sw/nios/project_bsp/\libhal_bsp.a(alt_dcache_flush_all.o)
                                        0x17b (size before relaxing)
 .debug_str     0x0000000000001c07      0x119 C:/Users/smail/Desktop/College/MA2/Real_Time_Embedded_Systems/final_projectCCC/sw/nios/project_bsp/\libhal_bsp.a(alt_dev.o)
                                        0x32b (size before relaxing)
 .debug_str     0x0000000000001d20       0x34 C:/Users/smail/Desktop/College/MA2/Real_Time_Embedded_Systems/final_projectCCC/sw/nios/project_bsp/\libhal_bsp.a(alt_dev_llist_insert.o)
                                        0x1f2 (size before relaxing)
 .debug_str     0x0000000000001d54       0x48 C:/Users/smail/Desktop/College/MA2/Real_Time_Embedded_Systems/final_projectCCC/sw/nios/project_bsp/\libhal_bsp.a(alt_do_ctors.o)
                                         0xf6 (size before relaxing)
 .debug_str     0x0000000000001d9c       0x4c C:/Users/smail/Desktop/College/MA2/Real_Time_Embedded_Systems/final_projectCCC/sw/nios/project_bsp/\libhal_bsp.a(alt_do_dtors.o)
                                         0xf5 (size before relaxing)
 .debug_str     0x0000000000001de8       0x14 C:/Users/smail/Desktop/College/MA2/Real_Time_Embedded_Systems/final_projectCCC/sw/nios/project_bsp/\libhal_bsp.a(alt_errno.o)
                                        0x16b (size before relaxing)
 .debug_str     0x0000000000001dfc       0x24 C:/Users/smail/Desktop/College/MA2/Real_Time_Embedded_Systems/final_projectCCC/sw/nios/project_bsp/\libhal_bsp.a(alt_find_dev.o)
                                        0x212 (size before relaxing)
 .debug_str     0x0000000000001e20       0x34 C:/Users/smail/Desktop/College/MA2/Real_Time_Embedded_Systems/final_projectCCC/sw/nios/project_bsp/\libhal_bsp.a(alt_icache_flush_all.o)
                                        0x17b (size before relaxing)
 .debug_str     0x0000000000001e54      0x48b C:/Users/smail/Desktop/College/MA2/Real_Time_Embedded_Systems/final_projectCCC/sw/nios/project_bsp/\libhal_bsp.a(alt_instruction_exception_entry.o)
                                        0x5c6 (size before relaxing)
 .debug_str     0x00000000000022df       0x56 C:/Users/smail/Desktop/College/MA2/Real_Time_Embedded_Systems/final_projectCCC/sw/nios/project_bsp/\libhal_bsp.a(alt_io_redirect.o)
                                        0x33c (size before relaxing)
 .debug_str     0x0000000000002335       0x29 C:/Users/smail/Desktop/College/MA2/Real_Time_Embedded_Systems/final_projectCCC/sw/nios/project_bsp/\libhal_bsp.a(alt_open.o)
                                        0x271 (size before relaxing)
 .debug_str     0x000000000000235e       0x28 C:/Users/smail/Desktop/College/MA2/Real_Time_Embedded_Systems/final_projectCCC/sw/nios/project_bsp/\libhal_bsp.a(alt_release_fd.o)
                                        0x1f9 (size before relaxing)
 .debug_str     0x0000000000002386       0x4a C:/Users/smail/Desktop/College/MA2/Real_Time_Embedded_Systems/final_projectCCC/sw/nios/project_bsp/\libhal_bsp.a(alt_tick.o)
                                        0x278 (size before relaxing)
 .debug_str     0x00000000000023d0       0x3b C:/Users/smail/Desktop/College/MA2/Real_Time_Embedded_Systems/final_projectCCC/sw/nios/project_bsp/\libhal_bsp.a(altera_nios2_gen2_irq.o)
                                        0x182 (size before relaxing)
 .debug_str     0x000000000000240b       0x26 C:/Users/smail/Desktop/College/MA2/Real_Time_Embedded_Systems/final_projectCCC/sw/nios/project_bsp/\libhal_bsp.a(alt_find_file.o)
                                        0x220 (size before relaxing)
 .debug_str     0x0000000000002431       0x30 C:/Users/smail/Desktop/College/MA2/Real_Time_Embedded_Systems/final_projectCCC/sw/nios/project_bsp/\libhal_bsp.a(alt_get_fd.o)
                                        0x242 (size before relaxing)
 .debug_str     0x0000000000002461       0x2c C:/Users/smail/Desktop/College/MA2/Real_Time_Embedded_Systems/final_projectCCC/sw/nios/project_bsp/\libhal_bsp.a(alt_icache_flush.o)
                                        0x181 (size before relaxing)
 .debug_str     0x000000000000248d      0x102 c:/programmes/fpga/nios2eds/bin/gnu/h-x86_64-mingw32/bin/../lib/gcc/nios2-elf/5.3.0/../../../../../H-x86_64-mingw32/nios2-elf/lib\libc.a(lib_a-atexit.o)
                                        0x207 (size before relaxing)
 .debug_str     0x000000000000258f       0x49 c:/programmes/fpga/nios2eds/bin/gnu/h-x86_64-mingw32/bin/../lib/gcc/nios2-elf/5.3.0/../../../../../H-x86_64-mingw32/nios2-elf/lib\libc.a(lib_a-exit.o)
                                        0x5a4 (size before relaxing)
 .debug_str     0x00000000000025d8       0x3c c:/programmes/fpga/nios2eds/bin/gnu/h-x86_64-mingw32/bin/../lib/gcc/nios2-elf/5.3.0/../../../../../H-x86_64-mingw32/nios2-elf/lib\libc.a(lib_a-int_errno.o)
                                        0x1c3 (size before relaxing)
 .debug_str     0x0000000000002614       0xc5 c:/programmes/fpga/nios2eds/bin/gnu/h-x86_64-mingw32/bin/../lib/gcc/nios2-elf/5.3.0/../../../../../H-x86_64-mingw32/nios2-elf/lib\libc.a(lib_a-memcmp.o)
                                        0x1ca (size before relaxing)
 .debug_str     0x00000000000026d9       0x68 c:/programmes/fpga/nios2eds/bin/gnu/h-x86_64-mingw32/bin/../lib/gcc/nios2-elf/5.3.0/../../../../../H-x86_64-mingw32/nios2-elf/lib\libc.a(lib_a-memcpy.o)
                                        0x1f1 (size before relaxing)
 .debug_str     0x0000000000002741       0xe9 c:/programmes/fpga/nios2eds/bin/gnu/h-x86_64-mingw32/bin/../lib/gcc/nios2-elf/5.3.0/../../../../../H-x86_64-mingw32/nios2-elf/lib\libc.a(lib_a-putc.o)
                                        0x5bb (size before relaxing)
 .debug_str     0x000000000000282a       0x4e c:/programmes/fpga/nios2eds/bin/gnu/h-x86_64-mingw32/bin/../lib/gcc/nios2-elf/5.3.0/../../../../../H-x86_64-mingw32/nios2-elf/lib\libc.a(lib_a-strlen.o)
                                        0x1dd (size before relaxing)
 .debug_str     0x0000000000002878       0x55 c:/programmes/fpga/nios2eds/bin/gnu/h-x86_64-mingw32/bin/../lib/gcc/nios2-elf/5.3.0/../../../../../H-x86_64-mingw32/nios2-elf/lib\libc.a(lib_a-wbuf.o)
                                        0x5bf (size before relaxing)
 .debug_str     0x00000000000028cd       0x4e c:/programmes/fpga/nios2eds/bin/gnu/h-x86_64-mingw32/bin/../lib/gcc/nios2-elf/5.3.0/../../../../../H-x86_64-mingw32/nios2-elf/lib\libc.a(lib_a-wsetup.o)
                                        0x5ba (size before relaxing)
 .debug_str     0x000000000000291b       0x3c c:/programmes/fpga/nios2eds/bin/gnu/h-x86_64-mingw32/bin/../lib/gcc/nios2-elf/5.3.0/../../../../../H-x86_64-mingw32/nios2-elf/lib\libc.a(lib_a-__atexit.o)
                                        0x5dc (size before relaxing)
 .debug_str     0x0000000000002957       0x62 c:/programmes/fpga/nios2eds/bin/gnu/h-x86_64-mingw32/bin/../lib/gcc/nios2-elf/5.3.0/../../../../../H-x86_64-mingw32/nios2-elf/lib\libc.a(lib_a-__call_atexit.o)
                                        0x5c8 (size before relaxing)
 .debug_str     0x00000000000029b9       0x69 c:/programmes/fpga/nios2eds/bin/gnu/h-x86_64-mingw32/bin/../lib/gcc/nios2-elf/5.3.0/../../../../../H-x86_64-mingw32/nios2-elf/lib\libc.a(lib_a-fflush.o)
                                        0x5fb (size before relaxing)
 .debug_str     0x0000000000002a22      0x123 c:/programmes/fpga/nios2eds/bin/gnu/h-x86_64-mingw32/bin/../lib/gcc/nios2-elf/5.3.0/../../../../../H-x86_64-mingw32/nios2-elf/lib\libc.a(lib_a-findfp.o)
                                        0x6b1 (size before relaxing)
 .debug_str     0x0000000000002b45      0x178 c:/programmes/fpga/nios2eds/bin/gnu/h-x86_64-mingw32/bin/../lib/gcc/nios2-elf/5.3.0/../../../../../H-x86_64-mingw32/nios2-elf/lib\libc.a(lib_a-freer.o)
                                        0x6ea (size before relaxing)
 .debug_str     0x0000000000002cbd       0x47 c:/programmes/fpga/nios2eds/bin/gnu/h-x86_64-mingw32/bin/../lib/gcc/nios2-elf/5.3.0/../../../../../H-x86_64-mingw32/nios2-elf/lib\libc.a(lib_a-fwalk.o)
                                        0x5a0 (size before relaxing)
 .debug_str     0x0000000000002d04       0x58 c:/programmes/fpga/nios2eds/bin/gnu/h-x86_64-mingw32/bin/../lib/gcc/nios2-elf/5.3.0/../../../../../H-x86_64-mingw32/nios2-elf/lib\libc.a(lib_a-makebuf.o)
                                        0x69d (size before relaxing)
 .debug_str     0x0000000000002d5c       0xe5 c:/programmes/fpga/nios2eds/bin/gnu/h-x86_64-mingw32/bin/../lib/gcc/nios2-elf/5.3.0/../../../../../H-x86_64-mingw32/nios2-elf/lib\libc.a(lib_a-mallocr.o)
                                        0x7a0 (size before relaxing)
 .debug_str     0x0000000000002e41       0x3a c:/programmes/fpga/nios2eds/bin/gnu/h-x86_64-mingw32/bin/../lib/gcc/nios2-elf/5.3.0/../../../../../H-x86_64-mingw32/nios2-elf/lib\libc.a(lib_a-memset.o)
                                        0x1de (size before relaxing)
 .debug_str     0x0000000000002e7b       0x4c c:/programmes/fpga/nios2eds/bin/gnu/h-x86_64-mingw32/bin/../lib/gcc/nios2-elf/5.3.0/../../../../../H-x86_64-mingw32/nios2-elf/lib\libc.a(lib_a-sbrkr.o)
                                        0x591 (size before relaxing)
 .debug_str     0x0000000000002ec7       0x98 c:/programmes/fpga/nios2eds/bin/gnu/h-x86_64-mingw32/bin/../lib/gcc/nios2-elf/5.3.0/../../../../../H-x86_64-mingw32/nios2-elf/lib\libc.a(lib_a-stdio.o)
                                        0x5ef (size before relaxing)
 .debug_str     0x0000000000002f5f       0x39 c:/programmes/fpga/nios2eds/bin/gnu/h-x86_64-mingw32/bin/../lib/gcc/nios2-elf/5.3.0/../../../../../H-x86_64-mingw32/nios2-elf/lib\libc.a(lib_a-writer.o)
                                        0x595 (size before relaxing)
 .debug_str     0x0000000000002f98       0x39 c:/programmes/fpga/nios2eds/bin/gnu/h-x86_64-mingw32/bin/../lib/gcc/nios2-elf/5.3.0/../../../../../H-x86_64-mingw32/nios2-elf/lib\libc.a(closer.o)
                                        0x585 (size before relaxing)
 .debug_str     0x0000000000002fd1       0x4f c:/programmes/fpga/nios2eds/bin/gnu/h-x86_64-mingw32/bin/../lib/gcc/nios2-elf/5.3.0/../../../../../H-x86_64-mingw32/nios2-elf/lib\libc.a(lib_a-fclose.o)
                                        0x5e8 (size before relaxing)
 .debug_str     0x0000000000003020       0x3f c:/programmes/fpga/nios2eds/bin/gnu/h-x86_64-mingw32/bin/../lib/gcc/nios2-elf/5.3.0/../../../../../H-x86_64-mingw32/nios2-elf/lib\libc.a(lib_a-fstatr.o)
                                        0x671 (size before relaxing)
 .debug_str     0x000000000000305f       0x41 c:/programmes/fpga/nios2eds/bin/gnu/h-x86_64-mingw32/bin/../lib/gcc/nios2-elf/5.3.0/../../../../../H-x86_64-mingw32/nios2-elf/lib\libc.a(lib_a-isattyr.o)
                                        0x588 (size before relaxing)
 .debug_str     0x00000000000030a0       0x39 c:/programmes/fpga/nios2eds/bin/gnu/h-x86_64-mingw32/bin/../lib/gcc/nios2-elf/5.3.0/../../../../../H-x86_64-mingw32/nios2-elf/lib\libc.a(lib_a-lseekr.o)
                                        0x58c (size before relaxing)
 .debug_str     0x00000000000030d9       0x38 c:/programmes/fpga/nios2eds/bin/gnu/h-x86_64-mingw32/bin/../lib/gcc/nios2-elf/5.3.0/../../../../../H-x86_64-mingw32/nios2-elf/lib\libc.a(lib_a-readr.o)
                                        0x592 (size before relaxing)
 .debug_str     0x0000000000003111       0x2a C:/Users/smail/Desktop/College/MA2/Real_Time_Embedded_Systems/final_projectCCC/sw/nios/project_bsp/\libhal_bsp.a(alt_exit.o)
                                        0x177 (size before relaxing)
 .debug_str     0x000000000000313b       0x14 C:/Users/smail/Desktop/College/MA2/Real_Time_Embedded_Systems/final_projectCCC/sw/nios/project_bsp/\libhal_bsp.a(alt_fstat.o)
                                        0x312 (size before relaxing)
 .debug_str     0x000000000000314f       0x15 C:/Users/smail/Desktop/College/MA2/Real_Time_Embedded_Systems/final_projectCCC/sw/nios/project_bsp/\libhal_bsp.a(alt_isatty.o)
                                        0x31a (size before relaxing)
 .debug_str     0x0000000000003164       0x14 C:/Users/smail/Desktop/College/MA2/Real_Time_Embedded_Systems/final_projectCCC/sw/nios/project_bsp/\libhal_bsp.a(alt_lseek.o)
                                        0x237 (size before relaxing)
 .debug_str     0x0000000000003178       0x1a C:/Users/smail/Desktop/College/MA2/Real_Time_Embedded_Systems/final_projectCCC/sw/nios/project_bsp/\libhal_bsp.a(alt_malloc_lock.o)
                                        0x535 (size before relaxing)
 .debug_str     0x0000000000003192       0x13 C:/Users/smail/Desktop/College/MA2/Real_Time_Embedded_Systems/final_projectCCC/sw/nios/project_bsp/\libhal_bsp.a(alt_read.o)
                                        0x31d (size before relaxing)
 .debug_str     0x00000000000031a5       0x61 C:/Users/smail/Desktop/College/MA2/Real_Time_Embedded_Systems/final_projectCCC/sw/nios/project_bsp/\libhal_bsp.a(alt_sbrk.o)
                                        0x1fa (size before relaxing)
 .debug_str     0x0000000000003206       0x14 C:/Users/smail/Desktop/College/MA2/Real_Time_Embedded_Systems/final_projectCCC/sw/nios/project_bsp/\libhal_bsp.a(alt_write.o)
                                        0x31e (size before relaxing)

.debug_loc      0x0000000000000000     0x4396
 *(.debug_loc)
 .debug_loc     0x0000000000000000      0x4ce c:/programmes/fpga/nios2eds/bin/gnu/h-x86_64-mingw32/bin/../lib/gcc/nios2-elf/5.3.0\libgcc.a(lib2-divmod.o)
 .debug_loc     0x00000000000004ce      0xae0 c:/programmes/fpga/nios2eds/bin/gnu/h-x86_64-mingw32/bin/../lib/gcc/nios2-elf/5.3.0\libgcc.a(addsf3.o)
 .debug_loc     0x0000000000000fae      0x192 c:/programmes/fpga/nios2eds/bin/gnu/h-x86_64-mingw32/bin/../lib/gcc/nios2-elf/5.3.0\libgcc.a(lesf2.o)
 .debug_loc     0x0000000000001140      0x1b2 c:/programmes/fpga/nios2eds/bin/gnu/h-x86_64-mingw32/bin/../lib/gcc/nios2-elf/5.3.0\libgcc.a(floatunsisf.o)
 .debug_loc     0x00000000000012f2       0x6b c:/programmes/fpga/nios2eds/bin/gnu/h-x86_64-mingw32/bin/../lib/gcc/nios2-elf/5.3.0\libgcc.a(_clzsi2.o)
 .debug_loc     0x000000000000135d       0x1e c:/programmes/fpga/nios2eds/bin/gnu/h-x86_64-mingw32/bin/../lib/gcc/nios2-elf/5.3.0/../../../../../H-x86_64-mingw32/nios2-elf/lib\libc.a(lib_a-clock.o)
 .debug_loc     0x000000000000137b       0x42 c:/programmes/fpga/nios2eds/bin/gnu/h-x86_64-mingw32/bin/../lib/gcc/nios2-elf/5.3.0/../../../../../H-x86_64-mingw32/nios2-elf/lib\libc.a(lib_a-timesr.o)
 .debug_loc     0x00000000000013bd       0x2c c:/programmes/fpga/nios2eds/bin/gnu/h-x86_64-mingw32/bin/../lib/gcc/nios2-elf/5.3.0/../../../../../H-x86_64-mingw32/nios2-elf/lib\libc.a(lib_a-atexit.o)
 .debug_loc     0x00000000000013e9       0x1e c:/programmes/fpga/nios2eds/bin/gnu/h-x86_64-mingw32/bin/../lib/gcc/nios2-elf/5.3.0/../../../../../H-x86_64-mingw32/nios2-elf/lib\libc.a(lib_a-exit.o)
 .debug_loc     0x0000000000001407      0x126 c:/programmes/fpga/nios2eds/bin/gnu/h-x86_64-mingw32/bin/../lib/gcc/nios2-elf/5.3.0/../../../../../H-x86_64-mingw32/nios2-elf/lib\libc.a(lib_a-memcmp.o)
 .debug_loc     0x000000000000152d      0x266 c:/programmes/fpga/nios2eds/bin/gnu/h-x86_64-mingw32/bin/../lib/gcc/nios2-elf/5.3.0/../../../../../H-x86_64-mingw32/nios2-elf/lib\libc.a(lib_a-memcpy.o)
 .debug_loc     0x0000000000001793      0x224 c:/programmes/fpga/nios2eds/bin/gnu/h-x86_64-mingw32/bin/../lib/gcc/nios2-elf/5.3.0/../../../../../H-x86_64-mingw32/nios2-elf/lib\libc.a(lib_a-putc.o)
 .debug_loc     0x00000000000019b7       0x47 c:/programmes/fpga/nios2eds/bin/gnu/h-x86_64-mingw32/bin/../lib/gcc/nios2-elf/5.3.0/../../../../../H-x86_64-mingw32/nios2-elf/lib\libc.a(lib_a-strlen.o)
 .debug_loc     0x00000000000019fe      0x1b2 c:/programmes/fpga/nios2eds/bin/gnu/h-x86_64-mingw32/bin/../lib/gcc/nios2-elf/5.3.0/../../../../../H-x86_64-mingw32/nios2-elf/lib\libc.a(lib_a-wbuf.o)
 .debug_loc     0x0000000000001bb0       0xa2 c:/programmes/fpga/nios2eds/bin/gnu/h-x86_64-mingw32/bin/../lib/gcc/nios2-elf/5.3.0/../../../../../H-x86_64-mingw32/nios2-elf/lib\libc.a(lib_a-wsetup.o)
 .debug_loc     0x0000000000001c52      0x185 c:/programmes/fpga/nios2eds/bin/gnu/h-x86_64-mingw32/bin/../lib/gcc/nios2-elf/5.3.0/../../../../../H-x86_64-mingw32/nios2-elf/lib\libc.a(lib_a-__atexit.o)
 .debug_loc     0x0000000000001dd7      0x1ce c:/programmes/fpga/nios2eds/bin/gnu/h-x86_64-mingw32/bin/../lib/gcc/nios2-elf/5.3.0/../../../../../H-x86_64-mingw32/nios2-elf/lib\libc.a(lib_a-__call_atexit.o)
 .debug_loc     0x0000000000001fa5      0x36f c:/programmes/fpga/nios2eds/bin/gnu/h-x86_64-mingw32/bin/../lib/gcc/nios2-elf/5.3.0/../../../../../H-x86_64-mingw32/nios2-elf/lib\libc.a(lib_a-fflush.o)
 .debug_loc     0x0000000000002314      0x2ee c:/programmes/fpga/nios2eds/bin/gnu/h-x86_64-mingw32/bin/../lib/gcc/nios2-elf/5.3.0/../../../../../H-x86_64-mingw32/nios2-elf/lib\libc.a(lib_a-findfp.o)
 .debug_loc     0x0000000000002602      0x4e7 c:/programmes/fpga/nios2eds/bin/gnu/h-x86_64-mingw32/bin/../lib/gcc/nios2-elf/5.3.0/../../../../../H-x86_64-mingw32/nios2-elf/lib\libc.a(lib_a-freer.o)
 .debug_loc     0x0000000000002ae9      0x25b c:/programmes/fpga/nios2eds/bin/gnu/h-x86_64-mingw32/bin/../lib/gcc/nios2-elf/5.3.0/../../../../../H-x86_64-mingw32/nios2-elf/lib\libc.a(lib_a-fwalk.o)
 .debug_loc     0x0000000000002d44      0x122 c:/programmes/fpga/nios2eds/bin/gnu/h-x86_64-mingw32/bin/../lib/gcc/nios2-elf/5.3.0/../../../../../H-x86_64-mingw32/nios2-elf/lib\libc.a(lib_a-makebuf.o)
 .debug_loc     0x0000000000002e66      0xb1b c:/programmes/fpga/nios2eds/bin/gnu/h-x86_64-mingw32/bin/../lib/gcc/nios2-elf/5.3.0/../../../../../H-x86_64-mingw32/nios2-elf/lib\libc.a(lib_a-mallocr.o)
 .debug_loc     0x0000000000003981      0x1a6 c:/programmes/fpga/nios2eds/bin/gnu/h-x86_64-mingw32/bin/../lib/gcc/nios2-elf/5.3.0/../../../../../H-x86_64-mingw32/nios2-elf/lib\libc.a(lib_a-memset.o)
 .debug_loc     0x0000000000003b27       0x58 c:/programmes/fpga/nios2eds/bin/gnu/h-x86_64-mingw32/bin/../lib/gcc/nios2-elf/5.3.0/../../../../../H-x86_64-mingw32/nios2-elf/lib\libc.a(lib_a-sbrkr.o)
 .debug_loc     0x0000000000003b7f      0x33a c:/programmes/fpga/nios2eds/bin/gnu/h-x86_64-mingw32/bin/../lib/gcc/nios2-elf/5.3.0/../../../../../H-x86_64-mingw32/nios2-elf/lib\libc.a(lib_a-stdio.o)
 .debug_loc     0x0000000000003eb9       0xb0 c:/programmes/fpga/nios2eds/bin/gnu/h-x86_64-mingw32/bin/../lib/gcc/nios2-elf/5.3.0/../../../../../H-x86_64-mingw32/nios2-elf/lib\libc.a(lib_a-writer.o)
 .debug_loc     0x0000000000003f69       0x58 c:/programmes/fpga/nios2eds/bin/gnu/h-x86_64-mingw32/bin/../lib/gcc/nios2-elf/5.3.0/../../../../../H-x86_64-mingw32/nios2-elf/lib\libc.a(closer.o)
 .debug_loc     0x0000000000003fc1      0x199 c:/programmes/fpga/nios2eds/bin/gnu/h-x86_64-mingw32/bin/../lib/gcc/nios2-elf/5.3.0/../../../../../H-x86_64-mingw32/nios2-elf/lib\libc.a(lib_a-fclose.o)
 .debug_loc     0x000000000000415a       0x84 c:/programmes/fpga/nios2eds/bin/gnu/h-x86_64-mingw32/bin/../lib/gcc/nios2-elf/5.3.0/../../../../../H-x86_64-mingw32/nios2-elf/lib\libc.a(lib_a-fstatr.o)
 .debug_loc     0x00000000000041de       0x58 c:/programmes/fpga/nios2eds/bin/gnu/h-x86_64-mingw32/bin/../lib/gcc/nios2-elf/5.3.0/../../../../../H-x86_64-mingw32/nios2-elf/lib\libc.a(lib_a-isattyr.o)
 .debug_loc     0x0000000000004236       0xb0 c:/programmes/fpga/nios2eds/bin/gnu/h-x86_64-mingw32/bin/../lib/gcc/nios2-elf/5.3.0/../../../../../H-x86_64-mingw32/nios2-elf/lib\libc.a(lib_a-lseekr.o)
 .debug_loc     0x00000000000042e6       0xb0 c:/programmes/fpga/nios2eds/bin/gnu/h-x86_64-mingw32/bin/../lib/gcc/nios2-elf/5.3.0/../../../../../H-x86_64-mingw32/nios2-elf/lib\libc.a(lib_a-readr.o)

.debug_macinfo
 *(.debug_macinfo)

.debug_weaknames
 *(.debug_weaknames)

.debug_funcnames
 *(.debug_funcnames)

.debug_typenames
 *(.debug_typenames)

.debug_varnames
 *(.debug_varnames)

.debug_alt_sim_info
                0x0000000000000000       0x30
 *(.debug_alt_sim_info)
 .debug_alt_sim_info
                0x0000000000000000       0x30 C:/Users/smail/Desktop/College/MA2/Real_Time_Embedded_Systems/final_projectCCC/sw/nios/project_bsp//obj/HAL/src/crt0.o
                0x0000000008080000                __alt_data_end = 0x8080000
                0x0000000008080000                PROVIDE (__alt_stack_pointer, __alt_data_end)
                [!provide]                        PROVIDE (__alt_stack_limit, __alt_stack_base)
                0x000000000804ac7c                PROVIDE (__alt_heap_start, end)
                0x0000000008080000                PROVIDE (__alt_heap_limit, 0x8080000)
OUTPUT(project.elf elf32-littlenios2)

.debug_ranges   0x0000000000000000      0x7c8
 .debug_ranges  0x0000000000000000       0x20 C:/Users/smail/Desktop/College/MA2/Real_Time_Embedded_Systems/final_projectCCC/sw/nios/project_bsp//obj/HAL/src/crt0.o
 .debug_ranges  0x0000000000000020       0x60 c:/programmes/fpga/nios2eds/bin/gnu/h-x86_64-mingw32/bin/../lib/gcc/nios2-elf/5.3.0\libgcc.a(lib2-divmod.o)
 .debug_ranges  0x0000000000000080      0x188 c:/programmes/fpga/nios2eds/bin/gnu/h-x86_64-mingw32/bin/../lib/gcc/nios2-elf/5.3.0\libgcc.a(addsf3.o)
 .debug_ranges  0x0000000000000208       0xa0 c:/programmes/fpga/nios2eds/bin/gnu/h-x86_64-mingw32/bin/../lib/gcc/nios2-elf/5.3.0\libgcc.a(lesf2.o)
 .debug_ranges  0x00000000000002a8       0x38 c:/programmes/fpga/nios2eds/bin/gnu/h-x86_64-mingw32/bin/../lib/gcc/nios2-elf/5.3.0\libgcc.a(floatunsisf.o)
 .debug_ranges  0x00000000000002e0       0x18 c:/programmes/fpga/nios2eds/bin/gnu/h-x86_64-mingw32/bin/../lib/gcc/nios2-elf/5.3.0\libgcc.a(_clzsi2.o)
 .debug_ranges  0x00000000000002f8       0x10 c:/programmes/fpga/nios2eds/bin/gnu/h-x86_64-mingw32/bin/../lib/gcc/nios2-elf/5.3.0/../../../../../H-x86_64-mingw32/nios2-elf/lib\libc.a(lib_a-clock.o)
 .debug_ranges  0x0000000000000308       0x10 c:/programmes/fpga/nios2eds/bin/gnu/h-x86_64-mingw32/bin/../lib/gcc/nios2-elf/5.3.0/../../../../../H-x86_64-mingw32/nios2-elf/lib\libc.a(lib_a-timesr.o)
 .debug_ranges  0x0000000000000318       0x28 C:/Users/smail/Desktop/College/MA2/Real_Time_Embedded_Systems/final_projectCCC/sw/nios/project_bsp/\libhal_bsp.a(alt_irq_entry.o)
 .debug_ranges  0x0000000000000340       0x10 C:/Users/smail/Desktop/College/MA2/Real_Time_Embedded_Systems/final_projectCCC/sw/nios/project_bsp/\libhal_bsp.a(alt_irq_handler.o)
 .debug_ranges  0x0000000000000350       0x30 C:/Users/smail/Desktop/College/MA2/Real_Time_Embedded_Systems/final_projectCCC/sw/nios/project_bsp/\libhal_bsp.a(altera_avalon_jtag_uart_init.o)
 .debug_ranges  0x0000000000000380       0x18 C:/Users/smail/Desktop/College/MA2/Real_Time_Embedded_Systems/final_projectCCC/sw/nios/project_bsp/\libhal_bsp.a(altera_avalon_jtag_uart_read.o)
 .debug_ranges  0x0000000000000398       0x30 C:/Users/smail/Desktop/College/MA2/Real_Time_Embedded_Systems/final_projectCCC/sw/nios/project_bsp/\libhal_bsp.a(alt_exception_entry.o)
 .debug_ranges  0x00000000000003c8       0x18 C:/Users/smail/Desktop/College/MA2/Real_Time_Embedded_Systems/final_projectCCC/sw/nios/project_bsp/\libhal_bsp.a(alt_instruction_exception_entry.o)
 .debug_ranges  0x00000000000003e0       0x10 c:/programmes/fpga/nios2eds/bin/gnu/h-x86_64-mingw32/bin/../lib/gcc/nios2-elf/5.3.0/../../../../../H-x86_64-mingw32/nios2-elf/lib\libc.a(lib_a-atexit.o)
 .debug_ranges  0x00000000000003f0       0x10 c:/programmes/fpga/nios2eds/bin/gnu/h-x86_64-mingw32/bin/../lib/gcc/nios2-elf/5.3.0/../../../../../H-x86_64-mingw32/nios2-elf/lib\libc.a(lib_a-exit.o)
 .debug_ranges  0x0000000000000400       0x10 c:/programmes/fpga/nios2eds/bin/gnu/h-x86_64-mingw32/bin/../lib/gcc/nios2-elf/5.3.0/../../../../../H-x86_64-mingw32/nios2-elf/lib\libc.a(lib_a-memcmp.o)
 .debug_ranges  0x0000000000000410       0x10 c:/programmes/fpga/nios2eds/bin/gnu/h-x86_64-mingw32/bin/../lib/gcc/nios2-elf/5.3.0/../../../../../H-x86_64-mingw32/nios2-elf/lib\libc.a(lib_a-memcpy.o)
 .debug_ranges  0x0000000000000420       0x48 c:/programmes/fpga/nios2eds/bin/gnu/h-x86_64-mingw32/bin/../lib/gcc/nios2-elf/5.3.0/../../../../../H-x86_64-mingw32/nios2-elf/lib\libc.a(lib_a-putc.o)
 .debug_ranges  0x0000000000000468       0x10 c:/programmes/fpga/nios2eds/bin/gnu/h-x86_64-mingw32/bin/../lib/gcc/nios2-elf/5.3.0/../../../../../H-x86_64-mingw32/nios2-elf/lib\libc.a(lib_a-strlen.o)
 .debug_ranges  0x0000000000000478       0x30 c:/programmes/fpga/nios2eds/bin/gnu/h-x86_64-mingw32/bin/../lib/gcc/nios2-elf/5.3.0/../../../../../H-x86_64-mingw32/nios2-elf/lib\libc.a(lib_a-wbuf.o)
 .debug_ranges  0x00000000000004a8       0x40 c:/programmes/fpga/nios2eds/bin/gnu/h-x86_64-mingw32/bin/../lib/gcc/nios2-elf/5.3.0/../../../../../H-x86_64-mingw32/nios2-elf/lib\libc.a(lib_a-wsetup.o)
 .debug_ranges  0x00000000000004e8       0x10 c:/programmes/fpga/nios2eds/bin/gnu/h-x86_64-mingw32/bin/../lib/gcc/nios2-elf/5.3.0/../../../../../H-x86_64-mingw32/nios2-elf/lib\libc.a(lib_a-__atexit.o)
 .debug_ranges  0x00000000000004f8       0x30 c:/programmes/fpga/nios2eds/bin/gnu/h-x86_64-mingw32/bin/../lib/gcc/nios2-elf/5.3.0/../../../../../H-x86_64-mingw32/nios2-elf/lib\libc.a(lib_a-__call_atexit.o)
 .debug_ranges  0x0000000000000528       0x58 c:/programmes/fpga/nios2eds/bin/gnu/h-x86_64-mingw32/bin/../lib/gcc/nios2-elf/5.3.0/../../../../../H-x86_64-mingw32/nios2-elf/lib\libc.a(lib_a-fflush.o)
 .debug_ranges  0x0000000000000580       0xc8 c:/programmes/fpga/nios2eds/bin/gnu/h-x86_64-mingw32/bin/../lib/gcc/nios2-elf/5.3.0/../../../../../H-x86_64-mingw32/nios2-elf/lib\libc.a(lib_a-findfp.o)
 .debug_ranges  0x0000000000000648       0x18 c:/programmes/fpga/nios2eds/bin/gnu/h-x86_64-mingw32/bin/../lib/gcc/nios2-elf/5.3.0/../../../../../H-x86_64-mingw32/nios2-elf/lib\libc.a(lib_a-freer.o)
 .debug_ranges  0x0000000000000660       0x18 c:/programmes/fpga/nios2eds/bin/gnu/h-x86_64-mingw32/bin/../lib/gcc/nios2-elf/5.3.0/../../../../../H-x86_64-mingw32/nios2-elf/lib\libc.a(lib_a-fwalk.o)
 .debug_ranges  0x0000000000000678       0x10 c:/programmes/fpga/nios2eds/bin/gnu/h-x86_64-mingw32/bin/../lib/gcc/nios2-elf/5.3.0/../../../../../H-x86_64-mingw32/nios2-elf/lib\libc.a(lib_a-makebuf.o)
 .debug_ranges  0x0000000000000688       0x48 c:/programmes/fpga/nios2eds/bin/gnu/h-x86_64-mingw32/bin/../lib/gcc/nios2-elf/5.3.0/../../../../../H-x86_64-mingw32/nios2-elf/lib\libc.a(lib_a-mallocr.o)
 .debug_ranges  0x00000000000006d0       0x10 c:/programmes/fpga/nios2eds/bin/gnu/h-x86_64-mingw32/bin/../lib/gcc/nios2-elf/5.3.0/../../../../../H-x86_64-mingw32/nios2-elf/lib\libc.a(lib_a-memset.o)
 .debug_ranges  0x00000000000006e0       0x10 c:/programmes/fpga/nios2eds/bin/gnu/h-x86_64-mingw32/bin/../lib/gcc/nios2-elf/5.3.0/../../../../../H-x86_64-mingw32/nios2-elf/lib\libc.a(lib_a-sbrkr.o)
 .debug_ranges  0x00000000000006f0       0x30 c:/programmes/fpga/nios2eds/bin/gnu/h-x86_64-mingw32/bin/../lib/gcc/nios2-elf/5.3.0/../../../../../H-x86_64-mingw32/nios2-elf/lib\libc.a(lib_a-stdio.o)
 .debug_ranges  0x0000000000000720       0x10 c:/programmes/fpga/nios2eds/bin/gnu/h-x86_64-mingw32/bin/../lib/gcc/nios2-elf/5.3.0/../../../../../H-x86_64-mingw32/nios2-elf/lib\libc.a(lib_a-writer.o)
 .debug_ranges  0x0000000000000730       0x10 c:/programmes/fpga/nios2eds/bin/gnu/h-x86_64-mingw32/bin/../lib/gcc/nios2-elf/5.3.0/../../../../../H-x86_64-mingw32/nios2-elf/lib\libc.a(closer.o)
 .debug_ranges  0x0000000000000740       0x48 c:/programmes/fpga/nios2eds/bin/gnu/h-x86_64-mingw32/bin/../lib/gcc/nios2-elf/5.3.0/../../../../../H-x86_64-mingw32/nios2-elf/lib\libc.a(lib_a-fclose.o)
 .debug_ranges  0x0000000000000788       0x10 c:/programmes/fpga/nios2eds/bin/gnu/h-x86_64-mingw32/bin/../lib/gcc/nios2-elf/5.3.0/../../../../../H-x86_64-mingw32/nios2-elf/lib\libc.a(lib_a-fstatr.o)
 .debug_ranges  0x0000000000000798       0x10 c:/programmes/fpga/nios2eds/bin/gnu/h-x86_64-mingw32/bin/../lib/gcc/nios2-elf/5.3.0/../../../../../H-x86_64-mingw32/nios2-elf/lib\libc.a(lib_a-isattyr.o)
 .debug_ranges  0x00000000000007a8       0x10 c:/programmes/fpga/nios2eds/bin/gnu/h-x86_64-mingw32/bin/../lib/gcc/nios2-elf/5.3.0/../../../../../H-x86_64-mingw32/nios2-elf/lib\libc.a(lib_a-lseekr.o)
 .debug_ranges  0x00000000000007b8       0x10 c:/programmes/fpga/nios2eds/bin/gnu/h-x86_64-mingw32/bin/../lib/gcc/nios2-elf/5.3.0/../../../../../H-x86_64-mingw32/nios2-elf/lib\libc.a(lib_a-readr.o)
